
output/hello.riscv:     file format elf64-littleriscv


Disassembly of section .text.init:

0000000080000000 <_start>:
    80000000:	62f9                	lui	t0,0x1e
    80000002:	3002a073          	csrs	mstatus,t0
    80000006:	4285                	li	t0,1
    80000008:	02fe                	slli	t0,t0,0x1f
    8000000a:	0002d563          	bgez	t0,80000014 <_start+0x14>
    8000000e:	4505                	li	a0,1
    80000010:	11a0106f          	j	8000112a <exit>
    80000014:	00000297          	auipc	t0,0x0
    80000018:	01028293          	addi	t0,t0,16 # 80000024 <_start+0x24>
    8000001c:	30529073          	csrw	mtvec,t0
    80000020:	00301073          	fscsr	zero
    80000024:	00000297          	auipc	t0,0x0
    80000028:	03428293          	addi	t0,t0,52 # 80000058 <trap_entry>
    8000002c:	30529073          	csrw	mtvec,t0
    80000030:	00002197          	auipc	gp,0x2
    80000034:	fec18193          	addi	gp,gp,-20 # 8000201c <__global_pointer$>
    80000038:	86318213          	addi	tp,gp,-1949 # 8000187f <_end+0x3f>
    8000003c:	fc027213          	andi	tp,tp,-64
    80000040:	f1402573          	csrr	a0,mhartid
    80000044:	4585                	li	a1,1
    80000046:	00b57063          	bgeu	a0,a1,80000046 <_start+0x46>
    8000004a:	00010137          	lui	sp,0x10
    8000004e:	2105                	addiw	sp,sp,1
    80000050:	013e                	slli	sp,sp,0xf
    80000052:	4d80106f          	j	8000152a <_init>
    80000056:	0001                	nop

0000000080000058 <trap_entry>:
    80000058:	716d                	addi	sp,sp,-272
    8000005a:	e406                	sd	ra,8(sp)
    8000005c:	e80a                	sd	sp,16(sp)
    8000005e:	ec0e                	sd	gp,24(sp)
    80000060:	f012                	sd	tp,32(sp)
    80000062:	f416                	sd	t0,40(sp)
    80000064:	f81a                	sd	t1,48(sp)
    80000066:	fc1e                	sd	t2,56(sp)
    80000068:	e0a2                	sd	s0,64(sp)
    8000006a:	e4a6                	sd	s1,72(sp)
    8000006c:	e8aa                	sd	a0,80(sp)
    8000006e:	ecae                	sd	a1,88(sp)
    80000070:	f0b2                	sd	a2,96(sp)
    80000072:	f4b6                	sd	a3,104(sp)
    80000074:	f8ba                	sd	a4,112(sp)
    80000076:	fcbe                	sd	a5,120(sp)
    80000078:	e142                	sd	a6,128(sp)
    8000007a:	e546                	sd	a7,136(sp)
    8000007c:	e94a                	sd	s2,144(sp)
    8000007e:	ed4e                	sd	s3,152(sp)
    80000080:	f152                	sd	s4,160(sp)
    80000082:	f556                	sd	s5,168(sp)
    80000084:	f95a                	sd	s6,176(sp)
    80000086:	fd5e                	sd	s7,184(sp)
    80000088:	e1e2                	sd	s8,192(sp)
    8000008a:	e5e6                	sd	s9,200(sp)
    8000008c:	e9ea                	sd	s10,208(sp)
    8000008e:	edee                	sd	s11,216(sp)
    80000090:	f1f2                	sd	t3,224(sp)
    80000092:	f5f6                	sd	t4,232(sp)
    80000094:	f9fa                	sd	t5,240(sp)
    80000096:	fdfe                	sd	t6,248(sp)
    80000098:	34202573          	csrr	a0,mcause
    8000009c:	341025f3          	csrr	a1,mepc
    800000a0:	860a                	mv	a2,sp
    800000a2:	470010ef          	jal	ra,80001512 <handle_trap>
    800000a6:	34151073          	csrw	mepc,a0
    800000aa:	6289                	lui	t0,0x2
    800000ac:	8002829b          	addiw	t0,t0,-2048
    800000b0:	3002a073          	csrs	mstatus,t0
    800000b4:	60a2                	ld	ra,8(sp)
    800000b6:	6142                	ld	sp,16(sp)
    800000b8:	61e2                	ld	gp,24(sp)
    800000ba:	7202                	ld	tp,32(sp)
    800000bc:	72a2                	ld	t0,40(sp)
    800000be:	7342                	ld	t1,48(sp)
    800000c0:	73e2                	ld	t2,56(sp)
    800000c2:	6406                	ld	s0,64(sp)
    800000c4:	64a6                	ld	s1,72(sp)
    800000c6:	6546                	ld	a0,80(sp)
    800000c8:	65e6                	ld	a1,88(sp)
    800000ca:	7606                	ld	a2,96(sp)
    800000cc:	76a6                	ld	a3,104(sp)
    800000ce:	7746                	ld	a4,112(sp)
    800000d0:	77e6                	ld	a5,120(sp)
    800000d2:	680a                	ld	a6,128(sp)
    800000d4:	68aa                	ld	a7,136(sp)
    800000d6:	694a                	ld	s2,144(sp)
    800000d8:	69ea                	ld	s3,152(sp)
    800000da:	7a0a                	ld	s4,160(sp)
    800000dc:	7aaa                	ld	s5,168(sp)
    800000de:	7b4a                	ld	s6,176(sp)
    800000e0:	7bea                	ld	s7,184(sp)
    800000e2:	6c0e                	ld	s8,192(sp)
    800000e4:	6cae                	ld	s9,200(sp)
    800000e6:	6d4e                	ld	s10,208(sp)
    800000e8:	6dee                	ld	s11,216(sp)
    800000ea:	7e0e                	ld	t3,224(sp)
    800000ec:	7eae                	ld	t4,232(sp)
    800000ee:	7f4e                	ld	t5,240(sp)
    800000f0:	7fee                	ld	t6,248(sp)
    800000f2:	6151                	addi	sp,sp,272
    800000f4:	30200073          	mret

Disassembly of section .tohost:

0000000080001000 <tohost>:
	...

0000000080001040 <fromhost>:
	...

Disassembly of section .text:

0000000080001048 <main>:
    80001048:	1141                	addi	sp,sp,-16
    8000104a:	e406                	sd	ra,8(sp)
    8000104c:	00000517          	auipc	a0,0x0
    80001050:	5ec50513          	addi	a0,a0,1516 # 80001638 <atol+0x58>
    80001054:	490000ef          	jal	ra,800014e4 <printf>
    80001058:	4501                	li	a0,0
    8000105a:	60a2                	ld	ra,8(sp)
    8000105c:	0141                	addi	sp,sp,16
    8000105e:	8082                	ret

0000000080001060 <putchar>:
    80001060:	6345                	lui	t1,0x11
    80001062:	3003031b          	addiw	t1,t1,768

0000000080001066 <uart_status_simple>:
    80001066:	00c30583          	lb	a1,12(t1) # 1100c <_tbss_end+0x1100c>
    8000106a:	8989                	andi	a1,a1,2
    8000106c:	dded                	beqz	a1,80001066 <uart_status_simple>
    8000106e:	00a30223          	sb	a0,4(t1)
    80001072:	4501                	li	a0,0
    80001074:	8082                	ret

0000000080001076 <getuint>:
    80001076:	4785                	li	a5,1
    80001078:	00b7c963          	blt	a5,a1,8000108a <getuint+0x14>
    8000107c:	cd89                	beqz	a1,80001096 <getuint+0x20>
    8000107e:	611c                	ld	a5,0(a0)
    80001080:	00878713          	addi	a4,a5,8
    80001084:	e118                	sd	a4,0(a0)
    80001086:	6388                	ld	a0,0(a5)
    80001088:	8082                	ret
    8000108a:	611c                	ld	a5,0(a0)
    8000108c:	00878713          	addi	a4,a5,8
    80001090:	e118                	sd	a4,0(a0)
    80001092:	6388                	ld	a0,0(a5)
    80001094:	8082                	ret
    80001096:	611c                	ld	a5,0(a0)
    80001098:	00878713          	addi	a4,a5,8
    8000109c:	e118                	sd	a4,0(a0)
    8000109e:	0007e503          	lwu	a0,0(a5)
    800010a2:	8082                	ret

00000000800010a4 <getint>:
    800010a4:	4785                	li	a5,1
    800010a6:	00b7c963          	blt	a5,a1,800010b8 <getint+0x14>
    800010aa:	cd89                	beqz	a1,800010c4 <getint+0x20>
    800010ac:	611c                	ld	a5,0(a0)
    800010ae:	00878713          	addi	a4,a5,8
    800010b2:	e118                	sd	a4,0(a0)
    800010b4:	6388                	ld	a0,0(a5)
    800010b6:	8082                	ret
    800010b8:	611c                	ld	a5,0(a0)
    800010ba:	00878713          	addi	a4,a5,8
    800010be:	e118                	sd	a4,0(a0)
    800010c0:	6388                	ld	a0,0(a5)
    800010c2:	8082                	ret
    800010c4:	611c                	ld	a5,0(a0)
    800010c6:	00878713          	addi	a4,a5,8
    800010ca:	e118                	sd	a4,0(a0)
    800010cc:	4388                	lw	a0,0(a5)
    800010ce:	8082                	ret

00000000800010d0 <sprintf_putch.3080>:
    800010d0:	619c                	ld	a5,0(a1)
    800010d2:	00a78023          	sb	a0,0(a5)
    800010d6:	619c                	ld	a5,0(a1)
    800010d8:	0785                	addi	a5,a5,1
    800010da:	e19c                	sd	a5,0(a1)
    800010dc:	8082                	ret

00000000800010de <syscall>:
    800010de:	7159                	addi	sp,sp,-112
    800010e0:	03f10713          	addi	a4,sp,63 # 1003f <_tbss_end+0x1003f>
    800010e4:	fc077713          	andi	a4,a4,-64
    800010e8:	e308                	sd	a0,0(a4)
    800010ea:	e70c                	sd	a1,8(a4)
    800010ec:	eb10                	sd	a2,16(a4)
    800010ee:	ef14                	sd	a3,24(a4)
    800010f0:	0ff0000f          	fence
    800010f4:	00000797          	auipc	a5,0x0
    800010f8:	f0e7b623          	sd	a4,-244(a5) # 80001000 <tohost>
    800010fc:	00000797          	auipc	a5,0x0
    80001100:	f447b783          	ld	a5,-188(a5) # 80001040 <fromhost>
    80001104:	dfe5                	beqz	a5,800010fc <syscall+0x1e>
    80001106:	00000797          	auipc	a5,0x0
    8000110a:	f207bd23          	sd	zero,-198(a5) # 80001040 <fromhost>
    8000110e:	0ff0000f          	fence
    80001112:	6308                	ld	a0,0(a4)
    80001114:	6165                	addi	sp,sp,112
    80001116:	8082                	ret

0000000080001118 <tohost_exit>:
    80001118:	00151793          	slli	a5,a0,0x1
    8000111c:	0017e793          	ori	a5,a5,1
    80001120:	00000717          	auipc	a4,0x0
    80001124:	eef73023          	sd	a5,-288(a4) # 80001000 <tohost>
    80001128:	a001                	j	80001128 <tohost_exit+0x10>

000000008000112a <exit>:
    8000112a:	6345                	lui	t1,0x11
    8000112c:	3003031b          	addiw	t1,t1,768
    80001130:	00c30503          	lb	a0,12(t1) # 1100c <_tbss_end+0x1100c>
    80001134:	8905                	andi	a0,a0,1
    80001136:	d975                	beqz	a0,8000112a <exit>
    80001138:	00020537          	lui	a0,0x20
    8000113c:	c548                	sw	a0,12(a0)
    8000113e:	a001                	j	8000113e <exit+0x14>

0000000080001140 <setStats>:
    80001140:	b00027f3          	csrr	a5,mcycle
    80001144:	ed01                	bnez	a0,8000115c <setStats+0x1c>
    80001146:	00000717          	auipc	a4,0x0
    8000114a:	6da70713          	addi	a4,a4,1754 # 80001820 <counters>
    8000114e:	6314                	ld	a3,0(a4)
    80001150:	8f95                	sub	a5,a5,a3
    80001152:	00000697          	auipc	a3,0x0
    80001156:	4f668693          	addi	a3,a3,1270 # 80001648 <atol+0x68>
    8000115a:	eb14                	sd	a3,16(a4)
    8000115c:	00000717          	auipc	a4,0x0
    80001160:	6cf73223          	sd	a5,1732(a4) # 80001820 <counters>
    80001164:	b02027f3          	csrr	a5,minstret
    80001168:	ed01                	bnez	a0,80001180 <setStats+0x40>
    8000116a:	00000717          	auipc	a4,0x0
    8000116e:	6b670713          	addi	a4,a4,1718 # 80001820 <counters>
    80001172:	6714                	ld	a3,8(a4)
    80001174:	8f95                	sub	a5,a5,a3
    80001176:	00000697          	auipc	a3,0x0
    8000117a:	4da68693          	addi	a3,a3,1242 # 80001650 <atol+0x70>
    8000117e:	ef14                	sd	a3,24(a4)
    80001180:	00000717          	auipc	a4,0x0
    80001184:	6af73423          	sd	a5,1704(a4) # 80001828 <counters+0x8>
    80001188:	8082                	ret

000000008000118a <abort>:
    8000118a:	1141                	addi	sp,sp,-16
    8000118c:	e406                	sd	ra,8(sp)
    8000118e:	f9dff0ef          	jal	ra,8000112a <exit>

0000000080001192 <thread_entry>:
    80001192:	e101                	bnez	a0,80001192 <thread_entry>
    80001194:	8082                	ret

0000000080001196 <memcpy>:
    80001196:	00b567b3          	or	a5,a0,a1
    8000119a:	8fd1                	or	a5,a5,a2
    8000119c:	8b9d                	andi	a5,a5,7
    8000119e:	cf89                	beqz	a5,800011b8 <memcpy+0x22>
    800011a0:	87aa                	mv	a5,a0
    800011a2:	00c50733          	add	a4,a0,a2
    800011a6:	02e7f463          	bgeu	a5,a4,800011ce <memcpy+0x38>
    800011aa:	0005c703          	lbu	a4,0(a1)
    800011ae:	00e78023          	sb	a4,0(a5)
    800011b2:	0785                	addi	a5,a5,1
    800011b4:	0585                	addi	a1,a1,1
    800011b6:	b7f5                	j	800011a2 <memcpy+0xc>
    800011b8:	87aa                	mv	a5,a0
    800011ba:	00c50733          	add	a4,a0,a2
    800011be:	00e7f763          	bgeu	a5,a4,800011cc <memcpy+0x36>
    800011c2:	6198                	ld	a4,0(a1)
    800011c4:	e398                	sd	a4,0(a5)
    800011c6:	07a1                	addi	a5,a5,8
    800011c8:	05a1                	addi	a1,a1,8
    800011ca:	bfc5                	j	800011ba <memcpy+0x24>
    800011cc:	8082                	ret
    800011ce:	8082                	ret

00000000800011d0 <memset>:
    800011d0:	00c567b3          	or	a5,a0,a2
    800011d4:	8b9d                	andi	a5,a5,7
    800011d6:	e78d                	bnez	a5,80001200 <memset+0x30>
    800011d8:	0ff5f593          	andi	a1,a1,255
    800011dc:	00859793          	slli	a5,a1,0x8
    800011e0:	8ddd                	or	a1,a1,a5
    800011e2:	01059793          	slli	a5,a1,0x10
    800011e6:	8fcd                	or	a5,a5,a1
    800011e8:	02079593          	slli	a1,a5,0x20
    800011ec:	8ddd                	or	a1,a1,a5
    800011ee:	87aa                	mv	a5,a0
    800011f0:	00c50733          	add	a4,a0,a2
    800011f4:	00e7f563          	bgeu	a5,a4,800011fe <memset+0x2e>
    800011f8:	e38c                	sd	a1,0(a5)
    800011fa:	07a1                	addi	a5,a5,8
    800011fc:	bfd5                	j	800011f0 <memset+0x20>
    800011fe:	8082                	ret
    80001200:	87aa                	mv	a5,a0
    80001202:	00c50733          	add	a4,a0,a2
    80001206:	00e7f663          	bgeu	a5,a4,80001212 <memset+0x42>
    8000120a:	00b78023          	sb	a1,0(a5)
    8000120e:	0785                	addi	a5,a5,1
    80001210:	bfcd                	j	80001202 <memset+0x32>
    80001212:	8082                	ret

0000000080001214 <strlen>:
    80001214:	87aa                	mv	a5,a0
    80001216:	0007c703          	lbu	a4,0(a5)
    8000121a:	c319                	beqz	a4,80001220 <strlen+0xc>
    8000121c:	0785                	addi	a5,a5,1
    8000121e:	bfe5                	j	80001216 <strlen+0x2>
    80001220:	40a78533          	sub	a0,a5,a0
    80001224:	8082                	ret

0000000080001226 <printstr>:
    80001226:	1141                	addi	sp,sp,-16
    80001228:	e406                	sd	ra,8(sp)
    8000122a:	e022                	sd	s0,0(sp)
    8000122c:	842a                	mv	s0,a0
    8000122e:	fe7ff0ef          	jal	ra,80001214 <strlen>
    80001232:	86aa                	mv	a3,a0
    80001234:	8622                	mv	a2,s0
    80001236:	4585                	li	a1,1
    80001238:	04000513          	li	a0,64
    8000123c:	ea3ff0ef          	jal	ra,800010de <syscall>
    80001240:	60a2                	ld	ra,8(sp)
    80001242:	6402                	ld	s0,0(sp)
    80001244:	0141                	addi	sp,sp,16
    80001246:	8082                	ret
    80001248:	1141                	addi	sp,sp,-16
    8000124a:	e406                	sd	ra,8(sp)
    8000124c:	00000517          	auipc	a0,0x0
    80001250:	41450513          	addi	a0,a0,1044 # 80001660 <atol+0x80>
    80001254:	fd3ff0ef          	jal	ra,80001226 <printstr>
    80001258:	557d                	li	a0,-1
    8000125a:	60a2                	ld	ra,8(sp)
    8000125c:	0141                	addi	sp,sp,16
    8000125e:	8082                	ret

0000000080001260 <printhex>:
    80001260:	7179                	addi	sp,sp,-48
    80001262:	f406                	sd	ra,40(sp)
    80001264:	4701                	li	a4,0
    80001266:	a821                	j	8000127e <printhex+0x1e>
    80001268:	05700613          	li	a2,87
    8000126c:	47bd                	li	a5,15
    8000126e:	9f99                	subw	a5,a5,a4
    80001270:	96b2                	add	a3,a3,a2
    80001272:	1010                	addi	a2,sp,32
    80001274:	97b2                	add	a5,a5,a2
    80001276:	fed78423          	sb	a3,-24(a5)
    8000127a:	8111                	srli	a0,a0,0x4
    8000127c:	2705                	addiw	a4,a4,1
    8000127e:	47bd                	li	a5,15
    80001280:	00e7ca63          	blt	a5,a4,80001294 <printhex+0x34>
    80001284:	00f57693          	andi	a3,a0,15
    80001288:	4625                	li	a2,9
    8000128a:	fcd66fe3          	bltu	a2,a3,80001268 <printhex+0x8>
    8000128e:	03000613          	li	a2,48
    80001292:	bfe9                	j	8000126c <printhex+0xc>
    80001294:	00010c23          	sb	zero,24(sp)
    80001298:	0028                	addi	a0,sp,8
    8000129a:	f8dff0ef          	jal	ra,80001226 <printstr>
    8000129e:	70a2                	ld	ra,40(sp)
    800012a0:	6145                	addi	sp,sp,48
    800012a2:	8082                	ret

00000000800012a4 <strnlen>:
    800012a4:	87aa                	mv	a5,a0
    800012a6:	fff58713          	addi	a4,a1,-1
    800012aa:	c599                	beqz	a1,800012b8 <strnlen+0x14>
    800012ac:	0007c683          	lbu	a3,0(a5)
    800012b0:	c681                	beqz	a3,800012b8 <strnlen+0x14>
    800012b2:	0785                	addi	a5,a5,1
    800012b4:	85ba                	mv	a1,a4
    800012b6:	bfc5                	j	800012a6 <strnlen+0x2>
    800012b8:	40a78533          	sub	a0,a5,a0
    800012bc:	8082                	ret

00000000800012be <vprintfmt>:
    800012be:	714d                	addi	sp,sp,-336
    800012c0:	e686                	sd	ra,328(sp)
    800012c2:	e2a2                	sd	s0,320(sp)
    800012c4:	fe26                	sd	s1,312(sp)
    800012c6:	fa4a                	sd	s2,304(sp)
    800012c8:	f64e                	sd	s3,296(sp)
    800012ca:	f252                	sd	s4,288(sp)
    800012cc:	ee56                	sd	s5,280(sp)
    800012ce:	ea5a                	sd	s6,272(sp)
    800012d0:	892a                	mv	s2,a0
    800012d2:	84ae                	mv	s1,a1
    800012d4:	8432                	mv	s0,a2
    800012d6:	e436                	sd	a3,8(sp)
    800012d8:	00044503          	lbu	a0,0(s0)
    800012dc:	02500793          	li	a5,37
    800012e0:	00f50863          	beq	a0,a5,800012f0 <vprintfmt+0x32>
    800012e4:	1e050663          	beqz	a0,800014d0 <vprintfmt+0x212>
    800012e8:	0405                	addi	s0,s0,1
    800012ea:	85a6                	mv	a1,s1
    800012ec:	9902                	jalr	s2
    800012ee:	b7ed                	j	800012d8 <vprintfmt+0x1a>
    800012f0:	00140993          	addi	s3,s0,1
    800012f4:	87ce                	mv	a5,s3
    800012f6:	02000a93          	li	s5,32
    800012fa:	5b7d                	li	s6,-1
    800012fc:	5a7d                	li	s4,-1
    800012fe:	4581                	li	a1,0
    80001300:	00178413          	addi	s0,a5,1
    80001304:	0007c703          	lbu	a4,0(a5)
    80001308:	0007051b          	sext.w	a0,a4
    8000130c:	fdd7079b          	addiw	a5,a4,-35
    80001310:	0ff7f613          	andi	a2,a5,255
    80001314:	05500693          	li	a3,85
    80001318:	1ac6e663          	bltu	a3,a2,800014c4 <vprintfmt+0x206>
    8000131c:	00261793          	slli	a5,a2,0x2
    80001320:	00000617          	auipc	a2,0x0
    80001324:	3a460613          	addi	a2,a2,932 # 800016c4 <atol+0xe4>
    80001328:	97b2                	add	a5,a5,a2
    8000132a:	4394                	lw	a3,0(a5)
    8000132c:	96b2                	add	a3,a3,a2
    8000132e:	8682                	jr	a3
    80001330:	8aba                	mv	s5,a4
    80001332:	87a2                	mv	a5,s0
    80001334:	b7f1                	j	80001300 <vprintfmt+0x42>
    80001336:	49c1                	li	s3,16
    80001338:	a8f5                	j	80001434 <vprintfmt+0x176>
    8000133a:	4b01                	li	s6,0
    8000133c:	002b179b          	slliw	a5,s6,0x2
    80001340:	016787bb          	addw	a5,a5,s6
    80001344:	0017979b          	slliw	a5,a5,0x1
    80001348:	9fa9                	addw	a5,a5,a0
    8000134a:	fd078b1b          	addiw	s6,a5,-48
    8000134e:	00044703          	lbu	a4,0(s0)
    80001352:	0007051b          	sext.w	a0,a4
    80001356:	fd07071b          	addiw	a4,a4,-48
    8000135a:	47a5                	li	a5,9
    8000135c:	02e7e863          	bltu	a5,a4,8000138c <vprintfmt+0xce>
    80001360:	0405                	addi	s0,s0,1
    80001362:	bfe9                	j	8000133c <vprintfmt+0x7e>
    80001364:	67a2                	ld	a5,8(sp)
    80001366:	00878713          	addi	a4,a5,8
    8000136a:	e43a                	sd	a4,8(sp)
    8000136c:	0007ab03          	lw	s6,0(a5)
    80001370:	87a2                	mv	a5,s0
    80001372:	f80a57e3          	bgez	s4,80001300 <vprintfmt+0x42>
    80001376:	8a5a                	mv	s4,s6
    80001378:	5b7d                	li	s6,-1
    8000137a:	b759                	j	80001300 <vprintfmt+0x42>
    8000137c:	000a4463          	bltz	s4,80001384 <vprintfmt+0xc6>
    80001380:	87a2                	mv	a5,s0
    80001382:	bfbd                	j	80001300 <vprintfmt+0x42>
    80001384:	4a01                	li	s4,0
    80001386:	bfed                	j	80001380 <vprintfmt+0xc2>
    80001388:	87a2                	mv	a5,s0
    8000138a:	bf9d                	j	80001300 <vprintfmt+0x42>
    8000138c:	87a2                	mv	a5,s0
    8000138e:	b7d5                	j	80001372 <vprintfmt+0xb4>
    80001390:	2585                	addiw	a1,a1,1
    80001392:	87a2                	mv	a5,s0
    80001394:	b7b5                	j	80001300 <vprintfmt+0x42>
    80001396:	67a2                	ld	a5,8(sp)
    80001398:	00878713          	addi	a4,a5,8
    8000139c:	e43a                	sd	a4,8(sp)
    8000139e:	85a6                	mv	a1,s1
    800013a0:	4388                	lw	a0,0(a5)
    800013a2:	9902                	jalr	s2
    800013a4:	bf15                	j	800012d8 <vprintfmt+0x1a>
    800013a6:	67a2                	ld	a5,8(sp)
    800013a8:	00878713          	addi	a4,a5,8
    800013ac:	e43a                	sd	a4,8(sp)
    800013ae:	0007b983          	ld	s3,0(a5)
    800013b2:	00098f63          	beqz	s3,800013d0 <vprintfmt+0x112>
    800013b6:	03405e63          	blez	s4,800013f2 <vprintfmt+0x134>
    800013ba:	02d00793          	li	a5,45
    800013be:	02fa8a63          	beq	s5,a5,800013f2 <vprintfmt+0x134>
    800013c2:	85da                	mv	a1,s6
    800013c4:	854e                	mv	a0,s3
    800013c6:	edfff0ef          	jal	ra,800012a4 <strnlen>
    800013ca:	40aa0a3b          	subw	s4,s4,a0
    800013ce:	a819                	j	800013e4 <vprintfmt+0x126>
    800013d0:	00000997          	auipc	s3,0x0
    800013d4:	2a898993          	addi	s3,s3,680 # 80001678 <atol+0x98>
    800013d8:	bff9                	j	800013b6 <vprintfmt+0xf8>
    800013da:	85a6                	mv	a1,s1
    800013dc:	000a851b          	sext.w	a0,s5
    800013e0:	9902                	jalr	s2
    800013e2:	3a7d                	addiw	s4,s4,-1
    800013e4:	ff404be3          	bgtz	s4,800013da <vprintfmt+0x11c>
    800013e8:	a029                	j	800013f2 <vprintfmt+0x134>
    800013ea:	85a6                	mv	a1,s1
    800013ec:	9902                	jalr	s2
    800013ee:	0985                	addi	s3,s3,1
    800013f0:	3a7d                	addiw	s4,s4,-1
    800013f2:	0009c503          	lbu	a0,0(s3)
    800013f6:	cd01                	beqz	a0,8000140e <vprintfmt+0x150>
    800013f8:	fe0b49e3          	bltz	s6,800013ea <vprintfmt+0x12c>
    800013fc:	3b7d                	addiw	s6,s6,-1
    800013fe:	fe0b56e3          	bgez	s6,800013ea <vprintfmt+0x12c>
    80001402:	a031                	j	8000140e <vprintfmt+0x150>
    80001404:	85a6                	mv	a1,s1
    80001406:	02000513          	li	a0,32
    8000140a:	9902                	jalr	s2
    8000140c:	3a7d                	addiw	s4,s4,-1
    8000140e:	ff404be3          	bgtz	s4,80001404 <vprintfmt+0x146>
    80001412:	b5d9                	j	800012d8 <vprintfmt+0x1a>
    80001414:	0028                	addi	a0,sp,8
    80001416:	c8fff0ef          	jal	ra,800010a4 <getint>
    8000141a:	89aa                	mv	s3,a0
    8000141c:	00054463          	bltz	a0,80001424 <vprintfmt+0x166>
    80001420:	49a9                	li	s3,10
    80001422:	a821                	j	8000143a <vprintfmt+0x17c>
    80001424:	85a6                	mv	a1,s1
    80001426:	02d00513          	li	a0,45
    8000142a:	9902                	jalr	s2
    8000142c:	41300533          	neg	a0,s3
    80001430:	bfc5                	j	80001420 <vprintfmt+0x162>
    80001432:	49a1                	li	s3,8
    80001434:	0028                	addi	a0,sp,8
    80001436:	c41ff0ef          	jal	ra,80001076 <getuint>
    8000143a:	0009861b          	sext.w	a2,s3
    8000143e:	2a81                	sext.w	s5,s5
    80001440:	4781                	li	a5,0
    80001442:	02061713          	slli	a4,a2,0x20
    80001446:	9301                	srli	a4,a4,0x20
    80001448:	02e576b3          	remu	a3,a0,a4
    8000144c:	0017899b          	addiw	s3,a5,1
    80001450:	078a                	slli	a5,a5,0x2
    80001452:	0a0c                	addi	a1,sp,272
    80001454:	97ae                	add	a5,a5,a1
    80001456:	f0d7a023          	sw	a3,-256(a5)
    8000145a:	02e56363          	bltu	a0,a4,80001480 <vprintfmt+0x1c2>
    8000145e:	02e55533          	divu	a0,a0,a4
    80001462:	87ce                	mv	a5,s3
    80001464:	bff9                	j	80001442 <vprintfmt+0x184>
    80001466:	85a6                	mv	a1,s1
    80001468:	03000513          	li	a0,48
    8000146c:	9902                	jalr	s2
    8000146e:	85a6                	mv	a1,s1
    80001470:	07800513          	li	a0,120
    80001474:	9902                	jalr	s2
    80001476:	4585                	li	a1,1
    80001478:	49c1                	li	s3,16
    8000147a:	bf6d                	j	80001434 <vprintfmt+0x176>
    8000147c:	49a9                	li	s3,10
    8000147e:	bf5d                	j	80001434 <vprintfmt+0x176>
    80001480:	fffa0b1b          	addiw	s6,s4,-1
    80001484:	0149dd63          	bge	s3,s4,8000149e <vprintfmt+0x1e0>
    80001488:	85a6                	mv	a1,s1
    8000148a:	8556                	mv	a0,s5
    8000148c:	9902                	jalr	s2
    8000148e:	8a5a                	mv	s4,s6
    80001490:	bfc5                	j	80001480 <vprintfmt+0x1c2>
    80001492:	03000513          	li	a0,48
    80001496:	85a6                	mv	a1,s1
    80001498:	9d3d                	addw	a0,a0,a5
    8000149a:	9902                	jalr	s2
    8000149c:	89d2                	mv	s3,s4
    8000149e:	fff98a1b          	addiw	s4,s3,-1
    800014a2:	e3305be3          	blez	s3,800012d8 <vprintfmt+0x1a>
    800014a6:	002a1793          	slli	a5,s4,0x2
    800014aa:	0a18                	addi	a4,sp,272
    800014ac:	97ba                	add	a5,a5,a4
    800014ae:	f007a783          	lw	a5,-256(a5)
    800014b2:	4725                	li	a4,9
    800014b4:	fcf77fe3          	bgeu	a4,a5,80001492 <vprintfmt+0x1d4>
    800014b8:	05700513          	li	a0,87
    800014bc:	bfe9                	j	80001496 <vprintfmt+0x1d8>
    800014be:	85a6                	mv	a1,s1
    800014c0:	9902                	jalr	s2
    800014c2:	bd19                	j	800012d8 <vprintfmt+0x1a>
    800014c4:	85a6                	mv	a1,s1
    800014c6:	02500513          	li	a0,37
    800014ca:	9902                	jalr	s2
    800014cc:	844e                	mv	s0,s3
    800014ce:	b529                	j	800012d8 <vprintfmt+0x1a>
    800014d0:	60b6                	ld	ra,328(sp)
    800014d2:	6416                	ld	s0,320(sp)
    800014d4:	74f2                	ld	s1,312(sp)
    800014d6:	7952                	ld	s2,304(sp)
    800014d8:	79b2                	ld	s3,296(sp)
    800014da:	7a12                	ld	s4,288(sp)
    800014dc:	6af2                	ld	s5,280(sp)
    800014de:	6b52                	ld	s6,272(sp)
    800014e0:	6171                	addi	sp,sp,336
    800014e2:	8082                	ret

00000000800014e4 <printf>:
    800014e4:	711d                	addi	sp,sp,-96
    800014e6:	ec06                	sd	ra,24(sp)
    800014e8:	f42e                	sd	a1,40(sp)
    800014ea:	f832                	sd	a2,48(sp)
    800014ec:	fc36                	sd	a3,56(sp)
    800014ee:	e0ba                	sd	a4,64(sp)
    800014f0:	e4be                	sd	a5,72(sp)
    800014f2:	e8c2                	sd	a6,80(sp)
    800014f4:	ecc6                	sd	a7,88(sp)
    800014f6:	1034                	addi	a3,sp,40
    800014f8:	e436                	sd	a3,8(sp)
    800014fa:	862a                	mv	a2,a0
    800014fc:	4581                	li	a1,0
    800014fe:	00000517          	auipc	a0,0x0
    80001502:	b6250513          	addi	a0,a0,-1182 # 80001060 <putchar>
    80001506:	db9ff0ef          	jal	ra,800012be <vprintfmt>
    8000150a:	4501                	li	a0,0
    8000150c:	60e2                	ld	ra,24(sp)
    8000150e:	6125                	addi	sp,sp,96
    80001510:	8082                	ret

0000000080001512 <handle_trap>:
    80001512:	1141                	addi	sp,sp,-16
    80001514:	e406                	sd	ra,8(sp)
    80001516:	862e                	mv	a2,a1
    80001518:	85aa                	mv	a1,a0
    8000151a:	00000517          	auipc	a0,0x0
    8000151e:	16650513          	addi	a0,a0,358 # 80001680 <atol+0xa0>
    80001522:	fc3ff0ef          	jal	ra,800014e4 <printf>
    80001526:	c05ff0ef          	jal	ra,8000112a <exit>

000000008000152a <_init>:
    8000152a:	1101                	addi	sp,sp,-32
    8000152c:	ec06                	sd	ra,24(sp)
    8000152e:	e822                	sd	s0,16(sp)
    80001530:	e426                	sd	s1,8(sp)
    80001532:	4581                	li	a1,0
    80001534:	4501                	li	a0,0
    80001536:	b13ff0ef          	jal	ra,80001048 <main>
    8000153a:	84aa                	mv	s1,a0
    8000153c:	4401                	li	s0,0
    8000153e:	a831                	j	8000155a <_init+0x30>
    80001540:	00000797          	auipc	a5,0x0
    80001544:	2e078793          	addi	a5,a5,736 # 80001820 <counters>
    80001548:	97ba                	add	a5,a5,a4
    8000154a:	6b8c                	ld	a1,16(a5)
    8000154c:	00000517          	auipc	a0,0x0
    80001550:	16c50513          	addi	a0,a0,364 # 800016b8 <atol+0xd8>
    80001554:	f91ff0ef          	jal	ra,800014e4 <printf>
    80001558:	2405                	addiw	s0,s0,1
    8000155a:	4785                	li	a5,1
    8000155c:	0087cc63          	blt	a5,s0,80001574 <_init+0x4a>
    80001560:	00341713          	slli	a4,s0,0x3
    80001564:	00000797          	auipc	a5,0x0
    80001568:	2bc78793          	addi	a5,a5,700 # 80001820 <counters>
    8000156c:	97ba                	add	a5,a5,a4
    8000156e:	6390                	ld	a2,0(a5)
    80001570:	d665                	beqz	a2,80001558 <_init+0x2e>
    80001572:	b7f9                	j	80001540 <_init+0x16>
    80001574:	8526                	mv	a0,s1
    80001576:	bb5ff0ef          	jal	ra,8000112a <exit>

000000008000157a <sprintf>:
    8000157a:	711d                	addi	sp,sp,-96
    8000157c:	f406                	sd	ra,40(sp)
    8000157e:	f022                	sd	s0,32(sp)
    80001580:	e42a                	sd	a0,8(sp)
    80001582:	f832                	sd	a2,48(sp)
    80001584:	fc36                	sd	a3,56(sp)
    80001586:	e0ba                	sd	a4,64(sp)
    80001588:	e4be                	sd	a5,72(sp)
    8000158a:	e8c2                	sd	a6,80(sp)
    8000158c:	ecc6                	sd	a7,88(sp)
    8000158e:	842a                	mv	s0,a0
    80001590:	1814                	addi	a3,sp,48
    80001592:	ec36                	sd	a3,24(sp)
    80001594:	862e                	mv	a2,a1
    80001596:	002c                	addi	a1,sp,8
    80001598:	00000517          	auipc	a0,0x0
    8000159c:	b3850513          	addi	a0,a0,-1224 # 800010d0 <sprintf_putch.3080>
    800015a0:	d1fff0ef          	jal	ra,800012be <vprintfmt>
    800015a4:	67a2                	ld	a5,8(sp)
    800015a6:	00078023          	sb	zero,0(a5)
    800015aa:	6522                	ld	a0,8(sp)
    800015ac:	9d01                	subw	a0,a0,s0
    800015ae:	70a2                	ld	ra,40(sp)
    800015b0:	7402                	ld	s0,32(sp)
    800015b2:	6125                	addi	sp,sp,96
    800015b4:	8082                	ret

00000000800015b6 <strcmp>:
    800015b6:	00054703          	lbu	a4,0(a0)
    800015ba:	0505                	addi	a0,a0,1
    800015bc:	0005c783          	lbu	a5,0(a1)
    800015c0:	0585                	addi	a1,a1,1
    800015c2:	00f71363          	bne	a4,a5,800015c8 <strcmp+0x12>
    800015c6:	fb65                	bnez	a4,800015b6 <strcmp>
    800015c8:	40f7053b          	subw	a0,a4,a5
    800015cc:	8082                	ret

00000000800015ce <strcpy>:
    800015ce:	86aa                	mv	a3,a0
    800015d0:	0005c703          	lbu	a4,0(a1)
    800015d4:	0585                	addi	a1,a1,1
    800015d6:	00e68023          	sb	a4,0(a3)
    800015da:	0685                	addi	a3,a3,1
    800015dc:	fb75                	bnez	a4,800015d0 <strcpy+0x2>
    800015de:	8082                	ret

00000000800015e0 <atol>:
    800015e0:	87aa                	mv	a5,a0
    800015e2:	0007c703          	lbu	a4,0(a5)
    800015e6:	02000693          	li	a3,32
    800015ea:	00d71463          	bne	a4,a3,800015f2 <atol+0x12>
    800015ee:	0785                	addi	a5,a5,1
    800015f0:	bfcd                	j	800015e2 <atol+0x2>
    800015f2:	02d00693          	li	a3,45
    800015f6:	00d70863          	beq	a4,a3,80001606 <atol+0x26>
    800015fa:	02b00693          	li	a3,43
    800015fe:	00d70463          	beq	a4,a3,80001606 <atol+0x26>
    80001602:	4601                	li	a2,0
    80001604:	a031                	j	80001610 <atol+0x30>
    80001606:	fd370713          	addi	a4,a4,-45
    8000160a:	00173613          	seqz	a2,a4
    8000160e:	0785                	addi	a5,a5,1
    80001610:	4501                	li	a0,0
    80001612:	a811                	j	80001626 <atol+0x46>
    80001614:	00251713          	slli	a4,a0,0x2
    80001618:	972a                	add	a4,a4,a0
    8000161a:	0706                	slli	a4,a4,0x1
    8000161c:	0785                	addi	a5,a5,1
    8000161e:	fd06869b          	addiw	a3,a3,-48
    80001622:	00e68533          	add	a0,a3,a4
    80001626:	0007c683          	lbu	a3,0(a5)
    8000162a:	f6ed                	bnez	a3,80001614 <atol+0x34>
    8000162c:	c219                	beqz	a2,80001632 <atol+0x52>
    8000162e:	40a00533          	neg	a0,a0
    80001632:	8082                	ret

Disassembly of section .rodata.str1.8:

0000000080001638 <.rodata.str1.8>:
    80001638:	6548                	ld	a0,136(a0)
    8000163a:	6c6c                	ld	a1,216(s0)
    8000163c:	57202c6f          	jal	s8,80003bae <__global_pointer$+0x1b92>
    80001640:	646c726f          	jal	tp,800c8c86 <__global_pointer$+0xc6c6a>
    80001644:	0a21                	addi	s4,s4,8
    80001646:	0000                	unimp
    80001648:	636d                	lui	t1,0x1b
    8000164a:	6379                	lui	t1,0x1e
    8000164c:	656c                	ld	a1,200(a0)
    8000164e:	0000                	unimp
    80001650:	696d                	lui	s2,0x1b
    80001652:	736e                	ld	t1,248(sp)
    80001654:	7274                	ld	a3,224(a2)
    80001656:	7465                	lui	s0,0xffff9
	...
    80001660:	6d49                	lui	s10,0x12
    80001662:	6c70                	ld	a2,216(s0)
    80001664:	6d65                	lui	s10,0x19
    80001666:	6e65                	lui	t3,0x19
    80001668:	2074                	fld	fa3,192(s0)
    8000166a:	616d                	addi	sp,sp,240
    8000166c:	6e69                	lui	t3,0x1a
    8000166e:	2928                	fld	fa0,80(a0)
    80001670:	202c                	fld	fa1,64(s0)
    80001672:	6f66                	ld	t5,88(sp)
    80001674:	000a216f          	jal	sp,800a3674 <__global_pointer$+0xa1658>
    80001678:	6e28                	ld	a0,88(a2)
    8000167a:	6c75                	lui	s8,0x1d
    8000167c:	296c                	fld	fa1,208(a0)
    8000167e:	0000                	unimp
    80001680:	7254                	ld	a3,160(a2)
    80001682:	7061                	c.lui	zero,0xffff8
    80001684:	4320                	lw	s0,64(a4)
    80001686:	7561                	lui	a0,0xffff8
    80001688:	203a6573          	csrrsi	a0,hideleg,20
    8000168c:	6425                	lui	s0,0x9
    8000168e:	6520                	ld	s0,72(a0)
    80001690:	636e                	ld	t1,216(sp)
    80001692:	746e756f          	jal	a0,800e8dd8 <__global_pointer$+0xe6dbc>
    80001696:	7265                	lui	tp,0xffff9
    80001698:	6465                	lui	s0,0x19
    8000169a:	6f20                	ld	s0,88(a4)
    8000169c:	206e                	fld	ft0,216(sp)
    8000169e:	4350                	lw	a2,4(a4)
    800016a0:	253a                	fld	fa0,392(sp)
    800016a2:	2e78                	fld	fa4,216(a2)
    800016a4:	200a                	fld	ft0,128(sp)
    800016a6:	7845                	lui	a6,0xffff1
    800016a8:	7469                	lui	s0,0xffffa
    800016aa:	6e69                	lui	t3,0x1a
    800016ac:	2e2e2067          	0x2e2e2067
    800016b0:	002e                	c.slli	zero,0xb
    800016b2:	0000                	unimp
    800016b4:	0000                	unimp
    800016b6:	0000                	unimp
    800016b8:	7325                	lui	t1,0xfffe9
    800016ba:	3d20                	fld	fs0,120(a0)
    800016bc:	2520                	fld	fs0,72(a0)
    800016be:	0a64                	addi	s1,sp,284
	...

Disassembly of section .rodata:

00000000800016c4 <__global_pointer$-0x958>:
    800016c4:	fcc4                	sd	s1,184(s1)
    800016c6:	ffff                	0xffff
    800016c8:	fe00                	sd	s0,56(a2)
    800016ca:	ffff                	0xffff
    800016cc:	fdfa                	sd	t5,248(sp)
    800016ce:	ffff                	0xffff
    800016d0:	fe00                	sd	s0,56(a2)
    800016d2:	ffff                	0xffff
    800016d4:	fe00                	sd	s0,56(a2)
    800016d6:	ffff                	0xffff
    800016d8:	fe00                	sd	s0,56(a2)
    800016da:	ffff                	0xffff
    800016dc:	fe00                	sd	s0,56(a2)
    800016de:	ffff                	0xffff
    800016e0:	fca0                	sd	s0,120(s1)
    800016e2:	ffff                	0xffff
    800016e4:	fe00                	sd	s0,56(a2)
    800016e6:	ffff                	0xffff
    800016e8:	fe00                	sd	s0,56(a2)
    800016ea:	ffff                	0xffff
    800016ec:	fc6c                	sd	a1,248(s0)
    800016ee:	ffff                	0xffff
    800016f0:	fcb8                	sd	a4,120(s1)
    800016f2:	ffff                	0xffff
    800016f4:	fe00                	sd	s0,56(a2)
    800016f6:	ffff                	0xffff
    800016f8:	fc6c                	sd	a1,248(s0)
    800016fa:	ffff                	0xffff
    800016fc:	fc76                	sd	t4,56(sp)
    800016fe:	ffff                	0xffff
    80001700:	fc76                	sd	t4,56(sp)
    80001702:	ffff                	0xffff
    80001704:	fc76                	sd	t4,56(sp)
    80001706:	ffff                	0xffff
    80001708:	fc76                	sd	t4,56(sp)
    8000170a:	ffff                	0xffff
    8000170c:	fc76                	sd	t4,56(sp)
    8000170e:	ffff                	0xffff
    80001710:	fc76                	sd	t4,56(sp)
    80001712:	ffff                	0xffff
    80001714:	fc76                	sd	t4,56(sp)
    80001716:	ffff                	0xffff
    80001718:	fc76                	sd	t4,56(sp)
    8000171a:	ffff                	0xffff
    8000171c:	fc76                	sd	t4,56(sp)
    8000171e:	ffff                	0xffff
    80001720:	fe00                	sd	s0,56(a2)
    80001722:	ffff                	0xffff
    80001724:	fe00                	sd	s0,56(a2)
    80001726:	ffff                	0xffff
    80001728:	fe00                	sd	s0,56(a2)
    8000172a:	ffff                	0xffff
    8000172c:	fe00                	sd	s0,56(a2)
    8000172e:	ffff                	0xffff
    80001730:	fe00                	sd	s0,56(a2)
    80001732:	ffff                	0xffff
    80001734:	fe00                	sd	s0,56(a2)
    80001736:	ffff                	0xffff
    80001738:	fe00                	sd	s0,56(a2)
    8000173a:	ffff                	0xffff
    8000173c:	fe00                	sd	s0,56(a2)
    8000173e:	ffff                	0xffff
    80001740:	fe00                	sd	s0,56(a2)
    80001742:	ffff                	0xffff
    80001744:	fe00                	sd	s0,56(a2)
    80001746:	ffff                	0xffff
    80001748:	fe00                	sd	s0,56(a2)
    8000174a:	ffff                	0xffff
    8000174c:	fe00                	sd	s0,56(a2)
    8000174e:	ffff                	0xffff
    80001750:	fe00                	sd	s0,56(a2)
    80001752:	ffff                	0xffff
    80001754:	fe00                	sd	s0,56(a2)
    80001756:	ffff                	0xffff
    80001758:	fe00                	sd	s0,56(a2)
    8000175a:	ffff                	0xffff
    8000175c:	fe00                	sd	s0,56(a2)
    8000175e:	ffff                	0xffff
    80001760:	fe00                	sd	s0,56(a2)
    80001762:	ffff                	0xffff
    80001764:	fe00                	sd	s0,56(a2)
    80001766:	ffff                	0xffff
    80001768:	fe00                	sd	s0,56(a2)
    8000176a:	ffff                	0xffff
    8000176c:	fe00                	sd	s0,56(a2)
    8000176e:	ffff                	0xffff
    80001770:	fe00                	sd	s0,56(a2)
    80001772:	ffff                	0xffff
    80001774:	fe00                	sd	s0,56(a2)
    80001776:	ffff                	0xffff
    80001778:	fe00                	sd	s0,56(a2)
    8000177a:	ffff                	0xffff
    8000177c:	fe00                	sd	s0,56(a2)
    8000177e:	ffff                	0xffff
    80001780:	fe00                	sd	s0,56(a2)
    80001782:	ffff                	0xffff
    80001784:	fe00                	sd	s0,56(a2)
    80001786:	ffff                	0xffff
    80001788:	fe00                	sd	s0,56(a2)
    8000178a:	ffff                	0xffff
    8000178c:	fe00                	sd	s0,56(a2)
    8000178e:	ffff                	0xffff
    80001790:	fe00                	sd	s0,56(a2)
    80001792:	ffff                	0xffff
    80001794:	fe00                	sd	s0,56(a2)
    80001796:	ffff                	0xffff
    80001798:	fe00                	sd	s0,56(a2)
    8000179a:	ffff                	0xffff
    8000179c:	fe00                	sd	s0,56(a2)
    8000179e:	ffff                	0xffff
    800017a0:	fe00                	sd	s0,56(a2)
    800017a2:	ffff                	0xffff
    800017a4:	fe00                	sd	s0,56(a2)
    800017a6:	ffff                	0xffff
    800017a8:	fe00                	sd	s0,56(a2)
    800017aa:	ffff                	0xffff
    800017ac:	fe00                	sd	s0,56(a2)
    800017ae:	ffff                	0xffff
    800017b0:	fe00                	sd	s0,56(a2)
    800017b2:	ffff                	0xffff
    800017b4:	fe00                	sd	s0,56(a2)
    800017b6:	ffff                	0xffff
    800017b8:	fe00                	sd	s0,56(a2)
    800017ba:	ffff                	0xffff
    800017bc:	fe00                	sd	s0,56(a2)
    800017be:	ffff                	0xffff
    800017c0:	fe00                	sd	s0,56(a2)
    800017c2:	ffff                	0xffff
    800017c4:	fcd2                	sd	s4,120(sp)
    800017c6:	ffff                	0xffff
    800017c8:	fd50                	sd	a2,184(a0)
    800017ca:	ffff                	0xffff
    800017cc:	fe00                	sd	s0,56(a2)
    800017ce:	ffff                	0xffff
    800017d0:	fe00                	sd	s0,56(a2)
    800017d2:	ffff                	0xffff
    800017d4:	fe00                	sd	s0,56(a2)
    800017d6:	ffff                	0xffff
    800017d8:	fe00                	sd	s0,56(a2)
    800017da:	ffff                	0xffff
    800017dc:	fe00                	sd	s0,56(a2)
    800017de:	ffff                	0xffff
    800017e0:	fe00                	sd	s0,56(a2)
    800017e2:	ffff                	0xffff
    800017e4:	fe00                	sd	s0,56(a2)
    800017e6:	ffff                	0xffff
    800017e8:	fccc                	sd	a1,184(s1)
    800017ea:	ffff                	0xffff
    800017ec:	fe00                	sd	s0,56(a2)
    800017ee:	ffff                	0xffff
    800017f0:	fe00                	sd	s0,56(a2)
    800017f2:	ffff                	0xffff
    800017f4:	fd6e                	sd	s11,184(sp)
    800017f6:	ffff                	0xffff
    800017f8:	fda2                	sd	s0,248(sp)
    800017fa:	ffff                	0xffff
    800017fc:	fe00                	sd	s0,56(a2)
    800017fe:	ffff                	0xffff
    80001800:	fe00                	sd	s0,56(a2)
    80001802:	ffff                	0xffff
    80001804:	fce2                	sd	s8,120(sp)
    80001806:	ffff                	0xffff
    80001808:	fe00                	sd	s0,56(a2)
    8000180a:	ffff                	0xffff
    8000180c:	fdb8                	sd	a4,120(a1)
    8000180e:	ffff                	0xffff
    80001810:	fe00                	sd	s0,56(a2)
    80001812:	ffff                	0xffff
    80001814:	fe00                	sd	s0,56(a2)
    80001816:	ffff                	0xffff
    80001818:	fc72                	sd	t3,56(sp)
    8000181a:	ffff                	0xffff

Disassembly of section .bss:

0000000080001820 <counters>:
	...

0000000080001830 <counter_names>:
	...

Disassembly of section .debug_info:

0000000000000000 <.debug_info>:
       0:	0961                	addi	s2,s2,24
       2:	0000                	unimp
       4:	0004                	0x4
       6:	0000                	unimp
       8:	0000                	unimp
       a:	0108                	addi	a0,sp,128
       c:	00ea                	slli	ra,ra,0x1a
       e:	0000                	unimp
      10:	5a0c                	lw	a1,48(a2)
      12:	0004                	0x4
      14:	9c00                	0x9c00
      16:	0000                	unimp
      18:	4800                	lw	s0,16(s0)
      1a:	0010                	0x10
      1c:	0080                	addi	s0,sp,64
      1e:	0000                	unimp
      20:	1800                	addi	s0,sp,48
	...
      2a:	0000                	unimp
      2c:	0200                	addi	s0,sp,256
      2e:	0601                	addi	a2,a2,0
      30:	032a                	slli	t1,t1,0xa
      32:	0000                	unimp
      34:	0102                	c.slli64	sp
      36:	2808                	fld	fa0,16(s0)
      38:	02000003          	lb	zero,32(zero) # 20 <_tbss_end+0x20>
      3c:	0502                	c.slli64	a0
      3e:	0344                	addi	s1,sp,388
      40:	0000                	unimp
      42:	0202                	c.slli64	tp
      44:	00027007          	0x27007
      48:	0300                	addi	s0,sp,384
      4a:	0504                	addi	s1,sp,640
      4c:	6e69                	lui	t3,0x1a
      4e:	0074                	addi	a3,sp,12
      50:	0402                	c.slli64	s0
      52:	00005507          	0x5507
      56:	0200                	addi	s0,sp,256
      58:	0508                	addi	a0,sp,640
      5a:	00e1                	addi	ra,ra,24
      5c:	0000                	unimp
      5e:	0802                	c.slli64	a6
      60:	00005007          	0x5007
      64:	0400                	addi	s0,sp,512
      66:	000002b3          	add	t0,zero,zero
      6a:	5e02                	lw	t3,32(sp)
      6c:	1701                	addi	a4,a4,-32
      6e:	0050                	addi	a2,sp,4
      70:	0000                	unimp
      72:	0505                	addi	a0,a0,1
      74:	03000003          	lb	zero,48(zero) # 30 <_tbss_end+0x30>
      78:	0e2e                	slli	t3,t3,0xb
      7a:	00000057          	0x57
      7e:	0802                	c.slli64	a6
      80:	dc05                	beqz	s0,ffffffffffffffb8 <__global_pointer$+0xffffffff7fffdf9c>
      82:	0000                	unimp
      84:	0500                	addi	s0,sp,640
      86:	0400                	addi	s0,sp,512
      88:	0000                	unimp
      8a:	570e7403          	0x570e7403
      8e:	0000                	unimp
      90:	0500                	addi	s0,sp,640
      92:	0486                	slli	s1,s1,0x1
      94:	0000                	unimp
      96:	57179303          	lh	t1,1393(a5)
      9a:	0000                	unimp
      9c:	0600                	addi	s0,sp,768
      9e:	0304                	addi	s1,sp,384
      a0:	03a5                	addi	t2,t2,9
      a2:	000000bf 0002ad07 	0x2ad07000000bf
      aa:	0300                	addi	s0,sp,384
      ac:	00650ca7          	0x650ca7
      b0:	0000                	unimp
      b2:	00024c07          	flq	fs8,0(tp) # ffffffffffff9000 <__global_pointer$+0xffffffff7fff6fe4>
      b6:	0300                	addi	s0,sp,384
      b8:	13a8                	addi	a0,sp,488
      ba:	000000bf 00340800 	0x340800000000bf
      c2:	0000                	unimp
      c4:	000000cf          	fnmadd.s	ft1,ft0,ft0,ft0,rne
      c8:	5e09                	li	t3,-30
      ca:	0000                	unimp
      cc:	0300                	addi	s0,sp,384
      ce:	0a00                	addi	s0,sp,272
      d0:	0308                	addi	a0,sp,384
      d2:	09a2                	slli	s3,s3,0x8
      d4:	000000f3          	0xf3
      d8:	0003ea0b          	0x3ea0b
      dc:	0300                	addi	s0,sp,384
      de:	07a4                	addi	s1,sp,968
      e0:	0049                	c.nop	18
      e2:	0000                	unimp
      e4:	0b00                	addi	s0,sp,400
      e6:	03f2                	slli	t2,t2,0x1c
      e8:	0000                	unimp
      ea:	9d05a903          	lw	s2,-1584(a1)
      ee:	0000                	unimp
      f0:	0400                	addi	s0,sp,512
      f2:	0500                	addi	s0,sp,640
      f4:	036c                	addi	a1,sp,396
      f6:	0000                	unimp
      f8:	cf03aa03          	lw	s4,-784(t2)
      fc:	0000                	unimp
      fe:	0c00                	addi	s0,sp,528
     100:	0508                	addi	a0,sp,640
     102:	0432                	slli	s0,s0,0xc
     104:	0000                	unimp
     106:	1904                	addi	s1,sp,176
     108:	5019                	c.li	zero,-26
     10a:	0000                	unimp
     10c:	0500                	addi	s0,sp,640
     10e:	0316                	slli	t1,t1,0x5
     110:	0000                	unimp
     112:	0c05                	addi	s8,s8,1
     114:	490d                	li	s2,3
     116:	0000                	unimp
     118:	0500                	addi	s0,sp,640
     11a:	0000020f          	0x20f
     11e:	2304                	fld	fs1,0(a4)
     120:	00010d1b          	sext.w	s10,sp
     124:	0d00                	addi	s0,sp,656
     126:	0220                	addi	s0,sp,264
     128:	0000                	unimp
     12a:	0420                	addi	s0,sp,520
     12c:	0834                	addi	a3,sp,24
     12e:	017f                	0x17f
     130:	0000                	unimp
     132:	00038d0b          	0x38d0b
     136:	0400                	addi	s0,sp,512
     138:	1336                	slli	t1,t1,0x2d
     13a:	017f                	0x17f
     13c:	0000                	unimp
     13e:	0e00                	addi	s0,sp,784
     140:	6b5f 0400 0737      	0x73704006b5f
     146:	0049                	c.nop	18
     148:	0000                	unimp
     14a:	0b08                	addi	a0,sp,400
     14c:	03d5                	addi	t2,t2,21
     14e:	0000                	unimp
     150:	3704                	fld	fs1,40(a4)
     152:	0000490b          	0x490b
     156:	0c00                	addi	s0,sp,528
     158:	0002090b          	0x2090b
     15c:	0400                	addi	s0,sp,512
     15e:	00491437          	lui	s0,0x491
     162:	0000                	unimp
     164:	0b10                	addi	a2,sp,400
     166:	0471                	addi	s0,s0,28
     168:	0000                	unimp
     16a:	3704                	fld	fs1,40(a4)
     16c:	0000491b          	0x491b
     170:	1400                	addi	s0,sp,544
     172:	5f0e                	lw	t5,224(sp)
     174:	0078                	addi	a4,sp,12
     176:	3804                	fld	fs1,48(s0)
     178:	0001850b          	0x1850b
     17c:	1800                	addi	s0,sp,48
     17e:	0f00                	addi	s0,sp,912
     180:	2508                	fld	fa0,8(a0)
     182:	0001                	nop
     184:	0800                	addi	s0,sp,16
     186:	0101                	addi	sp,sp,0
     188:	0000                	unimp
     18a:	0195                	addi	gp,gp,5
     18c:	0000                	unimp
     18e:	5e09                	li	t3,-30
     190:	0000                	unimp
     192:	0000                	unimp
     194:	0d00                	addi	s0,sp,656
     196:	00000247          	fmsub.s	ft4,ft0,ft0,ft0,rne
     19a:	0424                	addi	s1,sp,520
     19c:	083c                	addi	a5,sp,24
     19e:	0218                	addi	a4,sp,256
     1a0:	0000                	unimp
     1a2:	0000930b          	0x930b
     1a6:	0400                	addi	s0,sp,512
     1a8:	093e                	slli	s2,s2,0xf
     1aa:	0049                	c.nop	18
     1ac:	0000                	unimp
     1ae:	0b00                	addi	s0,sp,400
     1b0:	0408                	addi	a0,sp,512
     1b2:	0000                	unimp
     1b4:	3f04                	fld	fs1,56(a4)
     1b6:	4909                	li	s2,2
     1b8:	0000                	unimp
     1ba:	0400                	addi	s0,sp,512
     1bc:	0001810b          	0x1810b
     1c0:	0400                	addi	s0,sp,512
     1c2:	0940                	addi	s0,sp,148
     1c4:	0049                	c.nop	18
     1c6:	0000                	unimp
     1c8:	0b08                	addi	a0,sp,400
     1ca:	000004ef          	jal	s1,1ca <_tbss_end+0x1ca>
     1ce:	4104                	lw	s1,0(a0)
     1d0:	4909                	li	s2,2
     1d2:	0000                	unimp
     1d4:	0c00                	addi	s0,sp,528
     1d6:	0002e90b          	0x2e90b
     1da:	0400                	addi	s0,sp,512
     1dc:	0942                	slli	s2,s2,0x10
     1de:	0049                	c.nop	18
     1e0:	0000                	unimp
     1e2:	0b10                	addi	a2,sp,400
     1e4:	000002cf          	fnmadd.s	ft5,ft0,ft0,ft0,rne
     1e8:	4304                	lw	s1,0(a4)
     1ea:	4909                	li	s2,2
     1ec:	0000                	unimp
     1ee:	1400                	addi	s0,sp,544
     1f0:	0004760b          	0x4760b
     1f4:	0400                	addi	s0,sp,512
     1f6:	0944                	addi	s1,sp,148
     1f8:	0049                	c.nop	18
     1fa:	0000                	unimp
     1fc:	0b18                	addi	a4,sp,400
     1fe:	034e                	slli	t1,t1,0x13
     200:	0000                	unimp
     202:	4504                	lw	s1,8(a0)
     204:	4909                	li	s2,2
     206:	0000                	unimp
     208:	1c00                	addi	s0,sp,560
     20a:	0004b10b          	0x4b10b
     20e:	0400                	addi	s0,sp,512
     210:	0946                	slli	s2,s2,0x11
     212:	0049                	c.nop	18
     214:	0000                	unimp
     216:	0020                	addi	s0,sp,8
     218:	9010                	0x9010
     21a:	0001                	nop
     21c:	0800                	addi	s0,sp,16
     21e:	0402                	c.slli64	s0
     220:	025e084f          	fnmadd.d	fa6,ft8,ft5,ft0,rne
     224:	0000                	unimp
     226:	0001fc0b          	0x1fc0b
     22a:	0400                	addi	s0,sp,512
     22c:	0a50                	addi	a2,sp,276
     22e:	025e                	slli	tp,tp,0x17
     230:	0000                	unimp
     232:	1100                	addi	s0,sp,160
     234:	0000                	unimp
     236:	0000                	unimp
     238:	5104                	lw	s1,32(a0)
     23a:	5e09                	li	t3,-30
     23c:	0002                	c.slli64	zero
     23e:	0000                	unimp
     240:	1101                	addi	sp,sp,-32
     242:	0424                	addi	s1,sp,520
     244:	0000                	unimp
     246:	5304                	lw	s1,32(a4)
     248:	010a                	slli	sp,sp,0x2
     24a:	0001                	nop
     24c:	0000                	unimp
     24e:	1102                	slli	sp,sp,0x20
     250:	01b5                	addi	gp,gp,13
     252:	0000                	unimp
     254:	5604                	lw	s1,40(a2)
     256:	010a                	slli	sp,sp,0x2
     258:	0001                	nop
     25a:	0400                	addi	s0,sp,512
     25c:	0002                	c.slli64	zero
     25e:	ff08                	sd	a0,56(a4)
     260:	0000                	unimp
     262:	6e00                	ld	s0,24(a2)
     264:	0002                	c.slli64	zero
     266:	0900                	addi	s0,sp,144
     268:	005e                	c.slli	zero,0x17
     26a:	0000                	unimp
     26c:	001f f210 0002      	0x2f210001f
     272:	1800                	addi	s0,sp,48
     274:	08620403          	lb	s0,134(tp) # 86 <_tbss_end+0x86>
     278:	02b2                	slli	t0,t0,0xc
     27a:	0000                	unimp
     27c:	00038d0b          	0x38d0b
     280:	0400                	addi	s0,sp,512
     282:	02b21263          	bne	tp,a1,2a6 <_tbss_end+0x2a6>
     286:	0000                	unimp
     288:	0b00                	addi	s0,sp,400
     28a:	03a5                	addi	t2,t2,9
     28c:	0000                	unimp
     28e:	6404                	ld	s1,8(s0)
     290:	4906                	lw	s2,64(sp)
     292:	0000                	unimp
     294:	0800                	addi	s0,sp,16
     296:	0002040b          	0x2040b
     29a:	0400                	addi	s0,sp,512
     29c:	0966                	slli	s2,s2,0x19
     29e:	02b8                	addi	a4,sp,328
     2a0:	0000                	unimp
     2a2:	1110                	addi	a2,sp,160
     2a4:	0190                	addi	a2,sp,192
     2a6:	0000                	unimp
     2a8:	6704                	ld	s1,8(a4)
     2aa:	181e                	slli	a6,a6,0x27
     2ac:	0002                	c.slli64	zero
     2ae:	1000                	addi	s0,sp,32
     2b0:	0001                	nop
     2b2:	026e080f          	0x26e080f
     2b6:	0000                	unimp
     2b8:	c808                	sw	a0,16(s0)
     2ba:	0002                	c.slli64	zero
     2bc:	c800                	sw	s0,16(s0)
     2be:	0002                	c.slli64	zero
     2c0:	0900                	addi	s0,sp,144
     2c2:	005e                	c.slli	zero,0x17
     2c4:	0000                	unimp
     2c6:	001f 080f 02ce      	0x2ce080f001f
     2cc:	0000                	unimp
     2ce:	0d12                	slli	s10,s10,0x4
     2d0:	0358                	addi	a4,sp,388
     2d2:	0000                	unimp
     2d4:	0410                	addi	a2,sp,512
     2d6:	087a                	slli	a6,a6,0x1e
     2d8:	000002f7          	0x2f7
     2dc:	00017b0b          	0x17b0b
     2e0:	0400                	addi	s0,sp,512
     2e2:	02f7117b          	0x2f7117b
     2e6:	0000                	unimp
     2e8:	0b00                	addi	s0,sp,400
     2ea:	000c                	0xc
     2ec:	0000                	unimp
     2ee:	7c04                	ld	s1,56(s0)
     2f0:	4906                	lw	s2,64(sp)
     2f2:	0000                	unimp
     2f4:	0800                	addi	s0,sp,16
     2f6:	0f00                	addi	s0,sp,912
     2f8:	3408                	fld	fa0,40(s0)
     2fa:	0000                	unimp
     2fc:	0d00                	addi	s0,sp,656
     2fe:	00000377          	0x377
     302:	04b0                	addi	a2,sp,584
     304:	08ba                	slli	a7,a7,0xe
     306:	0440                	addi	s0,sp,516
     308:	0000                	unimp
     30a:	5f0e                	lw	t5,224(sp)
     30c:	0070                	addi	a2,sp,12
     30e:	bb04                	fsd	fs1,48(a4)
     310:	f712                	sd	tp,424(sp)
     312:	0002                	c.slli64	zero
     314:	0000                	unimp
     316:	5f0e                	lw	t5,224(sp)
     318:	0072                	c.slli	zero,0x1c
     31a:	bc04                	fsd	fs1,56(s0)
     31c:	00004907          	flq	fs2,0(zero) # 0 <_tbss_end>
     320:	0800                	addi	s0,sp,16
     322:	5f0e                	lw	t5,224(sp)
     324:	bd040077          	0xbd040077
     328:	00004907          	flq	fs2,0(zero) # 0 <_tbss_end>
     32c:	0c00                	addi	s0,sp,528
     32e:	0001ae0b          	0x1ae0b
     332:	0400                	addi	s0,sp,512
     334:	09be                	slli	s3,s3,0xf
     336:	0000003b          	addw	zero,zero,zero
     33a:	0b10                	addi	a2,sp,400
     33c:	00000263          	beqz	zero,340 <_tbss_end+0x340>
     340:	bf04                	fsd	fs1,56(a4)
     342:	3b09                	addiw	s6,s6,-30
     344:	0000                	unimp
     346:	1200                	addi	s0,sp,288
     348:	5f0e                	lw	t5,224(sp)
     34a:	6662                	ld	a2,24(sp)
     34c:	0400                	addi	s0,sp,512
     34e:	11c0                	addi	s0,sp,228
     350:	000002cf          	fnmadd.s	ft5,ft0,ft0,ft0,rne
     354:	0b18                	addi	a4,sp,400
     356:	0062                	c.slli	zero,0x18
     358:	0000                	unimp
     35a:	c104                	sw	s1,0(a0)
     35c:	00004907          	flq	fs2,0(zero) # 0 <_tbss_end>
     360:	2800                	fld	fs0,16(s0)
     362:	00019e0b          	0x19e0b
     366:	0400                	addi	s0,sp,512
     368:	0ac8                	addi	a0,sp,340
     36a:	00ff                	0xff
     36c:	0000                	unimp
     36e:	0b30                	addi	a2,sp,408
     370:	00000237          	lui	tp,0x0
     374:	ca04                	sw	s1,16(a2)
     376:	c41d                	beqz	s0,3a4 <_tbss_end+0x3a4>
     378:	0005                	c.nop	1
     37a:	3800                	fld	fs0,48(s0)
     37c:	0002c80b          	0x2c80b
     380:	0400                	addi	s0,sp,512
     382:	1dcc                	addi	a1,sp,756
     384:	05ee                	slli	a1,a1,0x1b
     386:	0000                	unimp
     388:	0b40                	addi	s0,sp,404
     38a:	03fa                	slli	t2,t2,0x1e
     38c:	0000                	unimp
     38e:	cf04                	sw	s1,24(a4)
     390:	120d                	addi	tp,tp,-29
     392:	0006                	c.slli	zero,0x1
     394:	4800                	lw	s0,16(s0)
     396:	0004cb0b          	0x4cb0b
     39a:	0400                	addi	s0,sp,512
     39c:	09d0                	addi	a2,sp,212
     39e:	062c                	addi	a1,sp,776
     3a0:	0000                	unimp
     3a2:	0e50                	addi	a2,sp,788
     3a4:	755f 0062 d304      	0xd3040062755f
     3aa:	cf11                	beqz	a4,3c6 <_tbss_end+0x3c6>
     3ac:	0002                	c.slli64	zero
     3ae:	5800                	lw	s0,48(s0)
     3b0:	5f0e                	lw	t5,224(sp)
     3b2:	7075                	c.lui	zero,0xffffd
     3b4:	0400                	addi	s0,sp,512
     3b6:	12d4                	addi	a3,sp,356
     3b8:	000002f7          	0x2f7
     3bc:	0e68                	addi	a0,sp,796
     3be:	755f 0072 d504      	0xd5040072755f
     3c4:	00004907          	flq	fs2,0(zero) # 0 <_tbss_end>
     3c8:	7000                	ld	s0,32(s0)
     3ca:	0001750b          	0x1750b
     3ce:	0400                	addi	s0,sp,512
     3d0:	11d8                	addi	a4,sp,228
     3d2:	0632                	slli	a2,a2,0xc
     3d4:	0000                	unimp
     3d6:	0b74                	addi	a3,sp,412
     3d8:	000004a3          	sb	zero,9(zero) # 9 <_tbss_end+0x9>
     3dc:	d904                	sw	s1,48(a0)
     3de:	4211                	li	tp,4
     3e0:	0006                	c.slli	zero,0x1
     3e2:	7700                	ld	s0,40(a4)
     3e4:	5f0e                	lw	t5,224(sp)
     3e6:	626c                	ld	a1,192(a2)
     3e8:	0400                	addi	s0,sp,512
     3ea:	11dc                	addi	a5,sp,228
     3ec:	000002cf          	fnmadd.s	ft5,ft0,ft0,ft0,rne
     3f0:	0b78                	addi	a4,sp,412
     3f2:	01c4                	addi	s1,sp,196
     3f4:	0000                	unimp
     3f6:	df04                	sw	s1,56(a4)
     3f8:	00004907          	flq	fs2,0(zero) # 0 <_tbss_end>
     3fc:	8800                	0x8800
     3fe:	0001d50b          	0x1d50b
     402:	0400                	addi	s0,sp,512
     404:	0ae0                	addi	s0,sp,348
     406:	0072                	c.slli	zero,0x1c
     408:	0000                	unimp
     40a:	0b90                	addi	a2,sp,464
     40c:	0025                	c.nop	9
     40e:	0000                	unimp
     410:	e304                	sd	s1,0(a4)
     412:	5e12                	lw	t3,36(sp)
     414:	0004                	0x4
     416:	9800                	0x9800
     418:	0002ba0b          	0x2ba0b
     41c:	0400                	addi	s0,sp,512
     41e:	01190ce7          	jalr	s9,17(s2) # 1b011 <_tbss_end+0x1b011>
     422:	0000                	unimp
     424:	0ba0                	addi	s0,sp,472
     426:	037f                	0x37f
     428:	0000                	unimp
     42a:	e904                	sd	s1,16(a0)
     42c:	f30e                	sd	gp,416(sp)
     42e:	0000                	unimp
     430:	a400                	fsd	fs0,8(s0)
     432:	0002c00b          	0x2c00b
     436:	0400                	addi	s0,sp,512
     438:	09ea                	slli	s3,s3,0x1a
     43a:	0049                	c.nop	18
     43c:	0000                	unimp
     43e:	00ac                	addi	a1,sp,72
     440:	00009113          	slli	sp,ra,0x0
     444:	5e00                	lw	s0,56(a2)
     446:	0004                	0x4
     448:	1400                	addi	s0,sp,544
     44a:	045e                	slli	s0,s0,0x17
     44c:	0000                	unimp
     44e:	ff14                	sd	a3,56(a4)
     450:	0000                	unimp
     452:	1400                	addi	s0,sp,544
     454:	05b2                	slli	a1,a1,0xc
     456:	0000                	unimp
     458:	4914                	lw	a3,16(a0)
     45a:	0000                	unimp
     45c:	0000                	unimp
     45e:	0469080f          	0x469080f
     462:	0000                	unimp
     464:	5e15                	li	t3,-27
     466:	0004                	0x4
     468:	1600                	addi	s0,sp,800
     46a:	03dd                	addi	t2,t2,23
     46c:	0000                	unimp
     46e:	0748                	addi	a0,sp,900
     470:	6504                	ld	s1,8(a0)
     472:	0802                	c.slli64	a6
     474:	05b2                	slli	a1,a1,0xc
     476:	0000                	unimp
     478:	00033d17          	auipc	s10,0x33
     47c:	0400                	addi	s0,sp,512
     47e:	49070267          	jalr	tp,1168(a4)
     482:	0000                	unimp
     484:	0000                	unimp
     486:	0001bd17          	auipc	s10,0x1b
     48a:	0400                	addi	s0,sp,512
     48c:	026c                	addi	a1,sp,268
     48e:	00069e0b          	0x69e0b
     492:	0800                	addi	s0,sp,16
     494:	00025317          	auipc	t1,0x25
     498:	0400                	addi	s0,sp,512
     49a:	026c                	addi	a1,sp,268
     49c:	9e14                	0x9e14
     49e:	0006                	c.slli	zero,0x1
     4a0:	1000                	addi	s0,sp,32
     4a2:	00021817          	auipc	a6,0x21
     4a6:	0400                	addi	s0,sp,512
     4a8:	026c                	addi	a1,sp,268
     4aa:	9e1e                	add	t3,t3,t2
     4ac:	0006                	c.slli	zero,0x1
     4ae:	1800                	addi	s0,sp,48
     4b0:	0003a017          	auipc	zero,0x3a
     4b4:	0400                	addi	s0,sp,512
     4b6:	026e                	slli	tp,tp,0x1b
     4b8:	4908                	lw	a0,16(a0)
     4ba:	0000                	unimp
     4bc:	2000                	fld	fs0,0(s0)
     4be:	00001a17          	auipc	s4,0x1
     4c2:	0400                	addi	s0,sp,512
     4c4:	a708026f          	jal	tp,fffffffffff80734 <__global_pointer$+0xffffffff7ff7e718>
     4c8:	0008                	0x8
     4ca:	2400                	fld	fs0,8(s0)
     4cc:	0003bc17          	auipc	s8,0x3b
     4d0:	0400                	addi	s0,sp,512
     4d2:	0272                	slli	tp,tp,0x1c
     4d4:	00004907          	flq	fs2,0(zero) # 0 <_tbss_end>
     4d8:	4000                	lw	s0,0(s0)
     4da:	0003aa17          	auipc	s4,0x3a
     4de:	0400                	addi	s0,sp,512
     4e0:	bc160273          	0xbc160273
     4e4:	0008                	0x8
     4e6:	4800                	lw	s0,16(s0)
     4e8:	0002fa17          	auipc	s4,0x2f
     4ec:	0400                	addi	s0,sp,512
     4ee:	0275                	addi	tp,tp,29
     4f0:	00004907          	flq	fs2,0(zero) # 0 <_tbss_end>
     4f4:	5000                	lw	s0,32(s0)
     4f6:	0003b217          	auipc	tp,0x3b
     4fa:	0400                	addi	s0,sp,512
     4fc:	cd0a0277          	0xcd0a0277
     500:	0008                	0x8
     502:	5800                	lw	s0,48(s0)
     504:	0002a517          	auipc	a0,0x2a
     508:	0400                	addi	s0,sp,512
     50a:	027a                	slli	tp,tp,0x1e
     50c:	00017f13          	andi	t5,sp,0
     510:	6000                	ld	s0,0(s0)
     512:	00023d17          	auipc	s10,0x23
     516:	0400                	addi	s0,sp,512
     518:	4907027b          	0x4907027b
     51c:	0000                	unimp
     51e:	6800                	ld	s0,16(s0)
     520:	0004e517          	auipc	a0,0x4e
     524:	0400                	addi	s0,sp,512
     526:	027c                	addi	a5,sp,268
     528:	00017f13          	andi	t5,sp,0
     52c:	7000                	ld	s0,32(s0)
     52e:	00030c17          	auipc	s8,0x30
     532:	0400                	addi	s0,sp,512
     534:	027d                	addi	tp,tp,31
     536:	d314                	sw	a3,32(a4)
     538:	0008                	0x8
     53a:	7800                	ld	s0,48(s0)
     53c:	00025b17          	auipc	s6,0x25
     540:	0400                	addi	s0,sp,512
     542:	0280                	addi	s0,sp,320
     544:	00004907          	flq	fs2,0(zero) # 0 <_tbss_end>
     548:	8000                	0x8000
     54a:	0001cd17          	auipc	s10,0x1c
     54e:	0400                	addi	s0,sp,512
     550:	0281                	addi	t0,t0,0
     552:	b209                	j	fffffffffffffe54 <__global_pointer$+0xffffffff7fffde38>
     554:	0005                	c.nop	1
     556:	8800                	0x8800
     558:	00033617          	auipc	a2,0x33
     55c:	0400                	addi	s0,sp,512
     55e:	02a4                	addi	s1,sp,328
     560:	00088107          	0x88107
     564:	9000                	0x9000
     566:	f218                	sd	a4,32(a2)
     568:	0002                	c.slli64	zero
     56a:	0400                	addi	s0,sp,512
     56c:	02a8                	addi	a0,sp,328
     56e:	0002b213          	sltiu	tp,t0,0
     572:	f800                	sd	s0,48(s0)
     574:	1801                	addi	a6,a6,-32
     576:	00000283          	lb	t0,0(zero) # 0 <_tbss_end>
     57a:	a904                	fsd	fs1,16(a0)
     57c:	1202                	slli	tp,tp,0x20
     57e:	026e                	slli	tp,tp,0x1b
     580:	0000                	unimp
     582:	0200                	addi	s0,sp,256
     584:	9918                	0x9918
     586:	0004                	0x4
     588:	0400                	addi	s0,sp,512
     58a:	02ad                	addi	t0,t0,11
     58c:	e40c                	sd	a1,8(s0)
     58e:	0008                	0x8
     590:	1800                	addi	s0,sp,48
     592:	1805                	addi	a6,a6,-31
     594:	01a6                	slli	gp,gp,0x9
     596:	0000                	unimp
     598:	b204                	fsd	fs1,32(a2)
     59a:	1002                	c.slli	zero,0x20
     59c:	065f 0000 0520      	0x5200000065f
     5a2:	8b18                	0x8b18
     5a4:	0001                	nop
     5a6:	0400                	addi	s0,sp,512
     5a8:	02b4                	addi	a3,sp,328
     5aa:	f00a                	sd	sp,32(sp)
     5ac:	0008                	0x8
     5ae:	3800                	fld	fs0,48(s0)
     5b0:	0005                	c.nop	1
     5b2:	05b8080f          	0x5b8080f
     5b6:	0000                	unimp
     5b8:	0102                	c.slli64	sp
     5ba:	3108                	fld	fa0,32(a0)
     5bc:	15000003          	lb	zero,336(zero) # 150 <_tbss_end+0x150>
     5c0:	05b8                	addi	a4,sp,712
     5c2:	0000                	unimp
     5c4:	0440080f          	0x440080f
     5c8:	0000                	unimp
     5ca:	00009113          	slli	sp,ra,0x0
     5ce:	e800                	sd	s0,16(s0)
     5d0:	0005                	c.nop	1
     5d2:	1400                	addi	s0,sp,544
     5d4:	045e                	slli	s0,s0,0x17
     5d6:	0000                	unimp
     5d8:	ff14                	sd	a3,56(a4)
     5da:	0000                	unimp
     5dc:	1400                	addi	s0,sp,544
     5de:	05e8                	addi	a0,sp,716
     5e0:	0000                	unimp
     5e2:	4914                	lw	a3,16(a0)
     5e4:	0000                	unimp
     5e6:	0000                	unimp
     5e8:	05bf080f          	0x5bf080f
     5ec:	0000                	unimp
     5ee:	05ca080f          	0x5ca080f
     5f2:	0000                	unimp
     5f4:	00008513          	mv	a0,ra
     5f8:	1200                	addi	s0,sp,288
     5fa:	0006                	c.slli	zero,0x1
     5fc:	1400                	addi	s0,sp,544
     5fe:	045e                	slli	s0,s0,0x17
     600:	0000                	unimp
     602:	ff14                	sd	a3,56(a4)
     604:	0000                	unimp
     606:	1400                	addi	s0,sp,544
     608:	0085                	addi	ra,ra,1
     60a:	0000                	unimp
     60c:	4914                	lw	a3,16(a0)
     60e:	0000                	unimp
     610:	0000                	unimp
     612:	05f4080f          	0x5f4080f
     616:	0000                	unimp
     618:	00004913          	xori	s2,zero,0
     61c:	2c00                	fld	fs0,24(s0)
     61e:	0006                	c.slli	zero,0x1
     620:	1400                	addi	s0,sp,544
     622:	045e                	slli	s0,s0,0x17
     624:	0000                	unimp
     626:	ff14                	sd	a3,56(a4)
     628:	0000                	unimp
     62a:	0000                	unimp
     62c:	0618080f          	0x618080f
     630:	0000                	unimp
     632:	3408                	fld	fa0,40(s0)
     634:	0000                	unimp
     636:	4200                	lw	s0,0(a2)
     638:	0006                	c.slli	zero,0x1
     63a:	0900                	addi	s0,sp,144
     63c:	005e                	c.slli	zero,0x17
     63e:	0000                	unimp
     640:	0002                	c.slli64	zero
     642:	3408                	fld	fa0,40(s0)
     644:	0000                	unimp
     646:	5200                	lw	s0,32(a2)
     648:	0006                	c.slli	zero,0x1
     64a:	0900                	addi	s0,sp,144
     64c:	005e                	c.slli	zero,0x17
     64e:	0000                	unimp
     650:	0000                	unimp
     652:	6504                	ld	s1,8(a0)
     654:	04000003          	lb	zero,64(zero) # 40 <_tbss_end+0x40>
     658:	0124                	addi	s1,sp,136
     65a:	fd1a                	sd	t1,184(sp)
     65c:	0002                	c.slli64	zero
     65e:	1900                	addi	s0,sp,176
     660:	0480                	addi	s0,sp,576
     662:	0000                	unimp
     664:	0418                	addi	a4,sp,512
     666:	0128                	addi	a0,sp,136
     668:	9808                	0x9808
     66a:	0006                	c.slli	zero,0x1
     66c:	1700                	addi	s0,sp,928
     66e:	038d                	addi	t2,t2,3
     670:	0000                	unimp
     672:	2a04                	fld	fs1,16(a2)
     674:	1101                	addi	sp,sp,-32
     676:	0698                	addi	a4,sp,832
     678:	0000                	unimp
     67a:	1700                	addi	s0,sp,928
     67c:	0269                	addi	tp,tp,26
     67e:	0000                	unimp
     680:	2b04                	fld	fs1,16(a4)
     682:	0701                	addi	a4,a4,0
     684:	0049                	c.nop	18
     686:	0000                	unimp
     688:	1708                	addi	a0,sp,928
     68a:	035f 0000 2c04      	0x2c040000035f
     690:	0b01                	addi	s6,s6,0
     692:	069e                	slli	a3,a3,0x7
     694:	0000                	unimp
     696:	0010                	0x10
     698:	065f080f          	0x65f080f
     69c:	0000                	unimp
     69e:	0652080f          	0x652080f
     6a2:	0000                	unimp
     6a4:	1219                	addi	tp,tp,-26
     6a6:	0000                	unimp
     6a8:	0e00                	addi	s0,sp,784
     6aa:	4404                	lw	s1,8(s0)
     6ac:	0801                	addi	a6,a6,0
     6ae:	06dd                	addi	a3,a3,23
     6b0:	0000                	unimp
     6b2:	0003e417          	auipc	s0,0x3e
     6b6:	0400                	addi	s0,sp,512
     6b8:	0145                	addi	sp,sp,17
     6ba:	dd12                	sw	tp,184(sp)
     6bc:	0006                	c.slli	zero,0x1
     6be:	0000                	unimp
     6c0:	00041117          	auipc	sp,0x41
     6c4:	0400                	addi	s0,sp,512
     6c6:	0146                	slli	sp,sp,0x11
     6c8:	dd12                	sw	tp,184(sp)
     6ca:	0006                	c.slli	zero,0x1
     6cc:	0600                	addi	s0,sp,768
     6ce:	00042d17          	auipc	s10,0x42
     6d2:	0400                	addi	s0,sp,512
     6d4:	42120147          	fmsub.d	ft2,ft4,ft1,fs0,rne
     6d8:	0000                	unimp
     6da:	0c00                	addi	s0,sp,528
     6dc:	0800                	addi	s0,sp,16
     6de:	0042                	c.slli	zero,0x10
     6e0:	0000                	unimp
     6e2:	06ed                	addi	a3,a3,27
     6e4:	0000                	unimp
     6e6:	5e09                	li	t3,-30
     6e8:	0000                	unimp
     6ea:	0200                	addi	s0,sp,256
     6ec:	1a00                	addi	s0,sp,304
     6ee:	04d8                	addi	a4,sp,580
     6f0:	0285                	addi	t0,t0,1
     6f2:	00080207          	0x80207
     6f6:	1700                	addi	s0,sp,928
     6f8:	0464                	addi	s1,sp,524
     6fa:	0000                	unimp
     6fc:	8704                	0x8704
     6fe:	1802                	slli	a6,a6,0x20
     700:	0050                	addi	a2,sp,4
     702:	0000                	unimp
     704:	1700                	addi	s0,sp,928
     706:	00000417          	auipc	s0,0x0
     70a:	8804                	0x8804
     70c:	1202                	slli	tp,tp,0x20
     70e:	05b2                	slli	a1,a1,0xc
     710:	0000                	unimp
     712:	1708                	addi	a0,sp,928
     714:	0298                	addi	a4,sp,320
     716:	0000                	unimp
     718:	8904                	0x8904
     71a:	1002                	c.slli	zero,0x20
     71c:	0802                	c.slli64	a6
     71e:	0000                	unimp
     720:	1710                	addi	a2,sp,928
     722:	04bc                	addi	a5,sp,584
     724:	0000                	unimp
     726:	8a04                	0x8a04
     728:	1702                	slli	a4,a4,0x20
     72a:	0195                	addi	gp,gp,5
     72c:	0000                	unimp
     72e:	172c                	addi	a1,sp,936
     730:	0228                	addi	a0,sp,264
     732:	0000                	unimp
     734:	8b04                	0x8b04
     736:	0f02                	c.slli64	t5
     738:	0049                	c.nop	18
     73a:	0000                	unimp
     73c:	1750                	addi	a2,sp,932
     73e:	0388                	addi	a0,sp,448
     740:	0000                	unimp
     742:	8c04                	0x8c04
     744:	2c02                	fld	fs8,0(sp)
     746:	0812                	slli	a6,a6,0x4
     748:	0000                	unimp
     74a:	1758                	addi	a4,sp,932
     74c:	04d2                	slli	s1,s1,0x14
     74e:	0000                	unimp
     750:	8d04                	0x8d04
     752:	1a02                	slli	s4,s4,0x20
     754:	06a4                	addi	s1,sp,840
     756:	0000                	unimp
     758:	1760                	addi	s0,sp,940
     75a:	00000393          	li	t2,0
     75e:	8e04                	0x8e04
     760:	1602                	slli	a2,a2,0x20
     762:	000000f3          	0xf3
     766:	1770                	addi	a2,sp,940
     768:	000004d7          	0x4d7
     76c:	8f04                	0x8f04
     76e:	1602                	slli	a2,a2,0x20
     770:	000000f3          	0xf3
     774:	1778                	addi	a4,sp,940
     776:	0085                	addi	ra,ra,1
     778:	0000                	unimp
     77a:	9004                	0x9004
     77c:	1602                	slli	a2,a2,0x20
     77e:	000000f3          	0xf3
     782:	1780                	addi	s0,sp,992
     784:	0000048f          	0x48f
     788:	9104                	0x9104
     78a:	1002                	c.slli	zero,0x20
     78c:	0819                	addi	a6,a6,6
     78e:	0000                	unimp
     790:	1788                	addi	a0,sp,992
     792:	028c                	addi	a1,sp,320
     794:	0000                	unimp
     796:	9204                	0x9204
     798:	1002                	c.slli	zero,0x20
     79a:	0829                	addi	a6,a6,10
     79c:	0000                	unimp
     79e:	1790                	addi	a2,sp,992
     7a0:	043a                	slli	s0,s0,0xe
     7a2:	0000                	unimp
     7a4:	9304                	0x9304
     7a6:	0f02                	c.slli64	t5
     7a8:	0049                	c.nop	18
     7aa:	0000                	unimp
     7ac:	17a8                	addi	a0,sp,1000
     7ae:	01ee                	slli	gp,gp,0x1b
     7b0:	0000                	unimp
     7b2:	9404                	0x9404
     7b4:	1602                	slli	a2,a2,0x20
     7b6:	000000f3          	0xf3
     7ba:	17ac                	addi	a1,sp,1000
     7bc:	0076                	c.slli	zero,0x1d
     7be:	0000                	unimp
     7c0:	9504                	0x9504
     7c2:	1602                	slli	a2,a2,0x20
     7c4:	000000f3          	0xf3
     7c8:	17b4                	addi	a3,sp,1000
     7ca:	01dd                	addi	gp,gp,23
     7cc:	0000                	unimp
     7ce:	9604                	0x9604
     7d0:	1602                	slli	a2,a2,0x20
     7d2:	000000f3          	0xf3
     7d6:	17bc                	addi	a5,sp,1000
     7d8:	0000002b          	0x2b
     7dc:	9704                	0x9704
     7de:	1602                	slli	a2,a2,0x20
     7e0:	000000f3          	0xf3
     7e4:	17c4                	addi	s1,sp,996
     7e6:	003a                	c.slli	zero,0xe
     7e8:	0000                	unimp
     7ea:	9804                	0x9804
     7ec:	1602                	slli	a2,a2,0x20
     7ee:	000000f3          	0xf3
     7f2:	17cc                	addi	a1,sp,996
     7f4:	0000033b          	addw	t1,zero,zero
     7f8:	9904                	0x9904
     7fa:	0802                	c.slli64	a6
     7fc:	0049                	c.nop	18
     7fe:	0000                	unimp
     800:	00d4                	addi	a3,sp,68
     802:	b808                	fsd	fa0,48(s0)
     804:	0005                	c.nop	1
     806:	1200                	addi	s0,sp,288
     808:	0008                	0x8
     80a:	0900                	addi	s0,sp,144
     80c:	005e                	c.slli	zero,0x17
     80e:	0000                	unimp
     810:	0019                	c.nop	6
     812:	0802                	c.slli64	a6
     814:	00004b07          	flq	fs6,0(zero) # 0 <_tbss_end>
     818:	0800                	addi	s0,sp,16
     81a:	05b8                	addi	a4,sp,712
     81c:	0000                	unimp
     81e:	0829                	addi	a6,a6,10
     820:	0000                	unimp
     822:	5e09                	li	t3,-30
     824:	0000                	unimp
     826:	0700                	addi	s0,sp,896
     828:	0800                	addi	s0,sp,16
     82a:	05b8                	addi	a4,sp,712
     82c:	0000                	unimp
     82e:	0839                	addi	a6,a6,14
     830:	0000                	unimp
     832:	5e09                	li	t3,-30
     834:	0000                	unimp
     836:	1700                	addi	s0,sp,928
     838:	1b00                	addi	s0,sp,432
     83a:	0168                	addi	a0,sp,140
     83c:	9e04                	0x9e04
     83e:	0702                	c.slli64	a4
     840:	0861                	addi	a6,a6,24
     842:	0000                	unimp
     844:	0002e217          	auipc	tp,0x2e
     848:	0400                	addi	s0,sp,512
     84a:	02a1                	addi	t0,t0,8
     84c:	0008611b          	0x8611b
     850:	0000                	unimp
     852:	0002d917          	auipc	s2,0x2d
     856:	0400                	addi	s0,sp,512
     858:	02a2                	slli	t0,t0,0x8
     85a:	7118                	ld	a4,32(a0)
     85c:	0008                	0x8
     85e:	f000                	sd	s0,32(s0)
     860:	0800                	addi	s0,sp,16
     862:	000002f7          	0x2f7
     866:	0871                	addi	a6,a6,28
     868:	0000                	unimp
     86a:	5e09                	li	t3,-30
     86c:	0000                	unimp
     86e:	1d00                	addi	s0,sp,688
     870:	0800                	addi	s0,sp,16
     872:	0050                	addi	a2,sp,4
     874:	0000                	unimp
     876:	0881                	addi	a7,a7,0
     878:	0000                	unimp
     87a:	5e09                	li	t3,-30
     87c:	0000                	unimp
     87e:	1d00                	addi	s0,sp,688
     880:	1c00                	addi	s0,sp,560
     882:	0168                	addi	a0,sp,140
     884:	8304                	0x8304
     886:	0302                	c.slli64	t1
     888:	000008a7          	0x8a7
     88c:	dd1d                	beqz	a0,7ca <_tbss_end+0x7ca>
     88e:	04000003          	lb	zero,64(zero) # 40 <_tbss_end+0x40>
     892:	029a                	slli	t0,t0,0x6
     894:	0006ed0b          	0x6ed0b
     898:	1d00                	addi	s0,sp,688
     89a:	04a9                	addi	s1,s1,10
     89c:	0000                	unimp
     89e:	a304                	fsd	fs1,0(a4)
     8a0:	0b02                	c.slli64	s6
     8a2:	0839                	addi	a6,a6,14
     8a4:	0000                	unimp
     8a6:	0800                	addi	s0,sp,16
     8a8:	05b8                	addi	a4,sp,712
     8aa:	0000                	unimp
     8ac:	000008b7          	lui	a7,0x0
     8b0:	5e09                	li	t3,-30
     8b2:	0000                	unimp
     8b4:	1800                	addi	s0,sp,48
     8b6:	1e00                	addi	s0,sp,816
     8b8:	0000006b          	0x6b
     8bc:	08b7080f          	0x8b7080f
     8c0:	0000                	unimp
     8c2:	cd1f 0008 1400      	0x14000008cd1f
     8c8:	045e                	slli	s0,s0,0x17
     8ca:	0000                	unimp
     8cc:	0f00                	addi	s0,sp,912
     8ce:	c208                	sw	a0,0(a2)
     8d0:	0008                	0x8
     8d2:	0f00                	addi	s0,sp,912
     8d4:	7f08                	ld	a0,56(a4)
     8d6:	0001                	nop
     8d8:	1f00                	addi	s0,sp,944
     8da:	08e4                	addi	s1,sp,92
     8dc:	0000                	unimp
     8de:	4914                	lw	a3,16(a0)
     8e0:	0000                	unimp
     8e2:	0000                	unimp
     8e4:	08ea080f          	0x8ea080f
     8e8:	0000                	unimp
     8ea:	08d9080f          	0x8d9080f
     8ee:	0000                	unimp
     8f0:	5208                	lw	a0,32(a2)
     8f2:	0006                	c.slli	zero,0x1
     8f4:	0000                	unimp
     8f6:	0009                	c.nop	2
     8f8:	0900                	addi	s0,sp,144
     8fa:	005e                	c.slli	zero,0x17
     8fc:	0000                	unimp
     8fe:	0002                	c.slli64	zero
     900:	4e20                	lw	s0,88(a2)
     902:	0004                	0x4
     904:	0400                	addi	s0,sp,512
     906:	5e170333          	0x5e170333
     90a:	0004                	0x4
     90c:	2000                	fld	fs0,0(s0)
     90e:	00000447          	fmsub.s	fs0,ft0,ft0,ft0,rne
     912:	3404                	fld	fs1,40(s0)
     914:	04641d03          	lh	s10,70(s0) # 74c <_tbss_end+0x74c>
     918:	0000                	unimp
     91a:	ea21                	bnez	a2,96a <_tbss_end+0x96a>
     91c:	0004                	0x4
     91e:	0100                	addi	s0,sp,128
     920:	00490503          	lb	a0,4(s2) # 2d856 <_tbss_end+0x2d856>
     924:	0000                	unimp
     926:	1048                	addi	a0,sp,36
     928:	8000                	0x8000
     92a:	0000                	unimp
     92c:	0000                	unimp
     92e:	0018                	0x18
     930:	0000                	unimp
     932:	0000                	unimp
     934:	0000                	unimp
     936:	9c01                	subw	s0,s0,s0
     938:	0958                	addi	a4,sp,148
     93a:	0000                	unimp
     93c:	5822                	lw	a6,40(sp)
     93e:	0010                	0x10
     940:	0080                	addi	s0,sp,64
     942:	0000                	unimp
     944:	5800                	lw	s0,48(s0)
     946:	0009                	c.nop	2
     948:	2300                	fld	fs0,0(a4)
     94a:	5a01                	li	s4,-32
     94c:	0309                	addi	t1,t1,2
     94e:	1638                	addi	a4,sp,808
     950:	8000                	0x8000
     952:	0000                	unimp
     954:	0000                	unimp
     956:	0000                	unimp
     958:	6e24                	ld	s1,88(a2)
     95a:	0001                	nop
     95c:	6e00                	ld	s0,24(a2)
     95e:	0001                	nop
     960:	0600                	addi	s0,sp,768
     962:	05c8                	addi	a0,sp,708
     964:	5400                	lw	s0,40(s0)
     966:	04000017          	auipc	zero,0x4000
     96a:	f700                	sd	s0,40(a4)
     96c:	0001                	nop
     96e:	0800                	addi	s0,sp,16
     970:	ea01                	bnez	a2,980 <_tbss_end+0x980>
     972:	0000                	unimp
     974:	0c00                	addi	s0,sp,528
     976:	0631                	addi	a2,a2,12
     978:	0000                	unimp
     97a:	009c                	addi	a5,sp,64
     97c:	0000                	unimp
     97e:	0030                	addi	a2,sp,8
	...
     988:	0000                	unimp
     98a:	014d                	addi	sp,sp,19
     98c:	0000                	unimp
     98e:	0102                	c.slli64	sp
     990:	2a06                	fld	fs4,64(sp)
     992:	02000003          	lb	zero,32(zero) # 20 <_tbss_end+0x20>
     996:	0801                	addi	a6,a6,0
     998:	0328                	addi	a0,sp,392
     99a:	0000                	unimp
     99c:	0202                	c.slli64	tp
     99e:	4405                	li	s0,1
     9a0:	02000003          	lb	zero,32(zero) # 20 <_tbss_end+0x20>
     9a4:	0702                	c.slli64	a4
     9a6:	0270                	addi	a2,sp,268
     9a8:	0000                	unimp
     9aa:	69050403          	lb	s0,1680(a0) # 4ebb0 <_tbss_end+0x4ebb0>
     9ae:	746e                	ld	s0,248(sp)
     9b0:	0200                	addi	s0,sp,256
     9b2:	0704                	addi	s1,sp,896
     9b4:	0055                	c.nop	21
     9b6:	0000                	unimp
     9b8:	0802                	c.slli64	a6
     9ba:	e105                	bnez	a0,9da <_tbss_end+0x9da>
     9bc:	0000                	unimp
     9be:	0400                	addi	s0,sp,512
     9c0:	059a                	slli	a1,a1,0x6
     9c2:	0000                	unimp
     9c4:	6902                	ld	s2,0(sp)
     9c6:	6619                	lui	a2,0x6
     9c8:	0000                	unimp
     9ca:	0200                	addi	s0,sp,256
     9cc:	0708                	addi	a0,sp,896
     9ce:	0050                	addi	a2,sp,4
     9d0:	0000                	unimp
     9d2:	4504                	lw	s1,8(a0)
     9d4:	0006                	c.slli	zero,0x1
     9d6:	0200                	addi	s0,sp,256
     9d8:	1ae8                	addi	a0,sp,380
     9da:	0066                	c.slli	zero,0x19
     9dc:	0000                	unimp
     9de:	9c04                	0x9c04
     9e0:	0005                	c.nop	1
     9e2:	0300                	addi	s0,sp,384
     9e4:	143c                	addi	a5,sp,552
     9e6:	005a                	c.slli	zero,0x16
     9e8:	0000                	unimp
     9ea:	7905                	lui	s2,0xfffe1
     9ec:	0000                	unimp
     9ee:	0400                	addi	s0,sp,512
     9f0:	00000647          	fmsub.s	fa2,ft0,ft0,ft0,rne
     9f4:	6d155203          	lhu	tp,1745(a0)
     9f8:	0000                	unimp
     9fa:	0600                	addi	s0,sp,768
     9fc:	008a                	slli	ra,ra,0x2
     9fe:	0000                	unimp
     a00:	8804                	0x8804
     a02:	0004                	0x4
     a04:	0400                	addi	s0,sp,512
     a06:	17d1                	addi	a5,a5,-12
     a08:	0066                	c.slli	zero,0x19
     a0a:	0000                	unimp
     a0c:	0002b307          	fld	ft6,0(t0) # 2000 <_tbss_end+0x2000>
     a10:	0400                	addi	s0,sp,512
     a12:	015e                	slli	sp,sp,0x17
     a14:	00004c17          	auipc	s8,0x4
     a18:	0400                	addi	s0,sp,512
     a1a:	0305                	addi	t1,t1,1
     a1c:	0000                	unimp
     a1e:	2e05                	addiw	t3,t3,1
     a20:	530e                	lw	t1,224(sp)
     a22:	0000                	unimp
     a24:	0200                	addi	s0,sp,256
     a26:	0508                	addi	a0,sp,640
     a28:	00dc                	addi	a5,sp,68
     a2a:	0000                	unimp
     a2c:	0004                	0x4
     a2e:	0004                	0x4
     a30:	0500                	addi	s0,sp,640
     a32:	0e74                	addi	a3,sp,796
     a34:	00000053          	fadd.s	ft0,ft0,ft0,rne
     a38:	8604                	0x8604
     a3a:	0004                	0x4
     a3c:	0500                	addi	s0,sp,640
     a3e:	00531793          	slli	a5,t1,0x5
     a42:	0000                	unimp
     a44:	0408                	addi	a0,sp,512
     a46:	a505                	j	1066 <_tbss_end+0x1066>
     a48:	00010103          	lb	sp,0(sp) # 416c0 <_tbss_end+0x416c0>
     a4c:	0900                	addi	s0,sp,144
     a4e:	02ad                	addi	t0,t0,11
     a50:	0000                	unimp
     a52:	a705                	j	1172 <_tbss_end+0x1172>
     a54:	a70c                	fsd	fa1,8(a4)
     a56:	0000                	unimp
     a58:	0900                	addi	s0,sp,144
     a5a:	024c                	addi	a1,sp,260
     a5c:	0000                	unimp
     a5e:	a805                	j	a8e <_tbss_end+0xa8e>
     a60:	00010113          	mv	sp,sp
     a64:	0000                	unimp
     a66:	300a                	fld	ft0,160(sp)
     a68:	0000                	unimp
     a6a:	1100                	addi	s0,sp,160
     a6c:	0001                	nop
     a6e:	0b00                	addi	s0,sp,400
     a70:	0066                	c.slli	zero,0x19
     a72:	0000                	unimp
     a74:	080c0003          	lb	zero,128(s8) # 4a94 <_tbss_end+0x4a94>
     a78:	a205                	j	b98 <_tbss_end+0xb98>
     a7a:	3509                	addiw	a0,a0,-30
     a7c:	0001                	nop
     a7e:	0d00                	addi	s0,sp,656
     a80:	03ea                	slli	t2,t2,0x1a
     a82:	0000                	unimp
     a84:	a405                	j	ca4 <_tbss_end+0xca4>
     a86:	00004507          	flq	fa0,0(zero) # 0 <_tbss_end>
     a8a:	0000                	unimp
     a8c:	f20d                	bnez	a2,9ae <_tbss_end+0x9ae>
     a8e:	05000003          	lb	zero,80(zero) # 50 <_tbss_end+0x50>
     a92:	05a9                	addi	a1,a1,10
     a94:	00df 0000 0004      	0x4000000df
     a9a:	6c04                	ld	s1,24(s0)
     a9c:	05000003          	lb	zero,80(zero) # 50 <_tbss_end+0x50>
     aa0:	03aa                	slli	t2,t2,0xa
     aa2:	0111                	addi	sp,sp,4
     aa4:	0000                	unimp
     aa6:	080e                	slli	a6,a6,0x3
     aa8:	06be080f          	0x6be080f
     aac:	0000                	unimp
     aae:	3204                	fld	fs1,32(a2)
     ab0:	0004                	0x4
     ab2:	0600                	addi	s0,sp,768
     ab4:	1919                	addi	s2,s2,-26
     ab6:	004c                	addi	a1,sp,4
     ab8:	0000                	unimp
     aba:	1604                	addi	s1,sp,800
     abc:	07000003          	lb	zero,112(zero) # 70 <_tbss_end+0x70>
     ac0:	0d0c                	addi	a1,sp,656
     ac2:	0045                	c.nop	17
     ac4:	0000                	unimp
     ac6:	0f04                	addi	s1,sp,912
     ac8:	0002                	c.slli64	zero
     aca:	0600                	addi	s0,sp,768
     acc:	01551b23          	sh	s5,22(a0)
     ad0:	0000                	unimp
     ad2:	2010                	fld	fa2,0(s0)
     ad4:	0002                	c.slli64	zero
     ad6:	2000                	fld	fs0,0(s0)
     ad8:	3406                	fld	fs0,96(sp)
     ada:	c708                	sw	a0,8(a4)
     adc:	0001                	nop
     ade:	0d00                	addi	s0,sp,656
     ae0:	038d                	addi	t2,t2,3
     ae2:	0000                	unimp
     ae4:	3606                	fld	fa2,96(sp)
     ae6:	0001c713          	xori	a4,gp,0
     aea:	0000                	unimp
     aec:	5f11                	li	t5,-28
     aee:	3706006b          	0x3706006b
     af2:	00004507          	flq	fa0,0(zero) # 0 <_tbss_end>
     af6:	0800                	addi	s0,sp,16
     af8:	d50d                	beqz	a0,a22 <_tbss_end+0xa22>
     afa:	06000003          	lb	zero,96(zero) # 60 <_tbss_end+0x60>
     afe:	00450b37          	lui	s6,0x450
     b02:	0000                	unimp
     b04:	0d0c                	addi	a1,sp,656
     b06:	0209                	addi	tp,tp,2
     b08:	0000                	unimp
     b0a:	3706                	fld	fa4,96(sp)
     b0c:	4514                	lw	a3,8(a0)
     b0e:	0000                	unimp
     b10:	1000                	addi	s0,sp,32
     b12:	710d                	addi	sp,sp,-352
     b14:	0004                	0x4
     b16:	0600                	addi	s0,sp,768
     b18:	00451b37          	lui	s6,0x451
     b1c:	0000                	unimp
     b1e:	1114                	addi	a3,sp,160
     b20:	785f 0600 0b38      	0xb380600785f
     b26:	01cd                	addi	gp,gp,19
     b28:	0000                	unimp
     b2a:	0018                	0x18
     b2c:	0812                	slli	a6,a6,0x4
     b2e:	016d                	addi	sp,sp,27
     b30:	0000                	unimp
     b32:	490a                	lw	s2,128(sp)
     b34:	0001                	nop
     b36:	dd00                	sw	s0,56(a0)
     b38:	0001                	nop
     b3a:	0b00                	addi	s0,sp,400
     b3c:	0066                	c.slli	zero,0x19
     b3e:	0000                	unimp
     b40:	0000                	unimp
     b42:	4710                	lw	a2,8(a4)
     b44:	0002                	c.slli64	zero
     b46:	2400                	fld	fs0,8(s0)
     b48:	3c06                	fld	fs8,96(sp)
     b4a:	6008                	ld	a0,0(s0)
     b4c:	0002                	c.slli64	zero
     b4e:	0d00                	addi	s0,sp,656
     b50:	00000093          	li	ra,0
     b54:	3e06                	fld	ft8,96(sp)
     b56:	4509                	li	a0,2
     b58:	0000                	unimp
     b5a:	0000                	unimp
     b5c:	080d                	addi	a6,a6,3
     b5e:	0004                	0x4
     b60:	0600                	addi	s0,sp,768
     b62:	0045093f 0d040000 	0xd0400000045093f
     b6a:	0181                	addi	gp,gp,0
     b6c:	0000                	unimp
     b6e:	4006                	0x4006
     b70:	4509                	li	a0,2
     b72:	0000                	unimp
     b74:	0800                	addi	s0,sp,16
     b76:	ef0d                	bnez	a4,bb0 <_tbss_end+0xbb0>
     b78:	0004                	0x4
     b7a:	0600                	addi	s0,sp,768
     b7c:	0941                	addi	s2,s2,16
     b7e:	0045                	c.nop	17
     b80:	0000                	unimp
     b82:	0d0c                	addi	a1,sp,656
     b84:	02e9                	addi	t0,t0,26
     b86:	0000                	unimp
     b88:	4206                	lw	tp,64(sp)
     b8a:	4509                	li	a0,2
     b8c:	0000                	unimp
     b8e:	1000                	addi	s0,sp,32
     b90:	cf0d                	beqz	a4,bca <_tbss_end+0xbca>
     b92:	0002                	c.slli64	zero
     b94:	0600                	addi	s0,sp,768
     b96:	00450943          	fmadd.s	fs2,fa0,ft4,ft0,rne
     b9a:	0000                	unimp
     b9c:	0d14                	addi	a3,sp,656
     b9e:	0476                	slli	s0,s0,0x1d
     ba0:	0000                	unimp
     ba2:	4406                	lw	s0,64(sp)
     ba4:	4509                	li	a0,2
     ba6:	0000                	unimp
     ba8:	1800                	addi	s0,sp,48
     baa:	4e0d                	li	t3,3
     bac:	06000003          	lb	zero,96(zero) # 60 <_tbss_end+0x60>
     bb0:	0945                	addi	s2,s2,17
     bb2:	0045                	c.nop	17
     bb4:	0000                	unimp
     bb6:	0d1c                	addi	a5,sp,656
     bb8:	04b1                	addi	s1,s1,12
     bba:	0000                	unimp
     bbc:	4606                	lw	a2,64(sp)
     bbe:	4509                	li	a0,2
     bc0:	0000                	unimp
     bc2:	2000                	fld	fs0,0(s0)
     bc4:	1300                	addi	s0,sp,416
     bc6:	0190                	addi	a2,sp,192
     bc8:	0000                	unimp
     bca:	0208                	addi	a0,sp,256
     bcc:	4f06                	lw	t5,64(sp)
     bce:	a608                	fsd	fa0,8(a2)
     bd0:	0002                	c.slli64	zero
     bd2:	0d00                	addi	s0,sp,656
     bd4:	01fc                	addi	a5,sp,204
     bd6:	0000                	unimp
     bd8:	5006                	0x5006
     bda:	a60a                	fsd	ft2,264(sp)
     bdc:	0002                	c.slli64	zero
     bde:	0000                	unimp
     be0:	0014                	0x14
     be2:	0000                	unimp
     be4:	0600                	addi	s0,sp,768
     be6:	0951                	addi	s2,s2,20
     be8:	02a6                	slli	t0,t0,0x9
     bea:	0000                	unimp
     bec:	0100                	addi	s0,sp,128
     bee:	2414                	fld	fa3,8(s0)
     bf0:	0004                	0x4
     bf2:	0600                	addi	s0,sp,768
     bf4:	01490a53          	fadd.s	fs4,fs2,fs4,rne
     bf8:	0000                	unimp
     bfa:	0200                	addi	s0,sp,256
     bfc:	b514                	fsd	fa3,40(a0)
     bfe:	0001                	nop
     c00:	0600                	addi	s0,sp,768
     c02:	0a56                	slli	s4,s4,0x15
     c04:	0149                	addi	sp,sp,18
     c06:	0000                	unimp
     c08:	0204                	addi	s1,sp,256
     c0a:	0a00                	addi	s0,sp,272
     c0c:	0141                	addi	sp,sp,16
     c0e:	0000                	unimp
     c10:	02b6                	slli	t0,t0,0xd
     c12:	0000                	unimp
     c14:	0000660b          	0x660b
     c18:	1f00                	addi	s0,sp,944
     c1a:	1300                	addi	s0,sp,416
     c1c:	02f2                	slli	t0,t0,0x1c
     c1e:	0000                	unimp
     c20:	0318                	addi	a4,sp,384
     c22:	6206                	ld	tp,64(sp)
     c24:	fa08                	sd	a0,48(a2)
     c26:	0002                	c.slli64	zero
     c28:	0d00                	addi	s0,sp,656
     c2a:	038d                	addi	t2,t2,3
     c2c:	0000                	unimp
     c2e:	6306                	ld	t1,64(sp)
     c30:	fa12                	sd	tp,304(sp)
     c32:	0002                	c.slli64	zero
     c34:	0000                	unimp
     c36:	a50d                	j	1258 <_tbss_end+0x1258>
     c38:	06000003          	lb	zero,96(zero) # 60 <_tbss_end+0x60>
     c3c:	0664                	addi	s1,sp,780
     c3e:	0045                	c.nop	17
     c40:	0000                	unimp
     c42:	0d08                	addi	a0,sp,656
     c44:	0204                	addi	s1,sp,256
     c46:	0000                	unimp
     c48:	6606                	ld	a2,64(sp)
     c4a:	0009                	c.nop	2
     c4c:	10000003          	lb	zero,256(zero) # 100 <_tbss_end+0x100>
     c50:	9014                	0x9014
     c52:	0001                	nop
     c54:	0600                	addi	s0,sp,768
     c56:	02601e67          	0x2601e67
     c5a:	0000                	unimp
     c5c:	0110                	addi	a2,sp,128
     c5e:	1200                	addi	s0,sp,288
     c60:	b608                	fsd	fa0,40(a2)
     c62:	0002                	c.slli64	zero
     c64:	0a00                	addi	s0,sp,272
     c66:	0310                	addi	a2,sp,384
     c68:	0000                	unimp
     c6a:	0310                	addi	a2,sp,384
     c6c:	0000                	unimp
     c6e:	0000660b          	0x660b
     c72:	1f00                	addi	s0,sp,944
     c74:	1200                	addi	s0,sp,288
     c76:	1608                	addi	a0,sp,800
     c78:	15000003          	lb	zero,336(zero) # 150 <_tbss_end+0x150>
     c7c:	5810                	lw	a2,48(s0)
     c7e:	10000003          	lb	zero,256(zero) # 100 <_tbss_end+0x100>
     c82:	7a06                	ld	s4,96(sp)
     c84:	3f08                	fld	fa0,56(a4)
     c86:	0d000003          	lb	zero,208(zero) # d0 <_tbss_end+0xd0>
     c8a:	0000017b          	0x17b
     c8e:	7b06                	ld	s6,96(sp)
     c90:	3f11                	addiw	t5,t5,-28
     c92:	00000003          	lb	zero,0(zero) # 0 <_tbss_end>
     c96:	0c0d                	addi	s8,s8,3
     c98:	0000                	unimp
     c9a:	0600                	addi	s0,sp,768
     c9c:	067c                	addi	a5,sp,780
     c9e:	0045                	c.nop	17
     ca0:	0000                	unimp
     ca2:	0008                	0x8
     ca4:	0812                	slli	a6,a6,0x4
     ca6:	0030                	addi	a2,sp,8
     ca8:	0000                	unimp
     caa:	7710                	ld	a2,40(a4)
     cac:	b0000003          	lb	zero,-1280(zero) # fffffffffffffb00 <__global_pointer$+0xffffffff7fffdae4>
     cb0:	ba06                	fsd	ft1,304(sp)
     cb2:	8808                	0x8808
     cb4:	0004                	0x4
     cb6:	1100                	addi	s0,sp,160
     cb8:	705f 0600 12bb      	0x12bb0600705f
     cbe:	0000033f 725f1100 	0x725f11000000033f
     cc6:	0600                	addi	s0,sp,768
     cc8:	07bc                	addi	a5,sp,968
     cca:	0045                	c.nop	17
     ccc:	0000                	unimp
     cce:	1108                	addi	a0,sp,160
     cd0:	775f 0600 07bd      	0x7bd0600775f
     cd6:	0045                	c.nop	17
     cd8:	0000                	unimp
     cda:	0d0c                	addi	a1,sp,656
     cdc:	01ae                	slli	gp,gp,0xb
     cde:	0000                	unimp
     ce0:	be06                	fsd	ft1,312(sp)
     ce2:	3709                	addiw	a4,a4,-30
     ce4:	0000                	unimp
     ce6:	1000                	addi	s0,sp,32
     ce8:	630d                	lui	t1,0x3
     cea:	0002                	c.slli64	zero
     cec:	0600                	addi	s0,sp,768
     cee:	003709bf 11120000 	0x11120000003709bf
     cf6:	625f 0066 c006      	0xc0060066625f
     cfc:	1711                	addi	a4,a4,-28
     cfe:	18000003          	lb	zero,384(zero) # 180 <_tbss_end+0x180>
     d02:	620d                	lui	tp,0x3
     d04:	0000                	unimp
     d06:	0600                	addi	s0,sp,768
     d08:	07c1                	addi	a5,a5,16
     d0a:	0045                	c.nop	17
     d0c:	0000                	unimp
     d0e:	0d28                	addi	a0,sp,664
     d10:	019e                	slli	gp,gp,0x7
     d12:	0000                	unimp
     d14:	c806                	sw	ra,16(sp)
     d16:	410a                	lw	sp,128(sp)
     d18:	0001                	nop
     d1a:	3000                	fld	fs0,32(s0)
     d1c:	370d                	addiw	a4,a4,-29
     d1e:	0002                	c.slli64	zero
     d20:	0600                	addi	s0,sp,768
     d22:	1dca                	slli	s11,s11,0x32
     d24:	060c                	addi	a1,sp,768
     d26:	0000                	unimp
     d28:	0d38                	addi	a4,sp,664
     d2a:	02c8                	addi	a0,sp,324
     d2c:	0000                	unimp
     d2e:	cc06                	sw	ra,24(sp)
     d30:	361d                	addiw	a2,a2,-25
     d32:	0006                	c.slli	zero,0x1
     d34:	4000                	lw	s0,0(s0)
     d36:	fa0d                	bnez	a2,c68 <_tbss_end+0xc68>
     d38:	06000003          	lb	zero,96(zero) # 60 <_tbss_end+0x60>
     d3c:	065a0dcf          	fnmadd.q	fs11,fs4,ft5,ft0,rne
     d40:	0000                	unimp
     d42:	0d48                	addi	a0,sp,660
     d44:	000004cb          	fnmsub.s	fs1,ft0,ft0,ft0,rne
     d48:	d006                	sw	ra,32(sp)
     d4a:	7409                	lui	s0,0xfffe2
     d4c:	0006                	c.slli	zero,0x1
     d4e:	5000                	lw	s0,32(s0)
     d50:	5f11                	li	t5,-28
     d52:	6275                	lui	tp,0x1d
     d54:	0600                	addi	s0,sp,768
     d56:	031711d3          	fadd.d	ft3,fa4,fa7,rtz
     d5a:	0000                	unimp
     d5c:	1158                	addi	a4,sp,164
     d5e:	755f 0070 d406      	0xd4060070755f
     d64:	3f12                	fld	ft10,288(sp)
     d66:	68000003          	lb	zero,1664(zero) # 680 <_tbss_end+0x680>
     d6a:	5f11                	li	t5,-28
     d6c:	7275                	lui	tp,0xffffd
     d6e:	0600                	addi	s0,sp,768
     d70:	07d5                	addi	a5,a5,21
     d72:	0045                	c.nop	17
     d74:	0000                	unimp
     d76:	0d70                	addi	a2,sp,668
     d78:	0175                	addi	sp,sp,29
     d7a:	0000                	unimp
     d7c:	d806                	sw	ra,48(sp)
     d7e:	7a11                	lui	s4,0xfffe4
     d80:	0006                	c.slli	zero,0x1
     d82:	7400                	ld	s0,40(s0)
     d84:	a30d                	j	12a6 <_tbss_end+0x12a6>
     d86:	0004                	0x4
     d88:	0600                	addi	s0,sp,768
     d8a:	11d9                	addi	gp,gp,-10
     d8c:	068a                	slli	a3,a3,0x2
     d8e:	0000                	unimp
     d90:	6c5f1177          	0x6c5f1177
     d94:	0062                	c.slli	zero,0x18
     d96:	dc06                	sw	ra,56(sp)
     d98:	1711                	addi	a4,a4,-28
     d9a:	78000003          	lb	zero,1920(zero) # 780 <_tbss_end+0x780>
     d9e:	c40d                	beqz	s0,dc8 <_tbss_end+0xdc8>
     da0:	0001                	nop
     da2:	0600                	addi	s0,sp,768
     da4:	07df 0045 0000      	0x4507df
     daa:	0d88                	addi	a0,sp,720
     dac:	01d5                	addi	gp,gp,21
     dae:	0000                	unimp
     db0:	e006                	sd	ra,0(sp)
     db2:	b40a                	fsd	ft2,40(sp)
     db4:	0000                	unimp
     db6:	9000                	0x9000
     db8:	250d                	addiw	a0,a0,3
     dba:	0000                	unimp
     dbc:	0600                	addi	s0,sp,768
     dbe:	04a612e3          	bne	a2,a0,1602 <_tbss_end+0x1602>
     dc2:	0000                	unimp
     dc4:	0d98                	addi	a4,sp,720
     dc6:	02ba                	slli	t0,t0,0xe
     dc8:	0000                	unimp
     dca:	e706                	sd	ra,392(sp)
     dcc:	610c                	ld	a1,0(a0)
     dce:	0001                	nop
     dd0:	a000                	fsd	fs0,0(s0)
     dd2:	7f0d                	lui	t5,0xfffe3
     dd4:	06000003          	lb	zero,96(zero) # 60 <_tbss_end+0x60>
     dd8:	0ee9                	addi	t4,t4,26
     dda:	0135                	addi	sp,sp,13
     ddc:	0000                	unimp
     dde:	0da4                	addi	s1,sp,728
     de0:	02c0                	addi	s0,sp,324
     de2:	0000                	unimp
     de4:	ea06                	sd	ra,272(sp)
     de6:	4509                	li	a0,2
     de8:	0000                	unimp
     dea:	ac00                	fsd	fs0,24(s0)
     dec:	1600                	addi	s0,sp,800
     dee:	000000d3          	fadd.s	ft1,ft0,ft0,rne
     df2:	04a6                	slli	s1,s1,0x9
     df4:	0000                	unimp
     df6:	0004a617          	auipc	a2,0x4a
     dfa:	1700                	addi	s0,sp,928
     dfc:	0141                	addi	sp,sp,16
     dfe:	0000                	unimp
     e00:	0005fa17          	auipc	s4,0x5f
     e04:	1700                	addi	s0,sp,928
     e06:	0045                	c.nop	17
     e08:	0000                	unimp
     e0a:	1200                	addi	s0,sp,288
     e0c:	b108                	fsd	fa0,32(a0)
     e0e:	0004                	0x4
     e10:	0600                	addi	s0,sp,768
     e12:	04a6                	slli	s1,s1,0x9
     e14:	0000                	unimp
     e16:	dd18                	sw	a4,56(a0)
     e18:	48000003          	lb	zero,1152(zero) # 480 <_tbss_end+0x480>
     e1c:	02650607          	0x2650607
     e20:	fa08                	sd	a0,48(a2)
     e22:	0005                	c.nop	1
     e24:	1900                	addi	s0,sp,176
     e26:	033d                	addi	t1,t1,15
     e28:	0000                	unimp
     e2a:	6706                	ld	a4,64(sp)
     e2c:	0702                	c.slli64	a4
     e2e:	0045                	c.nop	17
     e30:	0000                	unimp
     e32:	1900                	addi	s0,sp,176
     e34:	01bd                	addi	gp,gp,15
     e36:	0000                	unimp
     e38:	6c06                	ld	s8,64(sp)
     e3a:	0b02                	c.slli64	s6
     e3c:	06e6                	slli	a3,a3,0x19
     e3e:	0000                	unimp
     e40:	1908                	addi	a0,sp,176
     e42:	00000253          	fadd.s	ft4,ft0,ft0,rne
     e46:	6c06                	ld	s8,64(sp)
     e48:	1402                	slli	s0,s0,0x20
     e4a:	06e6                	slli	a3,a3,0x19
     e4c:	0000                	unimp
     e4e:	1910                	addi	a2,sp,176
     e50:	0218                	addi	a4,sp,256
     e52:	0000                	unimp
     e54:	6c06                	ld	s8,64(sp)
     e56:	1e02                	slli	t3,t3,0x20
     e58:	06e6                	slli	a3,a3,0x19
     e5a:	0000                	unimp
     e5c:	1918                	addi	a4,sp,176
     e5e:	03a0                	addi	s0,sp,456
     e60:	0000                	unimp
     e62:	6e06                	ld	t3,64(sp)
     e64:	0802                	c.slli64	a6
     e66:	0045                	c.nop	17
     e68:	0000                	unimp
     e6a:	1920                	addi	s0,sp,184
     e6c:	001a                	c.slli	zero,0x6
     e6e:	0000                	unimp
     e70:	6f06                	ld	t5,64(sp)
     e72:	0802                	c.slli64	a6
     e74:	000008ef          	jal	a7,e74 <_tbss_end+0xe74>
     e78:	1924                	addi	s1,sp,184
     e7a:	03bc                	addi	a5,sp,456
     e7c:	0000                	unimp
     e7e:	7206                	ld	tp,96(sp)
     e80:	0702                	c.slli64	a4
     e82:	0045                	c.nop	17
     e84:	0000                	unimp
     e86:	1940                	addi	s0,sp,180
     e88:	03aa                	slli	t2,t2,0xa
     e8a:	0000                	unimp
     e8c:	7306                	ld	t1,96(sp)
     e8e:	1602                	slli	a2,a2,0x20
     e90:	0904                	addi	s1,sp,144
     e92:	0000                	unimp
     e94:	1948                	addi	a0,sp,180
     e96:	02fa                	slli	t0,t0,0x1e
     e98:	0000                	unimp
     e9a:	7506                	ld	a0,96(sp)
     e9c:	0702                	c.slli64	a4
     e9e:	0045                	c.nop	17
     ea0:	0000                	unimp
     ea2:	1950                	addi	a2,sp,180
     ea4:	03b2                	slli	t2,t2,0xc
     ea6:	0000                	unimp
     ea8:	7706                	ld	a4,96(sp)
     eaa:	0a02                	c.slli64	s4
     eac:	0915                	addi	s2,s2,5
     eae:	0000                	unimp
     eb0:	1958                	addi	a4,sp,180
     eb2:	02a5                	addi	t0,t0,9
     eb4:	0000                	unimp
     eb6:	7a06                	ld	s4,96(sp)
     eb8:	1302                	slli	t1,t1,0x20
     eba:	000001c7          	fmsub.s	ft3,ft0,ft0,ft0,rne
     ebe:	1960                	addi	s0,sp,188
     ec0:	023d                	addi	tp,tp,15
     ec2:	0000                	unimp
     ec4:	7b06                	ld	s6,96(sp)
     ec6:	0702                	c.slli64	a4
     ec8:	0045                	c.nop	17
     eca:	0000                	unimp
     ecc:	1968                	addi	a0,sp,188
     ece:	04e5                	addi	s1,s1,25
     ed0:	0000                	unimp
     ed2:	7c06                	ld	s8,96(sp)
     ed4:	1302                	slli	t1,t1,0x20
     ed6:	000001c7          	fmsub.s	ft3,ft0,ft0,ft0,rne
     eda:	1970                	addi	a2,sp,188
     edc:	030c                	addi	a1,sp,384
     ede:	0000                	unimp
     ee0:	7d06                	ld	s10,96(sp)
     ee2:	1402                	slli	s0,s0,0x20
     ee4:	0000091b          	sext.w	s2,zero
     ee8:	1978                	addi	a4,sp,188
     eea:	0000025b          	0x25b
     eee:	8006                	c.mv	zero,ra
     ef0:	0702                	c.slli64	a4
     ef2:	0045                	c.nop	17
     ef4:	0000                	unimp
     ef6:	1980                	addi	s0,sp,240
     ef8:	01cd                	addi	gp,gp,19
     efa:	0000                	unimp
     efc:	8106                	mv	sp,ra
     efe:	0902                	c.slli64	s2
     f00:	05fa                	slli	a1,a1,0x1e
     f02:	0000                	unimp
     f04:	1988                	addi	a0,sp,240
     f06:	0336                	slli	t1,t1,0xd
     f08:	0000                	unimp
     f0a:	a406                	fsd	ft1,8(sp)
     f0c:	0702                	c.slli64	a4
     f0e:	08c9                	addi	a7,a7,18
     f10:	0000                	unimp
     f12:	1a90                	addi	a2,sp,368
     f14:	02f2                	slli	t0,t0,0x1c
     f16:	0000                	unimp
     f18:	a806                	fsd	ft1,16(sp)
     f1a:	1302                	slli	t1,t1,0x20
     f1c:	02fa                	slli	t0,t0,0x1e
     f1e:	0000                	unimp
     f20:	01f8                	addi	a4,sp,204
     f22:	831a                	mv	t1,t1
     f24:	0002                	c.slli64	zero
     f26:	0600                	addi	s0,sp,768
     f28:	02a9                	addi	t0,t0,10
     f2a:	b612                	fsd	ft4,296(sp)
     f2c:	0002                	c.slli64	zero
     f2e:	0000                	unimp
     f30:	1a02                	slli	s4,s4,0x20
     f32:	0499                	addi	s1,s1,6
     f34:	0000                	unimp
     f36:	ad06                	fsd	ft1,152(sp)
     f38:	0c02                	c.slli64	s8
     f3a:	092c                	addi	a1,sp,152
     f3c:	0000                	unimp
     f3e:	0518                	addi	a4,sp,640
     f40:	a61a                	fsd	ft6,264(sp)
     f42:	0001                	nop
     f44:	0600                	addi	s0,sp,768
     f46:	02b2                	slli	t0,t0,0xc
     f48:	a710                	fsd	fa2,8(a4)
     f4a:	0006                	c.slli	zero,0x1
     f4c:	2000                	fld	fs0,0(s0)
     f4e:	1a05                	addi	s4,s4,-31
     f50:	0000018b          	0x18b
     f54:	b406                	fsd	ft1,40(sp)
     f56:	0a02                	c.slli64	s4
     f58:	0938                	addi	a4,sp,152
     f5a:	0000                	unimp
     f5c:	0538                	addi	a4,sp,648
     f5e:	1200                	addi	s0,sp,288
     f60:	0008                	0x8
     f62:	0006                	c.slli	zero,0x1
     f64:	0200                	addi	s0,sp,256
     f66:	0801                	addi	a6,a6,0
     f68:	0331                	addi	t1,t1,12
     f6a:	0000                	unimp
     f6c:	0006                	c.slli	zero,0x1
     f6e:	0006                	c.slli	zero,0x1
     f70:	1200                	addi	s0,sp,288
     f72:	8808                	0x8808
     f74:	0004                	0x4
     f76:	1600                	addi	s0,sp,800
     f78:	000000d3          	fadd.s	ft1,ft0,ft0,rne
     f7c:	0630                	addi	a2,sp,776
     f7e:	0000                	unimp
     f80:	0004a617          	auipc	a2,0x4a
     f84:	1700                	addi	s0,sp,928
     f86:	0141                	addi	sp,sp,16
     f88:	0000                	unimp
     f8a:	00063017          	auipc	zero,0x63
     f8e:	1700                	addi	s0,sp,928
     f90:	0045                	c.nop	17
     f92:	0000                	unimp
     f94:	1200                	addi	s0,sp,288
     f96:	0708                	addi	a0,sp,896
     f98:	0006                	c.slli	zero,0x1
     f9a:	1200                	addi	s0,sp,288
     f9c:	1208                	addi	a0,sp,288
     f9e:	0006                	c.slli	zero,0x1
     fa0:	1600                	addi	s0,sp,800
     fa2:	000000c7          	fmsub.s	ft1,ft0,ft0,ft0,rne
     fa6:	065a                	slli	a2,a2,0x16
     fa8:	0000                	unimp
     faa:	0004a617          	auipc	a2,0x4a
     fae:	1700                	addi	s0,sp,928
     fb0:	0141                	addi	sp,sp,16
     fb2:	0000                	unimp
     fb4:	0000c717          	auipc	a4,0xc
     fb8:	1700                	addi	s0,sp,928
     fba:	0045                	c.nop	17
     fbc:	0000                	unimp
     fbe:	1200                	addi	s0,sp,288
     fc0:	3c08                	fld	fa0,56(s0)
     fc2:	0006                	c.slli	zero,0x1
     fc4:	1600                	addi	s0,sp,800
     fc6:	0045                	c.nop	17
     fc8:	0000                	unimp
     fca:	0674                	addi	a3,sp,780
     fcc:	0000                	unimp
     fce:	0004a617          	auipc	a2,0x4a
     fd2:	1700                	addi	s0,sp,928
     fd4:	0141                	addi	sp,sp,16
     fd6:	0000                	unimp
     fd8:	1200                	addi	s0,sp,288
     fda:	6008                	ld	a0,0(s0)
     fdc:	0006                	c.slli	zero,0x1
     fde:	0a00                	addi	s0,sp,272
     fe0:	0030                	addi	a2,sp,8
     fe2:	0000                	unimp
     fe4:	068a                	slli	a3,a3,0x2
     fe6:	0000                	unimp
     fe8:	0000660b          	0x660b
     fec:	0200                	addi	s0,sp,256
     fee:	0a00                	addi	s0,sp,272
     ff0:	0030                	addi	a2,sp,8
     ff2:	0000                	unimp
     ff4:	069a                	slli	a3,a3,0x6
     ff6:	0000                	unimp
     ff8:	0000660b          	0x660b
     ffc:	0000                	unimp
     ffe:	0700                	addi	s0,sp,896
    1000:	0365                	addi	t1,t1,25
    1002:	0000                	unimp
    1004:	2406                	fld	fs0,64(sp)
    1006:	1a01                	addi	s4,s4,-32
    1008:	0345                	addi	t1,t1,17
    100a:	0000                	unimp
    100c:	0004801b          	sext.w	zero,s1
    1010:	1800                	addi	s0,sp,48
    1012:	2806                	fld	fa6,64(sp)
    1014:	0801                	addi	a6,a6,0
    1016:	06e0                	addi	s0,sp,844
    1018:	0000                	unimp
    101a:	8d19                	sub	a0,a0,a4
    101c:	06000003          	lb	zero,96(zero) # 60 <_tbss_end+0x60>
    1020:	012a                	slli	sp,sp,0xa
    1022:	e011                	bnez	s0,1026 <_tbss_end+0x1026>
    1024:	0006                	c.slli	zero,0x1
    1026:	0000                	unimp
    1028:	6919                	lui	s2,0x6
    102a:	0002                	c.slli64	zero
    102c:	0600                	addi	s0,sp,768
    102e:	4507012b          	0x4507012b
    1032:	0000                	unimp
    1034:	0800                	addi	s0,sp,16
    1036:	5f19                	li	t5,-26
    1038:	06000003          	lb	zero,96(zero) # 60 <_tbss_end+0x60>
    103c:	012c                	addi	a1,sp,136
    103e:	0006e60b          	0x6e60b
    1042:	1000                	addi	s0,sp,32
    1044:	1200                	addi	s0,sp,288
    1046:	a708                	fsd	fa0,8(a4)
    1048:	0006                	c.slli	zero,0x1
    104a:	1200                	addi	s0,sp,288
    104c:	9a08                	0x9a08
    104e:	0006                	c.slli	zero,0x1
    1050:	1b00                	addi	s0,sp,432
    1052:	0012                	c.slli	zero,0x4
    1054:	0000                	unimp
    1056:	060e                	slli	a2,a2,0x3
    1058:	0144                	addi	s1,sp,132
    105a:	2508                	fld	fa0,8(a0)
    105c:	19000007          	0x19000007
    1060:	03e4                	addi	s1,sp,460
    1062:	0000                	unimp
    1064:	4506                	lw	a0,64(sp)
    1066:	1201                	addi	tp,tp,-32
    1068:	0725                	addi	a4,a4,9
    106a:	0000                	unimp
    106c:	1900                	addi	s0,sp,176
    106e:	0411                	addi	s0,s0,4
    1070:	0000                	unimp
    1072:	4606                	lw	a2,64(sp)
    1074:	1201                	addi	tp,tp,-32
    1076:	0725                	addi	a4,a4,9
    1078:	0000                	unimp
    107a:	1906                	slli	s2,s2,0x21
    107c:	042d                	addi	s0,s0,11
    107e:	0000                	unimp
    1080:	4706                	lw	a4,64(sp)
    1082:	1201                	addi	tp,tp,-32
    1084:	003e                	c.slli	zero,0xf
    1086:	0000                	unimp
    1088:	000c                	0xc
    108a:	3e0a                	fld	ft8,160(sp)
    108c:	0000                	unimp
    108e:	3500                	fld	fs0,40(a0)
    1090:	0b000007          	0xb000007
    1094:	0066                	c.slli	zero,0x19
    1096:	0000                	unimp
    1098:	0002                	c.slli64	zero
    109a:	d81c                	sw	a5,48(s0)
    109c:	8506                	mv	a0,ra
    109e:	0702                	c.slli64	a4
    10a0:	084a                	slli	a6,a6,0x12
    10a2:	0000                	unimp
    10a4:	6419                	lui	s0,0x6
    10a6:	0004                	0x4
    10a8:	0600                	addi	s0,sp,768
    10aa:	4c180287          	0x4c180287
    10ae:	0000                	unimp
    10b0:	0000                	unimp
    10b2:	1719                	addi	a4,a4,-26
    10b4:	0004                	0x4
    10b6:	0600                	addi	s0,sp,768
    10b8:	0288                	addi	a0,sp,320
    10ba:	fa12                	sd	tp,304(sp)
    10bc:	0005                	c.nop	1
    10be:	0800                	addi	s0,sp,16
    10c0:	9819                	andi	s0,s0,-26
    10c2:	0002                	c.slli64	zero
    10c4:	0600                	addi	s0,sp,768
    10c6:	0289                	addi	t0,t0,2
    10c8:	4a10                	lw	a2,16(a2)
    10ca:	0008                	0x8
    10cc:	1000                	addi	s0,sp,32
    10ce:	bc19                	j	ae4 <_tbss_end+0xae4>
    10d0:	0004                	0x4
    10d2:	0600                	addi	s0,sp,768
    10d4:	028a                	slli	t0,t0,0x2
    10d6:	0001dd17          	auipc	s10,0x1d
    10da:	2c00                	fld	fs0,24(s0)
    10dc:	2819                	addiw	a6,a6,6
    10de:	0002                	c.slli64	zero
    10e0:	0600                	addi	s0,sp,768
    10e2:	450f028b          	0x450f028b
    10e6:	0000                	unimp
    10e8:	5000                	lw	s0,32(s0)
    10ea:	8819                	andi	s0,s0,6
    10ec:	06000003          	lb	zero,96(zero) # 60 <_tbss_end+0x60>
    10f0:	028c                	addi	a1,sp,320
    10f2:	5a2c                	lw	a1,112(a2)
    10f4:	0008                	0x8
    10f6:	5800                	lw	s0,48(s0)
    10f8:	d219                	beqz	a2,ffe <_tbss_end+0xffe>
    10fa:	0004                	0x4
    10fc:	0600                	addi	s0,sp,768
    10fe:	028d                	addi	t0,t0,3
    1100:	ec1a                	sd	t1,24(sp)
    1102:	0006                	c.slli	zero,0x1
    1104:	6000                	ld	s0,0(s0)
    1106:	9319                	srli	a4,a4,0x26
    1108:	06000003          	lb	zero,96(zero) # 60 <_tbss_end+0x60>
    110c:	028e                	slli	t0,t0,0x3
    110e:	3516                	fld	fa0,352(sp)
    1110:	0001                	nop
    1112:	7000                	ld	s0,32(s0)
    1114:	d719                	beqz	a4,1022 <_tbss_end+0x1022>
    1116:	0004                	0x4
    1118:	0600                	addi	s0,sp,768
    111a:	3516028f          	0x3516028f
    111e:	0001                	nop
    1120:	7800                	ld	s0,48(s0)
    1122:	8519                	srai	a0,a0,0x6
    1124:	0000                	unimp
    1126:	0600                	addi	s0,sp,768
    1128:	0290                	addi	a2,sp,320
    112a:	3516                	fld	fa0,352(sp)
    112c:	0001                	nop
    112e:	8000                	0x8000
    1130:	8f19                	sub	a4,a4,a4
    1132:	0004                	0x4
    1134:	0600                	addi	s0,sp,768
    1136:	0291                	addi	t0,t0,4
    1138:	6110                	ld	a2,0(a0)
    113a:	0008                	0x8
    113c:	8800                	0x8800
    113e:	8c19                	sub	s0,s0,a4
    1140:	0002                	c.slli64	zero
    1142:	0600                	addi	s0,sp,768
    1144:	0292                	slli	t0,t0,0x4
    1146:	7110                	ld	a2,32(a0)
    1148:	0008                	0x8
    114a:	9000                	0x9000
    114c:	3a19                	addiw	s4,s4,-26
    114e:	0004                	0x4
    1150:	0600                	addi	s0,sp,768
    1152:	450f0293          	addi	t0,t5,1104 # fffffffffffe3450 <__global_pointer$+0xffffffff7ffe1434>
    1156:	0000                	unimp
    1158:	a800                	fsd	fs0,16(s0)
    115a:	ee19                	bnez	a2,1178 <_tbss_end+0x1178>
    115c:	0001                	nop
    115e:	0600                	addi	s0,sp,768
    1160:	0294                	addi	a3,sp,320
    1162:	3516                	fld	fa0,352(sp)
    1164:	0001                	nop
    1166:	ac00                	fsd	fs0,24(s0)
    1168:	7619                	lui	a2,0xfffe6
    116a:	0000                	unimp
    116c:	0600                	addi	s0,sp,768
    116e:	0295                	addi	t0,t0,5
    1170:	3516                	fld	fa0,352(sp)
    1172:	0001                	nop
    1174:	b400                	fsd	fs0,40(s0)
    1176:	dd19                	beqz	a0,1094 <_tbss_end+0x1094>
    1178:	0001                	nop
    117a:	0600                	addi	s0,sp,768
    117c:	0296                	slli	t0,t0,0x5
    117e:	3516                	fld	fa0,352(sp)
    1180:	0001                	nop
    1182:	bc00                	fsd	fs0,56(s0)
    1184:	2b19                	addiw	s6,s6,6
    1186:	0000                	unimp
    1188:	0600                	addi	s0,sp,768
    118a:	35160297          	auipc	t0,0x35160
    118e:	0001                	nop
    1190:	c400                	sw	s0,8(s0)
    1192:	3a19                	addiw	s4,s4,-26
    1194:	0000                	unimp
    1196:	0600                	addi	s0,sp,768
    1198:	0298                	addi	a4,sp,320
    119a:	3516                	fld	fa0,352(sp)
    119c:	0001                	nop
    119e:	cc00                	sw	s0,24(s0)
    11a0:	3b19                	addiw	s6,s6,-26
    11a2:	06000003          	lb	zero,96(zero) # 60 <_tbss_end+0x60>
    11a6:	0299                	addi	t0,t0,6
    11a8:	4508                	lw	a0,8(a0)
    11aa:	0000                	unimp
    11ac:	d400                	sw	s0,40(s0)
    11ae:	0a00                	addi	s0,sp,272
    11b0:	0600                	addi	s0,sp,768
    11b2:	0000                	unimp
    11b4:	085a                	slli	a6,a6,0x16
    11b6:	0000                	unimp
    11b8:	0000660b          	0x660b
    11bc:	1900                	addi	s0,sp,176
    11be:	0200                	addi	s0,sp,256
    11c0:	0708                	addi	a0,sp,896
    11c2:	0000004b          	fnmsub.s	ft0,ft0,ft0,ft0,rne
    11c6:	000a                	c.slli	zero,0x2
    11c8:	0006                	c.slli	zero,0x1
    11ca:	7100                	ld	s0,32(a0)
    11cc:	0008                	0x8
    11ce:	0b00                	addi	s0,sp,400
    11d0:	0066                	c.slli	zero,0x19
    11d2:	0000                	unimp
    11d4:	000a0007          	0xa0007
    11d8:	0006                	c.slli	zero,0x1
    11da:	8100                	0x8100
    11dc:	0008                	0x8
    11de:	0b00                	addi	s0,sp,400
    11e0:	0066                	c.slli	zero,0x19
    11e2:	0000                	unimp
    11e4:	681d0017          	auipc	zero,0x681d0
    11e8:	0601                	addi	a2,a2,0
    11ea:	029e                	slli	t0,t0,0x7
    11ec:	0008a907          	flw	fs2,0(a7) # 0 <_tbss_end>
    11f0:	1900                	addi	s0,sp,176
    11f2:	02e2                	slli	t0,t0,0x18
    11f4:	0000                	unimp
    11f6:	a106                	fsd	ft1,128(sp)
    11f8:	1b02                	slli	s6,s6,0x20
    11fa:	08a9                	addi	a7,a7,10
    11fc:	0000                	unimp
    11fe:	1900                	addi	s0,sp,176
    1200:	02d9                	addi	t0,t0,22
    1202:	0000                	unimp
    1204:	a206                	fsd	ft1,256(sp)
    1206:	1802                	slli	a6,a6,0x20
    1208:	08b9                	addi	a7,a7,14
    120a:	0000                	unimp
    120c:	00f0                	addi	a2,sp,76
    120e:	3f0a                	fld	ft10,160(sp)
    1210:	b9000003          	lb	zero,-1136(zero) # fffffffffffffb90 <__global_pointer$+0xffffffff7fffdb74>
    1214:	0008                	0x8
    1216:	0b00                	addi	s0,sp,400
    1218:	0066                	c.slli	zero,0x19
    121a:	0000                	unimp
    121c:	001d                	c.nop	7
    121e:	4c0a                	lw	s8,128(sp)
    1220:	0000                	unimp
    1222:	c900                	sw	s0,16(a0)
    1224:	0008                	0x8
    1226:	0b00                	addi	s0,sp,400
    1228:	0066                	c.slli	zero,0x19
    122a:	0000                	unimp
    122c:	001d                	c.nop	7
    122e:	681e                	ld	a6,448(sp)
    1230:	0601                	addi	a2,a2,0
    1232:	ef030283          	lb	t0,-272(t1) # 2ef0 <_tbss_end+0x2ef0>
    1236:	0008                	0x8
    1238:	1f00                	addi	s0,sp,944
    123a:	03dd                	addi	t2,t2,23
    123c:	0000                	unimp
    123e:	9a06                	add	s4,s4,ra
    1240:	0b02                	c.slli64	s6
    1242:	0735                	addi	a4,a4,13
    1244:	0000                	unimp
    1246:	a91f 0004 0600      	0x6000004a91f
    124c:	810b02a3          	sb	a6,-2043(s6) # 450805 <_tbss_end+0x450805>
    1250:	0008                	0x8
    1252:	0000                	unimp
    1254:	000a                	c.slli	zero,0x2
    1256:	0006                	c.slli	zero,0x1
    1258:	ff00                	sd	s0,56(a4)
    125a:	0008                	0x8
    125c:	0b00                	addi	s0,sp,400
    125e:	0066                	c.slli	zero,0x19
    1260:	0000                	unimp
    1262:	0018                	0x18
    1264:	6b20                	ld	s0,80(a4)
    1266:	0000                	unimp
    1268:	1200                	addi	s0,sp,288
    126a:	ff08                	sd	a0,56(a4)
    126c:	0008                	0x8
    126e:	2100                	fld	fs0,0(a0)
    1270:	0915                	addi	s2,s2,5
    1272:	0000                	unimp
    1274:	0004a617          	auipc	a2,0x4a
    1278:	0000                	unimp
    127a:	0812                	slli	a6,a6,0x4
    127c:	090a                	slli	s2,s2,0x2
    127e:	0000                	unimp
    1280:	0812                	slli	a6,a6,0x4
    1282:	000001c7          	fmsub.s	ft3,ft0,ft0,ft0,rne
    1286:	2c21                	addiw	s8,s8,8
    1288:	0009                	c.nop	2
    128a:	1700                	addi	s0,sp,928
    128c:	0045                	c.nop	17
    128e:	0000                	unimp
    1290:	1200                	addi	s0,sp,288
    1292:	3208                	fld	fa0,32(a2)
    1294:	0009                	c.nop	2
    1296:	1200                	addi	s0,sp,288
    1298:	2108                	fld	fa0,0(a0)
    129a:	0009                	c.nop	2
    129c:	0a00                	addi	s0,sp,272
    129e:	069a                	slli	a3,a3,0x6
    12a0:	0000                	unimp
    12a2:	0948                	addi	a0,sp,148
    12a4:	0000                	unimp
    12a6:	0000660b          	0x660b
    12aa:	0200                	addi	s0,sp,256
    12ac:	2200                	fld	fs0,0(a2)
    12ae:	044e                	slli	s0,s0,0x13
    12b0:	0000                	unimp
    12b2:	3306                	fld	ft6,96(sp)
    12b4:	04a61703          	lh	a4,74(a2) # 4b2be <_tbss_end+0x4b2be>
    12b8:	0000                	unimp
    12ba:	4722                	lw	a4,8(sp)
    12bc:	0004                	0x4
    12be:	0600                	addi	s0,sp,768
    12c0:	0334                	addi	a3,sp,392
    12c2:	ac1d                	j	14f8 <_tbss_end+0x14f8>
    12c4:	0004                	0x4
    12c6:	0400                	addi	s0,sp,512
    12c8:	0000057b          	0x57b
    12cc:	2808                	fld	fa0,16(s0)
    12ce:	0001431b          	0x1431b
    12d2:	0400                	addi	s0,sp,512
    12d4:	0582                	c.slli64	a1
    12d6:	0000                	unimp
    12d8:	6308                	ld	a0,0(a4)
    12da:	6218                	ld	a4,0(a2)
    12dc:	0009                	c.nop	2
    12de:	0a00                	addi	s0,sp,272
    12e0:	008a                	slli	ra,ra,0x2
    12e2:	0000                	unimp
    12e4:	098a                	slli	s3,s3,0x2
    12e6:	0000                	unimp
    12e8:	0000660b          	0x660b
    12ec:	0100                	addi	s0,sp,128
    12ee:	2300                	fld	fs0,0(a4)
    12f0:	05a5                	addi	a1,a1,9
    12f2:	0000                	unimp
    12f4:	1001                	c.nop	-32
    12f6:	7a12                	ld	s4,288(sp)
    12f8:	0009                	c.nop	2
    12fa:	0900                	addi	s0,sp,144
    12fc:	00182003          	lw	zero,1(a6) # 214a3 <_tbss_end+0x214a3>
    1300:	0080                	addi	s0,sp,64
    1302:	0000                	unimp
    1304:	0a00                	addi	s0,sp,272
    1306:	05fa                	slli	a1,a1,0x1e
    1308:	0000                	unimp
    130a:	09b0                	addi	a2,sp,216
    130c:	0000                	unimp
    130e:	0000660b          	0x660b
    1312:	0100                	addi	s0,sp,128
    1314:	2300                	fld	fs0,0(a4)
    1316:	0659                	addi	a2,a2,22
    1318:	0000                	unimp
    131a:	1101                	addi	sp,sp,-32
    131c:	a00e                	fsd	ft3,0(sp)
    131e:	0009                	c.nop	2
    1320:	0900                	addi	s0,sp,144
    1322:	00183003          	ld	zero,1(a6)
    1326:	0080                	addi	s0,sp,64
    1328:	0000                	unimp
    132a:	2400                	fld	fs0,8(s0)
    132c:	04f9                	addi	s1,s1,30
    132e:	0000                	unimp
    1330:	1301                	addi	t1,t1,-32
    1332:	851a                	mv	a0,t1
    1334:	0000                	unimp
    1336:	2400                	fld	fs0,8(s0)
    1338:	06a8                	addi	a0,sp,840
    133a:	0000                	unimp
    133c:	1401                	addi	s0,s0,-32
    133e:	851a                	mv	a0,t1
    1340:	0000                	unimp
    1342:	2500                	fld	fs0,8(a0)
    1344:	06d0                	addi	a2,sp,836
    1346:	0000                	unimp
    1348:	d901                	beqz	a0,1258 <_tbss_end+0x1258>
    134a:	0601                	addi	a2,a2,0
    134c:	00000053          	fadd.s	ft0,ft0,ft0,rne
    1350:	15e0                	addi	s0,sp,748
    1352:	8000                	0x8000
    1354:	0000                	unimp
    1356:	0000                	unimp
    1358:	0054                	addi	a3,sp,4
    135a:	0000                	unimp
    135c:	0000                	unimp
    135e:	0000                	unimp
    1360:	9c01                	subw	s0,s0,s0
    1362:	0a35                	addi	s4,s4,13
    1364:	0000                	unimp
    1366:	7326                	ld	t1,104(sp)
    1368:	7274                	ld	a3,224(a2)
    136a:	0100                	addi	s0,sp,128
    136c:	01d9                	addi	gp,gp,22
    136e:	00063017          	auipc	zero,0x63
    1372:	0000                	unimp
    1374:	0000                	unimp
    1376:	2700                	fld	fs0,8(a4)
    1378:	6572                	ld	a0,280(sp)
    137a:	db010073          	0xdb010073
    137e:	0801                	addi	a6,a6,0
    1380:	00000053          	fadd.s	ft0,ft0,ft0,rne
    1384:	0036                	c.slli	zero,0xd
    1386:	0000                	unimp
    1388:	0a28                	addi	a0,sp,280
    138a:	0002                	c.slli64	zero
    138c:	0100                	addi	s0,sp,128
    138e:	01dc                	addi	a5,sp,196
    1390:	00004507          	flq	fa0,0(zero) # 0 <_tbss_end>
    1394:	9300                	0x9300
    1396:	0000                	unimp
    1398:	0000                	unimp
    139a:	5e29                	li	t3,-22
    139c:	0005                	c.nop	1
    139e:	0900                	addi	s0,sp,144
    13a0:	0826                	slli	a6,a6,0x9
    13a2:	05fa                	slli	a1,a1,0x1e
    13a4:	0000                	unimp
    13a6:	15ce                	slli	a1,a1,0x33
    13a8:	8000                	0x8000
    13aa:	0000                	unimp
    13ac:	0000                	unimp
    13ae:	0012                	c.slli	zero,0x4
    13b0:	0000                	unimp
    13b2:	0000                	unimp
    13b4:	0000                	unimp
    13b6:	9c01                	subw	s0,s0,s0
    13b8:	00000a87          	0xa87
    13bc:	de2a                	sw	a0,60(sp)
    13be:	0006                	c.slli	zero,0x1
    13c0:	0100                	addi	s0,sp,128
    13c2:	01d1                	addi	gp,gp,20
    13c4:	fa14                	sd	a3,48(a2)
    13c6:	0005                	c.nop	1
    13c8:	0100                	addi	s0,sp,128
    13ca:	265a                	fld	fa2,400(sp)
    13cc:	00637273          	csrrci	tp,0x6,6
    13d0:	d101                	beqz	a0,12d0 <_tbss_end+0x12d0>
    13d2:	2601                	sext.w	a2,a2
    13d4:	0630                	addi	a2,sp,776
    13d6:	0000                	unimp
    13d8:	00dd                	addi	ra,ra,23
    13da:	0000                	unimp
    13dc:	01006427          	0x1006427
    13e0:	fa0901d3          	0xfa0901d3
    13e4:	0005                	c.nop	1
    13e6:	2800                	fld	fs0,16(s0)
    13e8:	0001                	nop
    13ea:	0000                	unimp
    13ec:	c529                	beqz	a0,1436 <_tbss_end+0x1436>
    13ee:	0005                	c.nop	1
    13f0:	0900                	addi	s0,sp,144
    13f2:	0624                	addi	s1,sp,776
    13f4:	0045                	c.nop	17
    13f6:	0000                	unimp
    13f8:	15b6                	slli	a1,a1,0x2d
    13fa:	8000                	0x8000
    13fc:	0000                	unimp
    13fe:	0000                	unimp
    1400:	0018                	0x18
    1402:	0000                	unimp
    1404:	0000                	unimp
    1406:	0000                	unimp
    1408:	9c01                	subw	s0,s0,s0
    140a:	0ae8                	addi	a0,sp,348
    140c:	0000                	unimp
    140e:	0031732b          	0x31732b
    1412:	c501                	beqz	a0,141a <_tbss_end+0x141a>
    1414:	1801                	addi	a6,a6,-32
    1416:	0630                	addi	a2,sp,776
    1418:	0000                	unimp
    141a:	f304                	sd	s1,32(a4)
    141c:	5a01                	li	s4,-32
    141e:	2b9f 3273 0100      	0x10032732b9f
    1424:	01c5                	addi	gp,gp,17
    1426:	3028                	fld	fa0,96(s0)
    1428:	0006                	c.slli	zero,0x1
    142a:	0400                	addi	s0,sp,512
    142c:	9f5b01f3          	0x9f5b01f3
    1430:	632c                	ld	a1,64(a4)
    1432:	0031                	c.nop	12
    1434:	c701                	beqz	a4,143c <_tbss_end+0x143c>
    1436:	1101                	addi	sp,sp,-32
    1438:	0030                	addi	a2,sp,8
    143a:	0000                	unimp
    143c:	5e01                	li	t3,-32
    143e:	632c                	ld	a1,64(a4)
    1440:	0032                	c.slli	zero,0xc
    1442:	c701                	beqz	a4,144a <_tbss_end+0x144a>
    1444:	1501                	addi	a0,a0,-32
    1446:	0030                	addi	a2,sp,8
    1448:	0000                	unimp
    144a:	5f01                	li	t5,-32
    144c:	2900                	fld	fs0,16(a0)
    144e:	050d                	addi	a0,a0,3
    1450:	0000                	unimp
    1452:	7709                	lui	a4,0xfffe2
    1454:	9b09                	andi	a4,a4,-30
    1456:	0000                	unimp
    1458:	a400                	fsd	fs0,8(s0)
    145a:	0012                	c.slli	zero,0x4
    145c:	0080                	addi	s0,sp,64
    145e:	0000                	unimp
    1460:	1a00                	addi	s0,sp,304
    1462:	0000                	unimp
    1464:	0000                	unimp
    1466:	0000                	unimp
    1468:	0100                	addi	s0,sp,128
    146a:	389c                	fld	fa5,48(s1)
    146c:	2600000b          	0x2600000b
    1470:	bd010073          	0xbd010073
    1474:	1c01                	addi	s8,s8,-32
    1476:	0630                	addi	a2,sp,776
    1478:	0000                	unimp
    147a:	00000173          	0x173
    147e:	6e26                	ld	t3,72(sp)
    1480:	0100                	addi	s0,sp,128
    1482:	01bd                	addi	gp,gp,15
    1484:	9b26                	add	s6,s6,s1
    1486:	0000                	unimp
    1488:	ac00                	fsd	fs0,24(s0)
    148a:	0001                	nop
    148c:	2700                	fld	fs0,8(a4)
    148e:	0070                	addi	a2,sp,12
    1490:	bf01                	j	13a0 <_tbss_end+0x13a0>
    1492:	0f01                	addi	t5,t5,0
    1494:	0630                	addi	a2,sp,776
    1496:	0000                	unimp
    1498:	01e2                	slli	gp,gp,0x18
    149a:	0000                	unimp
    149c:	2900                	fld	fs0,16(a0)
    149e:	0500                	addi	s0,sp,640
    14a0:	0000                	unimp
    14a2:	2909                	addiw	s2,s2,2
    14a4:	9b09                	andi	a4,a4,-30
    14a6:	0000                	unimp
    14a8:	1400                	addi	s0,sp,544
    14aa:	0012                	c.slli	zero,0x4
    14ac:	0080                	addi	s0,sp,64
    14ae:	0000                	unimp
    14b0:	1200                	addi	s0,sp,288
    14b2:	0000                	unimp
    14b4:	0000                	unimp
    14b6:	0000                	unimp
    14b8:	0100                	addi	s0,sp,128
    14ba:	799c                	ld	a5,48(a1)
    14bc:	2600000b          	0x2600000b
    14c0:	b5010073          	0xb5010073
    14c4:	1b01                	addi	s6,s6,-32
    14c6:	0630                	addi	a2,sp,776
    14c8:	0000                	unimp
    14ca:	0218                	addi	a4,sp,256
    14cc:	0000                	unimp
    14ce:	01007027          	0x1007027
    14d2:	300f01b7          	lui	gp,0x300f0
    14d6:	0006                	c.slli	zero,0x1
    14d8:	5100                	lw	s0,32(a0)
    14da:	0002                	c.slli64	zero
    14dc:	0000                	unimp
    14de:	d729                	beqz	a4,1428 <_tbss_end+0x1428>
    14e0:	0005                	c.nop	1
    14e2:	0900                	addi	s0,sp,144
    14e4:	0921                	addi	s2,s2,8
    14e6:	0141                	addi	sp,sp,16
    14e8:	0000                	unimp
    14ea:	11d0                	addi	a2,sp,228
    14ec:	8000                	0x8000
    14ee:	0000                	unimp
    14f0:	0000                	unimp
    14f2:	0044                	addi	s1,sp,4
    14f4:	0000                	unimp
    14f6:	0000                	unimp
    14f8:	0000                	unimp
    14fa:	9c01                	subw	s0,s0,s0
    14fc:	0c22                	slli	s8,s8,0x8
    14fe:	0000                	unimp
    1500:	de2a                	sw	a0,60(sp)
    1502:	0006                	c.slli	zero,0x1
    1504:	0100                	addi	s0,sp,128
    1506:	01a2                	slli	gp,gp,0x8
    1508:	4114                	lw	a3,0(a0)
    150a:	0001                	nop
    150c:	0100                	addi	s0,sp,128
    150e:	2d5a                	fld	fs10,400(sp)
    1510:	067f                	0x67f
    1512:	0000                	unimp
    1514:	a201                	j	1614 <_tbss_end+0x1614>
    1516:	1e01                	addi	t3,t3,-32
    1518:	0045                	c.nop	17
    151a:	0000                	unimp
    151c:	00000287          	0x287
    1520:	6e656c2b          	0x6e656c2b
    1524:	0100                	addi	s0,sp,128
    1526:	01a2                	slli	gp,gp,0x8
    1528:	00009b2b          	0x9b2b
    152c:	0100                	addi	s0,sp,128
    152e:	2e5c                	fld	fa5,152(a2)
    1530:	11d8                	addi	a4,sp,228
    1532:	8000                	0x8000
    1534:	0000                	unimp
    1536:	0000                	unimp
    1538:	0028                	addi	a0,sp,8
    153a:	0000                	unimp
    153c:	0000                	unimp
    153e:	0000                	unimp
    1540:	0c00                	addi	s0,sp,528
    1542:	0000                	unimp
    1544:	6728                	ld	a0,72(a4)
    1546:	0006                	c.slli	zero,0x1
    1548:	0100                	addi	s0,sp,128
    154a:	01a5                	addi	gp,gp,9
    154c:	00008a0f          	0x8a0f
    1550:	d300                	sw	s0,32(a4)
    1552:	0002                	c.slli64	zero
    1554:	2700                	fld	fs0,8(a4)
    1556:	0064                	addi	s1,sp,12
    1558:	aa01                	j	1668 <_tbss_end+0x1668>
    155a:	1001                	c.nop	-32
    155c:	0c22                	slli	s8,s8,0x8
    155e:	0000                	unimp
    1560:	031c                	addi	a5,sp,384
    1562:	0000                	unimp
    1564:	2f00                	fld	fs0,24(a4)
    1566:	1200                	addi	s0,sp,288
    1568:	8000                	0x8000
    156a:	0000                	unimp
    156c:	0000                	unimp
    156e:	0012                	c.slli	zero,0x4
    1570:	0000                	unimp
    1572:	0000                	unimp
    1574:	0000                	unimp
    1576:	01006427          	0x1006427
    157a:	01ae                	slli	gp,gp,0xb
    157c:	0005fa0b          	0x5fa0b
    1580:	7a00                	ld	s0,48(a2)
    1582:	00000003          	lb	zero,0(zero) # 0 <_tbss_end>
    1586:	1200                	addi	s0,sp,288
    1588:	8a08                	0x8a08
    158a:	0000                	unimp
    158c:	2900                	fld	fs0,16(a0)
    158e:	06b1                	addi	a3,a3,12
    1590:	0000                	unimp
    1592:	1f09                	addi	t5,t5,-30
    1594:	4109                	li	sp,2
    1596:	0001                	nop
    1598:	9600                	0x9600
    159a:	0011                	c.nop	4
    159c:	0080                	addi	s0,sp,64
    159e:	0000                	unimp
    15a0:	3a00                	fld	fs0,48(a2)
    15a2:	0000                	unimp
    15a4:	0000                	unimp
    15a6:	0000                	unimp
    15a8:	0100                	addi	s0,sp,128
    15aa:	de9c                	sw	a5,56(a3)
    15ac:	000c                	0xc
    15ae:	2a00                	fld	fs0,16(a2)
    15b0:	06de                	slli	a3,a3,0x17
    15b2:	0000                	unimp
    15b4:	9201                	srli	a2,a2,0x20
    15b6:	1401                	addi	s0,s0,-32
    15b8:	0141                	addi	sp,sp,16
    15ba:	0000                	unimp
    15bc:	5a01                	li	s4,-32
    15be:	7326                	ld	t1,104(sp)
    15c0:	6372                	ld	t1,280(sp)
    15c2:	0100                	addi	s0,sp,128
    15c4:	0192                	slli	gp,gp,0x4
    15c6:	de26                	sw	s1,60(sp)
    15c8:	000c                	0xc
    15ca:	c500                	sw	s0,8(a0)
    15cc:	2b000003          	lb	zero,688(zero) # 2b0 <_tbss_end+0x2b0>
    15d0:	656c                	ld	a1,200(a0)
    15d2:	006e                	c.slli	zero,0x1b
    15d4:	9201                	srli	a2,a2,0x20
    15d6:	3201                	addiw	tp,tp,-32
    15d8:	0000009b          	sext.w	ra,zero
    15dc:	5c01                	li	s8,-32
    15de:	b82e                	fsd	fa1,48(sp)
    15e0:	0011                	c.nop	4
    15e2:	0080                	addi	s0,sp,64
    15e4:	0000                	unimp
    15e6:	1600                	addi	s0,sp,800
    15e8:	0000                	unimp
    15ea:	0000                	unimp
    15ec:	0000                	unimp
    15ee:	ad00                	fsd	fs0,24(a0)
    15f0:	000c                	0xc
    15f2:	2700                	fld	fs0,8(a4)
    15f4:	95010073          	0x95010073
    15f8:	1601                	addi	a2,a2,-32
    15fa:	0ce5                	addi	s9,s9,25
    15fc:	0000                	unimp
    15fe:	00000427          	0x427
    1602:	01006427          	0x1006427
    1606:	0196                	slli	gp,gp,0x5
    1608:	2210                	fld	fa2,0(a2)
    160a:	000c                	0xc
    160c:	7200                	ld	s0,32(a2)
    160e:	0004                	0x4
    1610:	0000                	unimp
    1612:	0011a02f          	amoadd.w	zero,ra,(gp)
    1616:	0080                	addi	s0,sp,64
    1618:	0000                	unimp
    161a:	1800                	addi	s0,sp,48
    161c:	0000                	unimp
    161e:	0000                	unimp
    1620:	0000                	unimp
    1622:	2700                	fld	fs0,8(a4)
    1624:	9a010073          	0x9a010073
    1628:	1101                	addi	sp,sp,-32
    162a:	0630                	addi	a2,sp,776
    162c:	0000                	unimp
    162e:	04bd                	addi	s1,s1,15
    1630:	0000                	unimp
    1632:	01006427          	0x1006427
    1636:	fa0b019b          	addiw	gp,s6,-96
    163a:	0005                	c.nop	1
    163c:	1b00                	addi	s0,sp,432
    163e:	0005                	c.nop	1
    1640:	0000                	unimp
    1642:	1200                	addi	s0,sp,288
    1644:	e408                	sd	a0,8(s0)
    1646:	000c                	0xc
    1648:	3000                	fld	fs0,32(s0)
    164a:	0812                	slli	a6,a6,0x4
    164c:	0096                	slli	ra,ra,0x5
    164e:	0000                	unimp
    1650:	2929                	addiw	s2,s2,10
    1652:	0006                	c.slli	zero,0x1
    1654:	0a00                	addi	s0,sp,272
    1656:	05f4                	addi	a3,sp,716
    1658:	0045                	c.nop	17
    165a:	0000                	unimp
    165c:	157a                	slli	a0,a0,0x3e
    165e:	8000                	0x8000
    1660:	0000                	unimp
    1662:	0000                	unimp
    1664:	003c                	addi	a5,sp,8
    1666:	0000                	unimp
    1668:	0000                	unimp
    166a:	0000                	unimp
    166c:	9c01                	subw	s0,s0,s0
    166e:	0dcd                	addi	s11,s11,19
    1670:	0000                	unimp
    1672:	7326                	ld	t1,104(sp)
    1674:	7274                	ld	a3,224(a2)
    1676:	0100                	addi	s0,sp,128
    1678:	017e                	slli	sp,sp,0x1f
    167a:	0005fa13          	andi	s4,a1,0
    167e:	7900                	ld	s0,48(a0)
    1680:	0005                	c.nop	1
    1682:	2600                	fld	fs0,8(a2)
    1684:	6d66                	ld	s10,88(sp)
    1686:	0074                	addi	a3,sp,12
    1688:	7e01                	lui	t3,0xfffe0
    168a:	2401                	sext.w	s0,s0
    168c:	0630                	addi	a2,sp,776
    168e:	0000                	unimp
    1690:	000005af          	0x5af
    1694:	2c31                	addiw	s8,s8,12
    1696:	7061                	c.lui	zero,0xffff8
    1698:	0100                	addi	s0,sp,128
    169a:	0180                	addi	s0,sp,192
    169c:	00096e0b          	0x96e0b
    16a0:	0300                	addi	s0,sp,384
    16a2:	b891                	j	ef6 <_tbss_end+0xef6>
    16a4:	287f                	0x287f
    16a6:	0595                	addi	a1,a1,5
    16a8:	0000                	unimp
    16aa:	8101                	c.srli64	a0
    16ac:	0901                	addi	s2,s2,0
    16ae:	05fa                	slli	a1,a1,0x1e
    16b0:	0000                	unimp
    16b2:	000005fb          	0x5fb
    16b6:	7132                	ld	sp,296(sp)
    16b8:	0006                	c.slli	zero,0x1
    16ba:	0100                	addi	s0,sp,128
    16bc:	0184                	addi	s1,sp,192
    16be:	d008                	sw	a0,32(s0)
    16c0:	0010                	0x10
    16c2:	0080                	addi	s0,sp,64
    16c4:	0000                	unimp
    16c6:	0e00                	addi	s0,sp,784
    16c8:	0000                	unimp
    16ca:	0000                	unimp
    16cc:	0000                	unimp
    16ce:	0100                	addi	s0,sp,128
    16d0:	9d9c                	0x9d9c
    16d2:	000d                	c.nop	3
    16d4:	2b00                	fld	fs0,16(a4)
    16d6:	01006863          	bltu	zero,a6,16e6 <_tbss_end+0x16e6>
    16da:	0184                	addi	s1,sp,192
    16dc:	451a                	lw	a0,132(sp)
    16de:	0000                	unimp
    16e0:	0100                	addi	s0,sp,128
    16e2:	2a5a                	fld	fs4,400(sp)
    16e4:	0026                	c.slli	zero,0x9
    16e6:	0000                	unimp
    16e8:	8401                	c.srai64	s0
    16ea:	2501                	sext.w	a0,a0
    16ec:	0dcd                	addi	s11,s11,19
    16ee:	0000                	unimp
    16f0:	5b01                	li	s6,-32
    16f2:	0005d233          	srl	tp,a1,zero
    16f6:	0100                	addi	s0,sp,128
    16f8:	0186                	slli	gp,gp,0x1
    16fa:	d30c                	sw	a1,32(a4)
    16fc:	000d                	c.nop	3
    16fe:	0100                	addi	s0,sp,128
    1700:	a434005b          	0xa434005b
    1704:	0015                	c.nop	5
    1706:	0080                	addi	s0,sp,64
    1708:	0000                	unimp
    170a:	4b00                	lw	s0,16(a4)
    170c:	000e                	c.slli	zero,0x3
    170e:	3500                	fld	fs0,40(a0)
    1710:	5a01                	li	s4,-32
    1712:	0309                	addi	t1,t1,2
    1714:	10d0                	addi	a2,sp,100
    1716:	8000                	0x8000
    1718:	0000                	unimp
    171a:	0000                	unimp
    171c:	0135                	addi	sp,sp,13
    171e:	a891035b          	0xa891035b
    1722:	357f                	0x357f
    1724:	5c01                	li	s8,-32
    1726:	5b01f303          	0x5b01f303
    172a:	0135                	addi	sp,sp,13
    172c:	025d                	addi	tp,tp,23
    172e:	5091                	li	ra,-28
    1730:	0000                	unimp
    1732:	0812                	slli	a6,a6,0x4
    1734:	0141                	addi	sp,sp,16
    1736:	0000                	unimp
    1738:	0812                	slli	a6,a6,0x4
    173a:	05fa                	slli	a1,a1,0x1e
    173c:	0000                	unimp
    173e:	6e29                	lui	t3,0xa
    1740:	0001                	nop
    1742:	0a00                	addi	s0,sp,272
    1744:	05c8                	addi	a0,sp,708
    1746:	0045                	c.nop	17
    1748:	0000                	unimp
    174a:	14e4                	addi	s1,sp,620
    174c:	8000                	0x8000
    174e:	0000                	unimp
    1750:	0000                	unimp
    1752:	002e                	c.slli	zero,0xb
    1754:	0000                	unimp
    1756:	0000                	unimp
    1758:	0000                	unimp
    175a:	9c01                	subw	s0,s0,s0
    175c:	00000e4b          	fnmsub.s	ft8,ft0,ft0,ft0,rne
    1760:	6626                	ld	a2,72(sp)
    1762:	746d                	lui	s0,0xffffb
    1764:	0100                	addi	s0,sp,128
    1766:	30180173          	0x30180173
    176a:	0006                	c.slli	zero,0x1
    176c:	4700                	lw	s0,8(a4)
    176e:	0006                	c.slli	zero,0x1
    1770:	3100                	fld	fs0,32(a0)
    1772:	612c                	ld	a1,64(a0)
    1774:	0070                	addi	a2,sp,12
    1776:	7501                	lui	a0,0xfffe0
    1778:	0b01                	addi	s6,s6,0
    177a:	096e                	slli	s2,s2,0x1b
    177c:	0000                	unimp
    177e:	7fa89103          	lh	sp,2042(a7)
    1782:	0a34                	addi	a3,sp,280
    1784:	0015                	c.nop	5
    1786:	0080                	addi	s0,sp,64
    1788:	0000                	unimp
    178a:	4b00                	lw	s0,16(a4)
    178c:	000e                	c.slli	zero,0x3
    178e:	3500                	fld	fs0,40(a0)
    1790:	5a01                	li	s4,-32
    1792:	0309                	addi	t1,t1,2
    1794:	1060                	addi	s0,sp,44
    1796:	8000                	0x8000
    1798:	0000                	unimp
    179a:	0000                	unimp
    179c:	0135                	addi	sp,sp,13
    179e:	3530015b          	0x3530015b
    17a2:	5c01                	li	s8,-32
    17a4:	5a01f303          	0x5a01f303
    17a8:	0135                	addi	sp,sp,13
    17aa:	025d                	addi	tp,tp,23
    17ac:	4891                	li	a7,4
    17ae:	0000                	unimp
    17b0:	e336                	sd	a3,384(sp)
    17b2:	0006                	c.slli	zero,0x1
    17b4:	0100                	addi	s0,sp,128
    17b6:	0ddc                	addi	a5,sp,724
    17b8:	12be                	slli	t0,t0,0x2f
    17ba:	8000                	0x8000
    17bc:	0000                	unimp
    17be:	0000                	unimp
    17c0:	0226                	slli	tp,tp,0x9
    17c2:	0000                	unimp
    17c4:	0000                	unimp
    17c6:	0000                	unimp
    17c8:	9c01                	subw	s0,s0,s0
    17ca:	115f 0000 7937      	0x79370000115f
    17d0:	0006                	c.slli	zero,0x1
    17d2:	0100                	addi	s0,sp,128
    17d4:	1edc                	addi	a5,sp,884
    17d6:	0000116f          	jal	sp,27d6 <_tbss_end+0x27d6>
    17da:	00000693          	li	a3,0
    17de:	00061237          	lui	tp,0x61
    17e2:	0100                	addi	s0,sp,128
    17e4:	3adc                	fld	fa5,176(a3)
    17e6:	0dcd                	addi	s11,s11,19
    17e8:	0000                	unimp
    17ea:	06df 0000 6638      	0x6638000006df
    17f0:	746d                	lui	s0,0xffffb
    17f2:	0100                	addi	s0,sp,128
    17f4:	4edc                	lw	a5,28(a3)
    17f6:	0630                	addi	a2,sp,776
    17f8:	0000                	unimp
    17fa:	0000072b          	0x72b
    17fe:	6138                	ld	a4,64(a0)
    1800:	0070                	addi	a2,sp,12
    1802:	dc01                	beqz	s0,171a <_tbss_end+0x171a>
    1804:	00096e5b          	0x96e5b
    1808:	c000                	sw	s0,0(s0)
    180a:	39000007          	0x39000007
    180e:	0070                	addi	a2,sp,12
    1810:	de01                	beqz	a2,1728 <_tbss_end+0x1728>
    1812:	3018                	fld	fa4,32(s0)
    1814:	0006                	c.slli	zero,0x1
    1816:	e300                	sd	s0,0(a4)
    1818:	3a000007          	0x3a000007
    181c:	000005b3          	add	a1,zero,zero
    1820:	df01                	beqz	a4,1738 <_tbss_end+0x1738>
    1822:	0006300f          	0x6300f
    1826:	1900                	addi	s0,sp,176
    1828:	0008                	0x8
    182a:	3900                	fld	fs0,48(a0)
    182c:	01006863          	bltu	zero,a6,183c <_tbss_end+0x183c>
    1830:	10e0                	addi	s0,sp,108
    1832:	0045                	c.nop	17
    1834:	0000                	unimp
    1836:	08ae                	slli	a7,a7,0xb
    1838:	0000                	unimp
    183a:	7272653b          	0x7272653b
    183e:	0100                	addi	s0,sp,128
    1840:	14e0                	addi	s0,sp,620
    1842:	0045                	c.nop	17
    1844:	0000                	unimp
    1846:	6e39                	lui	t3,0xe
    1848:	6d75                	lui	s10,0x1d
    184a:	0100                	addi	s0,sp,128
    184c:	16e1                	addi	a3,a3,-8
    184e:	085a                	slli	a6,a6,0x16
    1850:	0000                	unimp
    1852:	09ee                	slli	s3,s3,0x1b
    1854:	0000                	unimp
    1856:	7c3a                	ld	s8,424(sp)
    1858:	0001                	nop
    185a:	0100                	addi	s0,sp,128
    185c:	07e2                	slli	a5,a5,0x18
    185e:	0045                	c.nop	17
    1860:	0000                	unimp
    1862:	0a4a                	slli	s4,s4,0x12
    1864:	0000                	unimp
    1866:	cc3a                	sw	a4,24(sp)
    1868:	0005                	c.nop	1
    186a:	0100                	addi	s0,sp,128
    186c:	0de2                	slli	s11,s11,0x18
    186e:	0045                	c.nop	17
    1870:	0000                	unimp
    1872:	0aa8                	addi	a0,sp,344
    1874:	0000                	unimp
    1876:	8f3a                	mv	t5,a4
    1878:	0005                	c.nop	1
    187a:	0100                	addi	s0,sp,128
    187c:	14e2                	slli	s1,s1,0x38
    187e:	0045                	c.nop	17
    1880:	0000                	unimp
    1882:	00000b8b          	0xb8b
    1886:	1d3a                	slli	s10,s10,0x2e
    1888:	0005                	c.nop	1
    188a:	0100                	addi	s0,sp,128
    188c:	1be2                	slli	s7,s7,0x38
    188e:	0045                	c.nop	17
    1890:	0000                	unimp
    1892:	00000c0f          	0xc0f
    1896:	513a                	lw	sp,172(sp)
    1898:	0006                	c.slli	zero,0x1
    189a:	0100                	addi	s0,sp,128
    189c:	26e2                	fld	fa3,24(sp)
    189e:	0045                	c.nop	17
    18a0:	0000                	unimp
    18a2:	00000ce3          	beqz	zero,20ba <_tbss_end+0x20ba>
    18a6:	8a3a                	mv	s4,a4
    18a8:	0005                	c.nop	1
    18aa:	0100                	addi	s0,sp,128
    18ac:	060008e3          	beqz	zero,211c <_tbss_end+0x211c>
    18b0:	0000                	unimp
    18b2:	00000d1b          	sext.w	s10,zero
    18b6:	bc3c                	fsd	fa5,120(s0)
    18b8:	0005                	c.nop	1
    18ba:	0100                	addi	s0,sp,128
    18bc:	03f5                	addi	t2,t2,29
    18be:	1394                	addi	a3,sp,480
    18c0:	8000                	0x8000
    18c2:	0000                	unimp
    18c4:	0000                	unimp
    18c6:	153d                	addi	a0,a0,-17
    18c8:	0005                	c.nop	1
    18ca:	0100                	addi	s0,sp,128
    18cc:	0121                	addi	sp,sp,8
    18ce:	7205                	lui	tp,0xfffe1
    18d0:	00800013          	li	zero,8
    18d4:	0000                	unimp
    18d6:	3d00                	fld	fs0,56(a0)
    18d8:	0604                	addi	s1,sp,768
    18da:	0000                	unimp
    18dc:	6101                	0x6101
    18de:	0501                	addi	a0,a0,0
    18e0:	143a                	slli	s0,s0,0x2e
    18e2:	8000                	0x8000
    18e4:	0000                	unimp
    18e6:	0000                	unimp
    18e8:	023d                	addi	tp,tp,15
    18ea:	0006                	c.slli	zero,0x1
    18ec:	0100                	addi	s0,sp,128
    18ee:	015f 3405 0014      	0x143405015f
    18f4:	0080                	addi	s0,sp,64
    18f6:	0000                	unimp
    18f8:	3e00                	fld	fs0,56(a2)
    18fa:	000011fb          	0x11fb
    18fe:	1440                	addi	s0,sp,548
    1900:	8000                	0x8000
	...
    190a:	6201                	0x6201
    190c:	0701                	addi	a4,a4,0
    190e:	1026                	c.slli	zero,0x29
    1910:	0000                	unimp
    1912:	0012443f 000d9f00 	0xd9f000012443f
    191a:	3f00                	fld	fs0,56(a4)
    191c:	1238                	addi	a4,sp,296
    191e:	0000                	unimp
    1920:	0dd5                	addi	s11,s11,21
    1922:	0000                	unimp
    1924:	00122c3f 000e2000 	0xe200000122c3f
    192c:	3f00                	fld	fs0,56(a4)
    192e:	1220                	addi	s0,sp,296
    1930:	0000                	unimp
    1932:	00000e43          	fmadd.s	ft8,ft0,ft0,ft0,rne
    1936:	0012143f 000e6600 	0xe66000012143f
    193e:	3f00                	fld	fs0,56(a4)
    1940:	1208                	addi	a0,sp,288
    1942:	0000                	unimp
    1944:	0e9c                	addi	a5,sp,848
    1946:	0000                	unimp
    1948:	0040                	addi	s0,sp,4
    194a:	0000                	unimp
    194c:	4100                	lw	s0,0(a0)
    194e:	1250                	addi	a2,sp,292
    1950:	0000                	unimp
    1952:	7dc09103          	lh	sp,2012(ra)
    1956:	5c42                	lw	s8,48(sp)
    1958:	0012                	c.slli	zero,0x4
    195a:	d200                	sw	s0,32(a2)
    195c:	000e                	c.slli	zero,0x3
    195e:	4300                	lw	s0,0(a4)
    1960:	148e                	slli	s1,s1,0x23
    1962:	8000                	0x8000
    1964:	0000                	unimp
    1966:	0000                	unimp
    1968:	1014                	addi	a3,sp,32
    196a:	0000                	unimp
    196c:	0135                	addi	sp,sp,13
    196e:	025a                	slli	tp,tp,0x16
    1970:	0085                	addi	ra,ra,1
    1972:	0135                	addi	sp,sp,13
    1974:	0079025b          	0x79025b
    1978:	4400                	lw	s0,8(s0)
    197a:	149c                	addi	a5,sp,608
    197c:	8000                	0x8000
    197e:	0000                	unimp
    1980:	0000                	unimp
    1982:	0135                	addi	sp,sp,13
    1984:	0079025b          	0x79025b
    1988:	0000                	unimp
    198a:	4300                	lw	s0,0(a4)
    198c:	12ee                	slli	t0,t0,0x3b
    198e:	8000                	0x8000
    1990:	0000                	unimp
    1992:	0000                	unimp
    1994:	103a                	c.slli	zero,0x2e
    1996:	0000                	unimp
    1998:	0135                	addi	sp,sp,13
    199a:	0079025b          	0x79025b
    199e:	4300                	lw	s0,0(a4)
    19a0:	13a4                	addi	s1,sp,488
    19a2:	8000                	0x8000
    19a4:	0000                	unimp
    19a6:	0000                	unimp
    19a8:	104e                	c.slli	zero,0x33
    19aa:	0000                	unimp
    19ac:	0135                	addi	sp,sp,13
    19ae:	0079025b          	0x79025b
    19b2:	4500                	lw	s0,8(a0)
    19b4:	13ca                	slli	t2,t2,0x32
    19b6:	8000                	0x8000
    19b8:	0000                	unimp
    19ba:	0000                	unimp
    19bc:	0ae8                	addi	a0,sp,348
    19be:	0000                	unimp
    19c0:	106c                	addi	a1,sp,44
    19c2:	0000                	unimp
    19c4:	0135                	addi	sp,sp,13
    19c6:	025a                	slli	tp,tp,0x16
    19c8:	01350083          	lb	ra,19(a0) # fffffffffffe0013 <__global_pointer$+0xffffffff7ffddff7>
    19cc:	0086025b          	0x86025b
    19d0:	4300                	lw	s0,0(a4)
    19d2:	13e2                	slli	t2,t2,0x38
    19d4:	8000                	0x8000
    19d6:	0000                	unimp
    19d8:	0000                	unimp
    19da:	1086                	slli	ra,ra,0x21
    19dc:	0000                	unimp
    19de:	0135                	addi	sp,sp,13
    19e0:	025a                	slli	tp,tp,0x16
    19e2:	0085                	addi	ra,ra,1
    19e4:	0135                	addi	sp,sp,13
    19e6:	0079025b          	0x79025b
    19ea:	4300                	lw	s0,0(a4)
    19ec:	13ee                	slli	t2,t2,0x3b
    19ee:	8000                	0x8000
    19f0:	0000                	unimp
    19f2:	0000                	unimp
    19f4:	109a                	slli	ra,ra,0x26
    19f6:	0000                	unimp
    19f8:	0135                	addi	sp,sp,13
    19fa:	0079025b          	0x79025b
    19fe:	4300                	lw	s0,0(a4)
    1a00:	140c                	addi	a1,sp,544
    1a02:	8000                	0x8000
    1a04:	0000                	unimp
    1a06:	0000                	unimp
    1a08:	10b4                	addi	a3,sp,104
    1a0a:	0000                	unimp
    1a0c:	0135                	addi	sp,sp,13
    1a0e:	025a                	slli	tp,tp,0x16
    1a10:	2008                	fld	fa0,0(s0)
    1a12:	0135                	addi	sp,sp,13
    1a14:	0079025b          	0x79025b
    1a18:	4500                	lw	s0,8(a0)
    1a1a:	141a                	slli	s0,s0,0x26
    1a1c:	8000                	0x8000
    1a1e:	0000                	unimp
    1a20:	0000                	unimp
    1a22:	1175                	addi	sp,sp,-3
    1a24:	0000                	unimp
    1a26:	10cd                	addi	ra,ra,-13
    1a28:	0000                	unimp
    1a2a:	0135                	addi	sp,sp,13
    1a2c:	035a                	slli	t1,t1,0x16
    1a2e:	b891                	j	1282 <_tbss_end+0x1282>
    1a30:	007d                	c.nop	31
    1a32:	00142c43          	fmadd.s	fs8,fs0,ft1,ft0,rdn
    1a36:	0080                	addi	s0,sp,64
    1a38:	0000                	unimp
    1a3a:	e700                	sd	s0,8(a4)
    1a3c:	0010                	0x10
    1a3e:	3500                	fld	fs0,40(a0)
    1a40:	5a01                	li	s4,-32
    1a42:	0802                	c.slli64	a6
    1a44:	352d                	addiw	a0,a0,-21
    1a46:	5b01                	li	s6,-32
    1a48:	7902                	ld	s2,32(sp)
    1a4a:	0000                	unimp
    1a4c:	3a45                	addiw	s4,s4,-15
    1a4e:	0014                	0x14
    1a50:	0080                	addi	s0,sp,64
    1a52:	0000                	unimp
    1a54:	bb00                	fsd	fs0,48(a4)
    1a56:	0011                	c.nop	4
    1a58:	0000                	unimp
    1a5a:	0011                	c.nop	4
    1a5c:	3500                	fld	fs0,40(a0)
    1a5e:	5a01                	li	s4,-32
    1a60:	7db89103          	lh	sp,2011(a7)
    1a64:	4300                	lw	s0,0(a4)
    1a66:	146e                	slli	s0,s0,0x3b
    1a68:	8000                	0x8000
    1a6a:	0000                	unimp
    1a6c:	0000                	unimp
    1a6e:	111a                	slli	sp,sp,0x26
    1a70:	0000                	unimp
    1a72:	0135                	addi	sp,sp,13
    1a74:	025a                	slli	tp,tp,0x16
    1a76:	3008                	fld	fa0,32(s0)
    1a78:	0135                	addi	sp,sp,13
    1a7a:	0079025b          	0x79025b
    1a7e:	4300                	lw	s0,0(a4)
    1a80:	1476                	slli	s0,s0,0x3d
    1a82:	8000                	0x8000
    1a84:	0000                	unimp
    1a86:	0000                	unimp
    1a88:	1134                	addi	a3,sp,168
    1a8a:	0000                	unimp
    1a8c:	0135                	addi	sp,sp,13
    1a8e:	025a                	slli	tp,tp,0x16
    1a90:	7808                	ld	a0,48(s0)
    1a92:	0135                	addi	sp,sp,13
    1a94:	0079025b          	0x79025b
    1a98:	4300                	lw	s0,0(a4)
    1a9a:	14c2                	slli	s1,s1,0x30
    1a9c:	8000                	0x8000
    1a9e:	0000                	unimp
    1aa0:	0000                	unimp
    1aa2:	1148                	addi	a0,sp,164
    1aa4:	0000                	unimp
    1aa6:	0135                	addi	sp,sp,13
    1aa8:	0079025b          	0x79025b
    1aac:	4400                	lw	s0,8(s0)
    1aae:	14cc                	addi	a1,sp,612
    1ab0:	8000                	0x8000
    1ab2:	0000                	unimp
    1ab4:	0000                	unimp
    1ab6:	0135                	addi	sp,sp,13
    1ab8:	025a                	slli	tp,tp,0x16
    1aba:	2508                	fld	fa0,8(a0)
    1abc:	0135                	addi	sp,sp,13
    1abe:	0079025b          	0x79025b
    1ac2:	0000                	unimp
    1ac4:	6f21                	lui	t5,0x8
    1ac6:	0011                	c.nop	4
    1ac8:	1700                	addi	s0,sp,928
    1aca:	0045                	c.nop	17
    1acc:	0000                	unimp
    1ace:	000dcd17          	auipc	s10,0xdc
    1ad2:	0000                	unimp
    1ad4:	0812                	slli	a6,a6,0x4
    1ad6:	115f 0000 fb46      	0xfb460000115f
    1adc:	0005                	c.nop	1
    1ade:	0100                	addi	s0,sp,128
    1ae0:	12d2                	slli	t0,t0,0x34
    1ae2:	00c0                	addi	s0,sp,68
    1ae4:	0000                	unimp
    1ae6:	10a4                	addi	s1,sp,104
    1ae8:	8000                	0x8000
    1aea:	0000                	unimp
    1aec:	0000                	unimp
    1aee:	002c                	addi	a1,sp,8
    1af0:	0000                	unimp
    1af2:	0000                	unimp
    1af4:	0000                	unimp
    1af6:	9c01                	subw	s0,s0,s0
    1af8:	11b5                	addi	gp,gp,-19
    1afa:	0000                	unimp
    1afc:	6138                	ld	a4,64(a0)
    1afe:	0070                	addi	a2,sp,12
    1b00:	d201                	beqz	a2,1a00 <_tbss_end+0x1a00>
    1b02:	b522                	fsd	fs0,168(sp)
    1b04:	0011                	c.nop	4
    1b06:	5b00                	lw	s0,48(a4)
    1b08:	4700000f          	0x4700000f
    1b0c:	05cc                	addi	a1,sp,708
    1b0e:	0000                	unimp
    1b10:	d201                	beqz	a2,1a10 <_tbss_end+0x1a10>
    1b12:	452a                	lw	a0,136(sp)
    1b14:	0000                	unimp
    1b16:	0100                	addi	s0,sp,128
    1b18:	0812005b          	0x812005b
    1b1c:	096e                	slli	s2,s2,0x1b
    1b1e:	0000                	unimp
    1b20:	2746                	fld	fa4,80(sp)
    1b22:	0005                	c.nop	1
    1b24:	0100                	addi	s0,sp,128
    1b26:	1bc8                	addi	a0,sp,500
    1b28:	085a                	slli	a6,a6,0x16
    1b2a:	0000                	unimp
    1b2c:	1076                	c.slli	zero,0x3d
    1b2e:	8000                	0x8000
    1b30:	0000                	unimp
    1b32:	0000                	unimp
    1b34:	002e                	c.slli	zero,0xb
    1b36:	0000                	unimp
    1b38:	0000                	unimp
    1b3a:	0000                	unimp
    1b3c:	9c01                	subw	s0,s0,s0
    1b3e:	000011fb          	0x11fb
    1b42:	6138                	ld	a4,64(a0)
    1b44:	0070                	addi	a2,sp,12
    1b46:	c801                	beqz	s0,1b56 <_tbss_end+0x1b56>
    1b48:	b52c                	fsd	fa1,104(a0)
    1b4a:	0011                	c.nop	4
    1b4c:	e600                	sd	s0,8(a2)
    1b4e:	4700000f          	0x4700000f
    1b52:	05cc                	addi	a1,sp,708
    1b54:	0000                	unimp
    1b56:	c801                	beqz	s0,1b66 <_tbss_end+0x1b66>
    1b58:	4534                	lw	a3,72(a0)
    1b5a:	0000                	unimp
    1b5c:	0100                	addi	s0,sp,128
    1b5e:	6548005b          	0x6548005b
    1b62:	0005                	c.nop	1
    1b64:	0100                	addi	s0,sp,128
    1b66:	690314b3          	0x690314b3
    1b6a:	0012                	c.slli	zero,0x4
    1b6c:	4900                	lw	s0,16(a0)
    1b6e:	0679                	addi	a2,a2,30
    1b70:	0000                	unimp
    1b72:	b301                	j	1872 <_tbss_end+0x1872>
    1b74:	6f24                	ld	s1,88(a4)
    1b76:	0011                	c.nop	4
    1b78:	4900                	lw	s0,16(a0)
    1b7a:	0612                	slli	a2,a2,0x4
    1b7c:	0000                	unimp
    1b7e:	b301                	j	187e <_tbss_end+0x187e>
    1b80:	cd40                	sw	s0,28(a0)
    1b82:	000d                	c.nop	3
    1b84:	4a00                	lw	s0,16(a2)
    1b86:	756e                	ld	a0,248(sp)
    1b88:	006d                	c.nop	27
    1b8a:	b401                	j	158a <_tbss_end+0x158a>
    1b8c:	5a28                	lw	a0,112(a2)
    1b8e:	0008                	0x8
    1b90:	4900                	lw	s0,16(a0)
    1b92:	017c                	addi	a5,sp,140
    1b94:	0000                	unimp
    1b96:	b401                	j	1596 <_tbss_end+0x1596>
    1b98:	4c36                	lw	s8,76(sp)
    1b9a:	0000                	unimp
    1b9c:	4900                	lw	s0,16(a0)
    1b9e:	0000058f          	0x58f
    1ba2:	b401                	j	15a2 <_tbss_end+0x15a2>
    1ba4:	4540                	lw	s0,12(a0)
    1ba6:	0000                	unimp
    1ba8:	4900                	lw	s0,16(a0)
    1baa:	058a                	slli	a1,a1,0x2
    1bac:	0000                	unimp
    1bae:	b401                	j	15ae <_tbss_end+0x15ae>
    1bb0:	0000454b          	fnmsub.s	fa0,ft0,ft0,ft0,rmm
    1bb4:	4b00                	lw	s0,16(a4)
    1bb6:	066c                	addi	a1,sp,780
    1bb8:	0000                	unimp
    1bba:	b601                	j	16ba <_tbss_end+0x16ba>
    1bbc:	690c                	ld	a1,16(a0)
    1bbe:	0012                	c.slli	zero,0x4
    1bc0:	3b00                	fld	fs0,48(a4)
    1bc2:	6f70                	ld	a2,216(a4)
    1bc4:	b7010073          	0xb7010073
    1bc8:	00004507          	flq	fa0,0(zero) # 0 <_tbss_end>
    1bcc:	0000                	unimp
    1bce:	4c0a                	lw	s8,128(sp)
    1bd0:	0000                	unimp
    1bd2:	7900                	ld	s0,48(a0)
    1bd4:	0012                	c.slli	zero,0x4
    1bd6:	0b00                	addi	s0,sp,400
    1bd8:	0066                	c.slli	zero,0x19
    1bda:	0000                	unimp
    1bdc:	844c003f 01000006 	0x1000006844c003f
    1be4:	06a5                	addi	a3,a3,9
    1be6:	1260                	addi	s0,sp,300
    1be8:	8000                	0x8000
    1bea:	0000                	unimp
    1bec:	0000                	unimp
    1bee:	0044                	addi	s1,sp,4
    1bf0:	0000                	unimp
    1bf2:	0000                	unimp
    1bf4:	0000                	unimp
    1bf6:	9c01                	subw	s0,s0,s0
    1bf8:	000012d7          	0x12d7
    1bfc:	7838                	ld	a4,112(s0)
    1bfe:	0100                	addi	s0,sp,128
    1c00:	18a5                	addi	a7,a7,-23
    1c02:	0079                	c.nop	30
    1c04:	0000                	unimp
    1c06:	1071                	c.nop	-4
    1c08:	0000                	unimp
    1c0a:	734d                	lui	t1,0xffff3
    1c0c:	7274                	ld	a3,224(a2)
    1c0e:	0100                	addi	s0,sp,128
    1c10:	12d708a7          	0x12d708a7
    1c14:	0000                	unimp
    1c16:	9102                	jalr	sp
    1c18:	3958                	fld	fa4,176(a0)
    1c1a:	0069                	c.nop	26
    1c1c:	a801                	j	1c2c <_tbss_end+0x1c2c>
    1c1e:	00004507          	flq	fa0,0(zero) # 0 <_tbss_end>
    1c22:	a700                	fsd	fs0,8(a4)
    1c24:	0010                	0x10
    1c26:	3400                	fld	fs0,40(s0)
    1c28:	129e                	slli	t0,t0,0x27
    1c2a:	8000                	0x8000
    1c2c:	0000                	unimp
    1c2e:	0000                	unimp
    1c30:	14ac                	addi	a1,sp,616
    1c32:	0000                	unimp
    1c34:	0135                	addi	sp,sp,13
    1c36:	025a                	slli	tp,tp,0x16
    1c38:	5891                	li	a7,-28
    1c3a:	0000                	unimp
    1c3c:	000a                	c.slli	zero,0x2
    1c3e:	0006                	c.slli	zero,0x1
    1c40:	e700                	sd	s0,8(a4)
    1c42:	0012                	c.slli	zero,0x4
    1c44:	0b00                	addi	s0,sp,400
    1c46:	0066                	c.slli	zero,0x19
    1c48:	0000                	unimp
    1c4a:	0010                	0x10
    1c4c:	ed4c                	sd	a1,152(a0)
    1c4e:	0005                	c.nop	1
    1c50:	0100                	addi	s0,sp,128
    1c52:	0696                	slli	a3,a3,0x5
    1c54:	152a                	slli	a0,a0,0x2a
    1c56:	8000                	0x8000
    1c58:	0000                	unimp
    1c5a:	0000                	unimp
    1c5c:	0050                	addi	a2,sp,4
    1c5e:	0000                	unimp
    1c60:	0000                	unimp
    1c62:	0000                	unimp
    1c64:	9c01                	subw	s0,s0,s0
    1c66:	13c2                	slli	t2,t2,0x30
    1c68:	0000                	unimp
    1c6a:	6338                	ld	a4,64(a4)
    1c6c:	6469                	lui	s0,0x1a
    1c6e:	0100                	addi	s0,sp,128
    1c70:	1096                	slli	ra,ra,0x25
    1c72:	0045                	c.nop	17
    1c74:	0000                	unimp
    1c76:	10de                	slli	ra,ra,0x37
    1c78:	0000                	unimp
    1c7a:	6e38                	ld	a4,88(a2)
    1c7c:	96010063          	beqz	sp,ddc <_tbss_end+0xddc>
    1c80:	4519                	li	a0,6
    1c82:	0000                	unimp
    1c84:	1700                	addi	s0,sp,928
    1c86:	0011                	c.nop	4
    1c88:	4d00                	lw	s0,24(a0)
    1c8a:	6572                	ld	a0,280(sp)
    1c8c:	0074                	addi	a3,sp,12
    1c8e:	9901                	andi	a0,a0,-32
    1c90:	00004507          	flq	fa0,0(zero) # 0 <_tbss_end>
    1c94:	0100                	addi	s0,sp,128
    1c96:	4e59                	li	t3,22
    1c98:	7562                	ld	a0,56(sp)
    1c9a:	0066                	c.slli	zero,0x19
    1c9c:	9b01                	andi	a4,a4,-32
    1c9e:	c208                	sw	a0,0(a2)
    1ca0:	40000013          	li	zero,1024
    1ca4:	00068d23          	sb	zero,26(a3)
    1ca8:	0100                	addi	s0,sp,128
    1caa:	099c                	addi	a5,sp,208
    1cac:	05fa                	slli	a1,a1,0x1e
    1cae:	0000                	unimp
    1cb0:	f206                	sd	ra,288(sp)
    1cb2:	00001c97          	auipc	s9,0x1
    1cb6:	2e00                	fld	fs0,24(a2)
    1cb8:	153c                	addi	a5,sp,680
    1cba:	8000                	0x8000
    1cbc:	0000                	unimp
    1cbe:	0000                	unimp
    1cc0:	0038                	addi	a4,sp,8
    1cc2:	0000                	unimp
    1cc4:	0000                	unimp
    1cc6:	0000                	unimp
    1cc8:	1391                	addi	t2,t2,-28
    1cca:	0000                	unimp
    1ccc:	6939                	lui	s2,0xe
    1cce:	0100                	addi	s0,sp,128
    1cd0:	0c9d                	addi	s9,s9,7
    1cd2:	0045                	c.nop	17
    1cd4:	0000                	unimp
    1cd6:	1150                	addi	a2,sp,164
    1cd8:	0000                	unimp
    1cda:	5834                	lw	a3,112(s0)
    1cdc:	0015                	c.nop	5
    1cde:	0080                	addi	s0,sp,64
    1ce0:	0000                	unimp
    1ce2:	d900                	sw	s0,48(a0)
    1ce4:	000d                	c.nop	3
    1ce6:	3500                	fld	fs0,40(a0)
    1ce8:	5a01                	li	s4,-32
    1cea:	0309                	addi	t1,t1,2
    1cec:	16b8                	addi	a4,sp,872
    1cee:	8000                	0x8000
    1cf0:	0000                	unimp
    1cf2:	0000                	unimp
    1cf4:	0000                	unimp
    1cf6:	3a45                	addiw	s4,s4,-15
    1cf8:	0015                	c.nop	5
    1cfa:	0080                	addi	s0,sp,64
    1cfc:	0000                	unimp
    1cfe:	1400                	addi	s0,sp,544
    1d00:	0014                	0x14
    1d02:	ad00                	fsd	fs0,24(a0)
    1d04:	35000013          	li	zero,848
    1d08:	5a01                	li	s4,-32
    1d0a:	3001                	0x3001
    1d0c:	0135                	addi	sp,sp,13
    1d0e:	0030015b          	0x30015b
    1d12:	7a34                	ld	a3,112(a2)
    1d14:	0015                	c.nop	5
    1d16:	0080                	addi	s0,sp,64
    1d18:	0000                	unimp
    1d1a:	8e00                	0x8e00
    1d1c:	0016                	c.slli	zero,0x5
    1d1e:	3500                	fld	fs0,40(a0)
    1d20:	5a01                	li	s4,-32
    1d22:	7902                	ld	s2,32(sp)
    1d24:	0000                	unimp
    1d26:	0a00                	addi	s0,sp,272
    1d28:	0600                	addi	s0,sp,768
    1d2a:	0000                	unimp
    1d2c:	13d2                	slli	t2,t2,0x34
    1d2e:	0000                	unimp
    1d30:	0000660b          	0x660b
    1d34:	3f00                	fld	fs0,56(a4)
    1d36:	2900                	fld	fs0,16(a0)
    1d38:	0000052f          	0x52f
    1d3c:	dc0a                	sw	sp,56(sp)
    1d3e:	4505                	li	a0,1
    1d40:	0000                	unimp
    1d42:	6000                	ld	s0,0(s0)
    1d44:	0010                	0x10
    1d46:	0080                	addi	s0,sp,64
    1d48:	0000                	unimp
    1d4a:	1600                	addi	s0,sp,800
    1d4c:	0000                	unimp
    1d4e:	0000                	unimp
    1d50:	0000                	unimp
    1d52:	0100                	addi	s0,sp,128
    1d54:	149c                	addi	a5,sp,608
    1d56:	0014                	0x14
    1d58:	3800                	fld	fs0,48(s0)
    1d5a:	01006863          	bltu	zero,a6,1d6a <_tbss_end+0x1d6a>
    1d5e:	1175                	addi	sp,sp,-3
    1d60:	0045                	c.nop	17
    1d62:	0000                	unimp
    1d64:	00001187          	0x1187
    1d68:	614d                	addi	sp,sp,176
    1d6a:	0030                	addi	a2,sp,8
    1d6c:	7701                	lui	a4,0xfffe0
    1d6e:	0011                	c.nop	4
    1d70:	0006                	c.slli	zero,0x1
    1d72:	0400                	addi	s0,sp,512
    1d74:	9f5a01f3          	0x9f5a01f3
    1d78:	2900                	fld	fs0,16(a0)
    1d7a:	04ea                	slli	s1,s1,0x1a
    1d7c:	0000                	unimp
    1d7e:	6c01                	0x6c01
    1d80:	0000451b          	0x451b
    1d84:	4800                	lw	s0,16(s0)
    1d86:	0012                	c.slli	zero,0x4
    1d88:	0080                	addi	s0,sp,64
    1d8a:	0000                	unimp
    1d8c:	1800                	addi	s0,sp,48
    1d8e:	0000                	unimp
    1d90:	0000                	unimp
    1d92:	0000                	unimp
    1d94:	0100                	addi	s0,sp,128
    1d96:	729c                	ld	a5,32(a3)
    1d98:	0014                	0x14
    1d9a:	3700                	fld	fs0,40(a4)
    1d9c:	0619                	addi	a2,a2,6
    1d9e:	0000                	unimp
    1da0:	6c01                	0x6c01
    1da2:	4524                	lw	s1,72(a0)
    1da4:	0000                	unimp
    1da6:	c000                	sw	s0,0(s0)
    1da8:	0011                	c.nop	4
    1daa:	3700                	fld	fs0,40(a4)
    1dac:	0624                	addi	s1,sp,776
    1dae:	0000                	unimp
    1db0:	6c01                	0x6c01
    1db2:	d331                	beqz	a4,1cf6 <_tbss_end+0x1cf6>
    1db4:	000d                	c.nop	3
    1db6:	f900                	sd	s0,48(a0)
    1db8:	0011                	c.nop	4
    1dba:	3400                	fld	fs0,40(s0)
    1dbc:	1258                	addi	a4,sp,292
    1dbe:	8000                	0x8000
    1dc0:	0000                	unimp
    1dc2:	0000                	unimp
    1dc4:	14ac                	addi	a1,sp,616
    1dc6:	0000                	unimp
    1dc8:	0135                	addi	sp,sp,13
    1dca:	095a                	slli	s2,s2,0x16
    1dcc:	00166003          	lwu	zero,1(a2)
    1dd0:	0080                	addi	s0,sp,64
    1dd2:	0000                	unimp
    1dd4:	0000                	unimp
    1dd6:	4c00                	lw	s0,24(s0)
    1dd8:	0551                	addi	a0,a0,20
    1dda:	0000                	unimp
    1ddc:	6501                	0x6501
    1dde:	921c                	0x921c
    1de0:	0011                	c.nop	4
    1de2:	0080                	addi	s0,sp,64
    1de4:	0000                	unimp
    1de6:	0400                	addi	s0,sp,512
    1de8:	0000                	unimp
    1dea:	0000                	unimp
    1dec:	0000                	unimp
    1dee:	0100                	addi	s0,sp,128
    1df0:	ac9c                	fsd	fa5,24(s1)
    1df2:	0014                	0x14
    1df4:	4f00                	lw	s0,24(a4)
    1df6:	00646963          	bltu	s0,t1,1e08 <_tbss_end+0x1e08>
    1dfa:	6501                	0x6501
    1dfc:	452d                	li	a0,11
    1dfe:	0000                	unimp
    1e00:	0100                	addi	s0,sp,128
    1e02:	4f5a                	lw	t5,148(sp)
    1e04:	636e                	ld	t1,216(sp)
    1e06:	0100                	addi	s0,sp,128
    1e08:	3665                	addiw	a2,a2,-7
    1e0a:	0045                	c.nop	17
    1e0c:	0000                	unimp
    1e0e:	5b01                	li	s6,-32
    1e10:	4c00                	lw	s0,24(s0)
    1e12:	053c                	addi	a5,sp,648
    1e14:	0000                	unimp
    1e16:	6001                	0x6001
    1e18:	2606                	fld	fa2,64(sp)
    1e1a:	0012                	c.slli	zero,0x4
    1e1c:	0080                	addi	s0,sp,64
    1e1e:	0000                	unimp
    1e20:	2200                	fld	fs0,0(a2)
    1e22:	0000                	unimp
    1e24:	0000                	unimp
    1e26:	0000                	unimp
    1e28:	0100                	addi	s0,sp,128
    1e2a:	109c                	addi	a5,sp,96
    1e2c:	0015                	c.nop	5
    1e2e:	3800                	fld	fs0,48(s0)
    1e30:	60010073          	0x60010073
    1e34:	0006301b          	0x6301b
    1e38:	3200                	fld	fs0,32(a2)
    1e3a:	0012                	c.slli	zero,0x4
    1e3c:	4500                	lw	s0,8(a0)
    1e3e:	1232                	slli	tp,tp,0x2c
    1e40:	8000                	0x8000
    1e42:	0000                	unimp
    1e44:	0000                	unimp
    1e46:	0b38                	addi	a4,sp,408
    1e48:	0000                	unimp
    1e4a:	14f0                	addi	a2,sp,620
    1e4c:	0000                	unimp
    1e4e:	0135                	addi	sp,sp,13
    1e50:	025a                	slli	tp,tp,0x16
    1e52:	0078                	addi	a4,sp,12
    1e54:	3400                	fld	fs0,40(s0)
    1e56:	1240                	addi	s0,sp,292
    1e58:	8000                	0x8000
    1e5a:	0000                	unimp
    1e5c:	0000                	unimp
    1e5e:	16d5                	addi	a3,a3,-11
    1e60:	0000                	unimp
    1e62:	0135                	addi	sp,sp,13
    1e64:	025a                	slli	tp,tp,0x16
    1e66:	4008                	lw	a0,0(s0)
    1e68:	0135                	addi	sp,sp,13
    1e6a:	3531015b          	0x3531015b
    1e6e:	5c01                	li	s8,-32
    1e70:	7802                	ld	a6,32(sp)
    1e72:	0000                	unimp
    1e74:	5000                	lw	s0,32(s0)
    1e76:	0575                	addi	a0,a0,29
    1e78:	0000                	unimp
    1e7a:	5b01                	li	s6,-32
    1e7c:	8a06                	mv	s4,ra
    1e7e:	0011                	c.nop	4
    1e80:	0080                	addi	s0,sp,64
    1e82:	0000                	unimp
    1e84:	0800                	addi	s0,sp,16
    1e86:	0000                	unimp
    1e88:	0000                	unimp
    1e8a:	0000                	unimp
    1e8c:	0100                	addi	s0,sp,128
    1e8e:	3c9c                	fld	fa5,56(s1)
    1e90:	0015                	c.nop	5
    1e92:	5100                	lw	s0,32(a0)
    1e94:	1192                	slli	gp,gp,0x24
    1e96:	8000                	0x8000
    1e98:	0000                	unimp
    1e9a:	0000                	unimp
    1e9c:	168e                	slli	a3,a3,0x23
    1e9e:	0000                	unimp
    1ea0:	2900                	fld	fs0,16(a0)
    1ea2:	0545                	addi	a0,a0,17
    1ea4:	0000                	unimp
    1ea6:	5501                	li	a0,-32
    1ea8:	8a21                	andi	a2,a2,8
    1eaa:	0000                	unimp
    1eac:	1200                	addi	s0,sp,288
    1eae:	0015                	c.nop	5
    1eb0:	0080                	addi	s0,sp,64
    1eb2:	0000                	unimp
    1eb4:	1800                	addi	s0,sp,48
    1eb6:	0000                	unimp
    1eb8:	0000                	unimp
    1eba:	0000                	unimp
    1ebc:	0100                	addi	s0,sp,128
    1ebe:	c99c                	sw	a5,16(a1)
    1ec0:	0015                	c.nop	5
    1ec2:	3700                	fld	fs0,40(a4)
    1ec4:	00000507          	0x507
    1ec8:	5501                	li	a0,-32
    1eca:	00008a37          	lui	s4,0x8
    1ece:	7e00                	ld	s0,56(a2)
    1ed0:	0012                	c.slli	zero,0x4
    1ed2:	3800                	fld	fs0,48(s0)
    1ed4:	7065                	c.lui	zero,0xffff9
    1ed6:	55010063          	beq	sp,a6,2416 <_tbss_end+0x2416>
    1eda:	8a48                	0x8a48
    1edc:	0000                	unimp
    1ede:	ca00                	sw	s0,16(a2)
    1ee0:	0012                	c.slli	zero,0x4
    1ee2:	3700                	fld	fs0,40(a4)
    1ee4:	00000537          	lui	a0,0x0
    1ee8:	5501                	li	a0,-32
    1eea:	000c2257          	0xc2257
    1eee:	1600                	addi	s0,sp,800
    1ef0:	45000013          	li	zero,1104
    1ef4:	1526                	slli	a0,a0,0x29
    1ef6:	8000                	0x8000
    1ef8:	0000                	unimp
    1efa:	0000                	unimp
    1efc:	0dd9                	addi	s11,s11,22
    1efe:	0000                	unimp
    1f00:	000015bb          	sllw	a1,zero,zero
    1f04:	0135                	addi	sp,sp,13
    1f06:	095a                	slli	s2,s2,0x16
    1f08:	00168003          	lb	zero,1(a3)
    1f0c:	0080                	addi	s0,sp,64
    1f0e:	0000                	unimp
    1f10:	3500                	fld	fs0,40(a0)
    1f12:	5b01                	li	s6,-32
    1f14:	5a01f303          	0x5a01f303
    1f18:	0135                	addi	sp,sp,13
    1f1a:	035c                	addi	a5,sp,388
    1f1c:	005b01f3          	0x5b01f3
    1f20:	2a51                	addiw	s4,s4,20
    1f22:	0015                	c.nop	5
    1f24:	0080                	addi	s0,sp,64
    1f26:	0000                	unimp
    1f28:	8e00                	0x8e00
    1f2a:	0016                	c.slli	zero,0x5
    1f2c:	0000                	unimp
    1f2e:	d54c                	sw	a1,44(a0)
    1f30:	0006                	c.slli	zero,0x1
    1f32:	0100                	addi	s0,sp,128
    1f34:	0645                	addi	a2,a2,17
    1f36:	1140                	addi	s0,sp,164
    1f38:	8000                	0x8000
    1f3a:	0000                	unimp
    1f3c:	0000                	unimp
    1f3e:	004a                	c.slli	zero,0x12
    1f40:	0000                	unimp
    1f42:	0000                	unimp
    1f44:	0000                	unimp
    1f46:	9c01                	subw	s0,s0,s0
    1f48:	168e                	slli	a3,a3,0x23
    1f4a:	0000                	unimp
    1f4c:	00056e47          	fmsub.s	ft8,fa0,ft0,ft0,unknown
    1f50:	0100                	addi	s0,sp,128
    1f52:	1345                	addi	t1,t1,-15
    1f54:	0045                	c.nop	17
    1f56:	0000                	unimp
    1f58:	5a01                	li	s4,-32
    1f5a:	6939                	lui	s2,0xe
    1f5c:	0100                	addi	s0,sp,128
    1f5e:	00450747          	fmsub.s	fa4,fa0,ft4,ft0,rne
    1f62:	0000                	unimp
    1f64:	0000134f          	fnmadd.s	ft6,ft0,ft0,ft0,rtz
    1f68:	402e                	0x402e
    1f6a:	0011                	c.nop	4
    1f6c:	0080                	addi	s0,sp,64
    1f6e:	0000                	unimp
    1f70:	2400                	fld	fs0,8(s0)
    1f72:	0000                	unimp
    1f74:	0000                	unimp
    1f76:	0000                	unimp
    1f78:	4b00                	lw	s0,16(a4)
    1f7a:	0016                	c.slli	zero,0x5
    1f7c:	3900                	fld	fs0,48(a0)
    1f7e:	00727363          	bgeu	tp,t2,1f84 <_tbss_end+0x1f84>
    1f82:	4f01                	li	t5,0
    1f84:	00008a03          	lb	s4,0(ra)
    1f88:	9b00                	0x9b00
    1f8a:	2f000013          	li	zero,752
    1f8e:	1140                	addi	s0,sp,164
    1f90:	8000                	0x8000
    1f92:	0000                	unimp
    1f94:	0000                	unimp
    1f96:	0004                	0x4
    1f98:	0000                	unimp
    1f9a:	0000                	unimp
    1f9c:	0000                	unimp
    1f9e:	b83a                	fsd	fa4,48(sp)
    1fa0:	0006                	c.slli	zero,0x1
    1fa2:	0100                	addi	s0,sp,128
    1fa4:	0066034f          	fnmadd.s	ft6,fa2,ft6,ft0,rne
    1fa8:	0000                	unimp
    1faa:	13d9                	addi	t2,t2,-10
    1fac:	0000                	unimp
    1fae:	0000                	unimp
    1fb0:	0011642f          	0x11642f
    1fb4:	0080                	addi	s0,sp,64
    1fb6:	0000                	unimp
    1fb8:	2400                	fld	fs0,8(s0)
    1fba:	0000                	unimp
    1fbc:	0000                	unimp
    1fbe:	0000                	unimp
    1fc0:	4d00                	lw	s0,24(a0)
    1fc2:	00727363          	bgeu	tp,t2,1fc8 <_tbss_end+0x1fc8>
    1fc6:	5001                	c.li	zero,-32
    1fc8:	00008a03          	lb	s4,0(ra)
    1fcc:	0100                	addi	s0,sp,128
    1fce:	2f5f 1164 8000      	0x800011642f5f
    1fd4:	0000                	unimp
    1fd6:	0000                	unimp
    1fd8:	0004                	0x4
    1fda:	0000                	unimp
    1fdc:	0000                	unimp
    1fde:	0000                	unimp
    1fe0:	b83a                	fsd	fa4,48(sp)
    1fe2:	0006                	c.slli	zero,0x1
    1fe4:	0100                	addi	s0,sp,128
    1fe6:	0350                	addi	a2,sp,388
    1fe8:	0066                	c.slli	zero,0x19
    1fea:	0000                	unimp
    1fec:	13fc                	addi	a5,sp,492
    1fee:	0000                	unimp
    1ff0:	0000                	unimp
    1ff2:	5200                	lw	s0,32(a2)
    1ff4:	000006a3          	sb	zero,13(zero) # d <_tbss_end+0xd>
    1ff8:	2e01                	sext.w	t3,t3
    1ffa:	2a06                	fld	fs4,64(sp)
    1ffc:	0011                	c.nop	4
    1ffe:	0080                	addi	s0,sp,64
    2000:	0000                	unimp
    2002:	1600                	addi	s0,sp,800
    2004:	0000                	unimp
    2006:	0000                	unimp
    2008:	0000                	unimp
    200a:	0100                	addi	s0,sp,128
    200c:	539c                	lw	a5,32(a5)
    200e:	069c                	addi	a5,sp,832
    2010:	0000                	unimp
    2012:	2801                	sext.w	a6,a6
    2014:	1820                	addi	s0,sp,56
    2016:	0011                	c.nop	4
    2018:	0080                	addi	s0,sp,64
    201a:	0000                	unimp
    201c:	1200                	addi	s0,sp,288
    201e:	0000                	unimp
    2020:	0000                	unimp
    2022:	0000                	unimp
    2024:	0100                	addi	s0,sp,128
    2026:	d59c                	sw	a5,40(a1)
    2028:	0016                	c.slli	zero,0x5
    202a:	4700                	lw	s0,8(a4)
    202c:	05ae                	slli	a1,a1,0xb
    202e:	0000                	unimp
    2030:	2801                	sext.w	a6,a6
    2032:	8a36                	mv	s4,a3
    2034:	0000                	unimp
    2036:	0100                	addi	s0,sp,128
    2038:	005a                	c.slli	zero,0x16
    203a:	f346                	sd	a7,416(sp)
    203c:	0005                	c.nop	1
    203e:	0100                	addi	s0,sp,128
    2040:	1216                	slli	tp,tp,0x25
    2042:	008a                	slli	ra,ra,0x2
    2044:	0000                	unimp
    2046:	10de                	slli	ra,ra,0x37
    2048:	8000                	0x8000
    204a:	0000                	unimp
    204c:	0000                	unimp
    204e:	003a                	c.slli	zero,0xe
    2050:	0000                	unimp
    2052:	0000                	unimp
    2054:	0000                	unimp
    2056:	9c01                	subw	s0,s0,s0
    2058:	1742                	slli	a4,a4,0x30
    205a:	0000                	unimp
    205c:	00061e37          	lui	t3,0x61
    2060:	0100                	addi	s0,sp,128
    2062:	2416                	fld	fs0,320(sp)
    2064:	008a                	slli	ra,ra,0x2
    2066:	0000                	unimp
    2068:	141f 0000 de47      	0xde470000141f
    206e:	0005                	c.nop	1
    2070:	0100                	addi	s0,sp,128
    2072:	3416                	fld	fs0,352(sp)
    2074:	0079                	c.nop	30
    2076:	0000                	unimp
    2078:	5b01                	li	s6,-32
    207a:	0005e347          	fmsub.s	ft6,fa1,ft0,ft0,unknown
    207e:	0100                	addi	s0,sp,128
    2080:	4316                	lw	t1,68(sp)
    2082:	0079                	c.nop	30
    2084:	0000                	unimp
    2086:	5c01                	li	s8,-32
    2088:	0005e847          	fmsub.s	fa6,fa1,ft0,ft0,unknown
    208c:	0100                	addi	s0,sp,128
    208e:	5216                	lw	tp,100(sp)
    2090:	0079                	c.nop	30
    2092:	0000                	unimp
    2094:	5d01                	li	s10,-32
    2096:	9254                	0x9254
    2098:	0006                	c.slli	zero,0x1
    209a:	0100                	addi	s0,sp,128
    209c:	1518                	addi	a4,sp,672
    209e:	1752                	slli	a4,a4,0x34
    20a0:	0000                	unimp
    20a2:	0240                	addi	s0,sp,260
    20a4:	007e                	c.slli	zero,0x1f
    20a6:	0a00                	addi	s0,sp,272
    20a8:	0085                	addi	ra,ra,1
    20aa:	0000                	unimp
    20ac:	1752                	slli	a4,a4,0x34
    20ae:	0000                	unimp
    20b0:	0000660b          	0x660b
    20b4:	0700                	addi	s0,sp,896
    20b6:	0500                	addi	s0,sp,640
    20b8:	1742                	slli	a4,a4,0x30
    20ba:	0000                	unimp
    20bc:	2a00                	fld	fs0,16(a2)
    20be:	0000                	unimp
    20c0:	0200                	addi	s0,sp,256
    20c2:	fd00                	sd	s0,56(a0)
    20c4:	0006                	c.slli	zero,0x1
    20c6:	0800                	addi	s0,sp,16
    20c8:	cb01                	beqz	a4,20d8 <_tbss_end+0x20d8>
    20ca:	00000013          	nop
    20ce:	0000                	unimp
    20d0:	0080                	addi	s0,sp,64
    20d2:	0000                	unimp
    20d4:	f800                	sd	s0,48(s0)
    20d6:	0000                	unimp
    20d8:	0080                	addi	s0,sp,64
    20da:	0000                	unimp
    20dc:	ed00                	sd	s0,24(a0)
    20de:	0006                	c.slli	zero,0x1
    20e0:	9c00                	0x9c00
    20e2:	0000                	unimp
    20e4:	fc00                	sd	s0,56(s0)
    20e6:	0006                	c.slli	zero,0x1
    20e8:	0100                	addi	s0,sp,128
    20ea:	80              	Address 0x00000000000020ea is out of bounds.


Disassembly of section .debug_abbrev:

0000000000000000 <.debug_abbrev>:
   0:	1101                	addi	sp,sp,-32
   2:	2501                	sext.w	a0,a0
   4:	130e                	slli	t1,t1,0x23
   6:	1b0e030b          	0x1b0e030b
   a:	110e                	slli	sp,sp,0x23
   c:	1201                	addi	tp,tp,-32
   e:	00171007          	0x171007
  12:	0200                	addi	s0,sp,256
  14:	0024                	addi	s1,sp,8
  16:	0b3e0b0b          	0xb3e0b0b
  1a:	00000e03          	lb	t3,0(zero) # 0 <_tbss_end>
  1e:	0b002403          	lw	s0,176(zero) # b0 <_tbss_end+0xb0>
  22:	030b3e0b          	0x30b3e0b
  26:	0008                	0x8
  28:	0400                	addi	s0,sp,512
  2a:	0016                	c.slli	zero,0x5
  2c:	0b3a0e03          	lb	t3,179(s4) # 80b3 <_tbss_end+0x80b3>
  30:	0b39053b          	0xb39053b
  34:	1349                	addi	t1,t1,-14
  36:	0000                	unimp
  38:	1605                	addi	a2,a2,-31
  3a:	0300                	addi	s0,sp,384
  3c:	3a0e                	fld	fs4,224(sp)
  3e:	390b3b0b          	0x390b3b0b
  42:	0013490b          	0x13490b
  46:	0600                	addi	s0,sp,768
  48:	0b0b0117          	auipc	sp,0xb0b0
  4c:	0b3a                	slli	s6,s6,0xe
  4e:	0b390b3b          	0xb390b3b
  52:	1301                	addi	t1,t1,-32
  54:	0000                	unimp
  56:	03000d07          	0x3000d07
  5a:	3a0e                	fld	fs4,224(sp)
  5c:	390b3b0b          	0x390b3b0b
  60:	0013490b          	0x13490b
  64:	0800                	addi	s0,sp,16
  66:	0101                	addi	sp,sp,0
  68:	1349                	addi	t1,t1,-14
  6a:	1301                	addi	t1,t1,-32
  6c:	0000                	unimp
  6e:	2109                	addiw	sp,sp,2
  70:	4900                	lw	s0,16(a0)
  72:	000b2f13          	slti	t5,s6,0
  76:	0a00                	addi	s0,sp,272
  78:	0b0b0113          	addi	sp,s6,176
  7c:	0b3a                	slli	s6,s6,0xe
  7e:	0b390b3b          	0xb390b3b
  82:	1301                	addi	t1,t1,-32
  84:	0000                	unimp
  86:	03000d0b          	0x3000d0b
  8a:	3a0e                	fld	fs4,224(sp)
  8c:	390b3b0b          	0x390b3b0b
  90:	3813490b          	0x3813490b
  94:	0c00000b          	0xc00000b
  98:	0b0b000f          	0xb0b000f
  9c:	0000                	unimp
  9e:	130d                	addi	t1,t1,-29
  a0:	0301                	addi	t1,t1,0
  a2:	0b0e                	slli	s6,s6,0x3
  a4:	3b0b3a0b          	0x3b0b3a0b
  a8:	010b390b          	0x10b390b
  ac:	0e000013          	li	zero,224
  b0:	000d                	c.nop	3
  b2:	0b3a0803          	lb	a6,179(s4)
  b6:	0b390b3b          	0xb390b3b
  ba:	1349                	addi	t1,t1,-14
  bc:	0b38                	addi	a4,sp,408
  be:	0000                	unimp
  c0:	0b000f0f          	0xb000f0f
  c4:	0013490b          	0x13490b
  c8:	1000                	addi	s0,sp,32
  ca:	0e030113          	addi	sp,t1,224 # ffffffffffff30e0 <__global_pointer$+0xffffffff7fff10c4>
  ce:	0b3a050b          	0xb3a050b
  d2:	0b390b3b          	0xb390b3b
  d6:	1301                	addi	t1,t1,-32
  d8:	0000                	unimp
  da:	0d11                	addi	s10,s10,4
  dc:	0300                	addi	s0,sp,384
  de:	3a0e                	fld	fs4,224(sp)
  e0:	390b3b0b          	0x390b3b0b
  e4:	3813490b          	0x3813490b
  e8:	0005                	c.nop	1
  ea:	1200                	addi	s0,sp,288
  ec:	0015                	c.nop	5
  ee:	00001927          	0x1927
  f2:	27011513          	0x27011513
  f6:	4919                	li	s2,6
  f8:	00130113          	addi	sp,t1,1
  fc:	1400                	addi	s0,sp,544
  fe:	0005                	c.nop	1
 100:	1349                	addi	t1,t1,-14
 102:	0000                	unimp
 104:	2615                	addiw	a2,a2,5
 106:	4900                	lw	s0,16(a0)
 108:	16000013          	li	zero,352
 10c:	0e030113          	addi	sp,t1,224
 110:	0b3a050b          	0xb3a050b
 114:	0b39053b          	0xb39053b
 118:	1301                	addi	t1,t1,-32
 11a:	0000                	unimp
 11c:	03000d17          	auipc	s10,0x3000
 120:	3a0e                	fld	fs4,224(sp)
 122:	39053b0b          	0x39053b0b
 126:	3813490b          	0x3813490b
 12a:	1800000b          	0x1800000b
 12e:	000d                	c.nop	3
 130:	0b3a0e03          	lb	t3,179(s4)
 134:	0b39053b          	0xb39053b
 138:	1349                	addi	t1,t1,-14
 13a:	0538                	addi	a4,sp,648
 13c:	0000                	unimp
 13e:	1319                	addi	t1,t1,-26
 140:	0301                	addi	t1,t1,0
 142:	0b0e                	slli	s6,s6,0x3
 144:	3b0b3a0b          	0x3b0b3a0b
 148:	3905                	addiw	s2,s2,-31
 14a:	0013010b          	0x13010b
 14e:	1a00                	addi	s0,sp,304
 150:	0b0b0113          	addi	sp,s6,176
 154:	0b3a                	slli	s6,s6,0xe
 156:	0b39053b          	0xb39053b
 15a:	1301                	addi	t1,t1,-32
 15c:	0000                	unimp
 15e:	0b01131b          	0xb01131b
 162:	3a05                	addiw	s4,s4,-31
 164:	39053b0b          	0x39053b0b
 168:	0013010b          	0x13010b
 16c:	1c00                	addi	s0,sp,560
 16e:	050b0117          	auipc	sp,0x50b0
 172:	0b3a                	slli	s6,s6,0xe
 174:	0b39053b          	0xb39053b
 178:	1301                	addi	t1,t1,-32
 17a:	0000                	unimp
 17c:	0d1d                	addi	s10,s10,7
 17e:	0300                	addi	s0,sp,384
 180:	3a0e                	fld	fs4,224(sp)
 182:	39053b0b          	0x39053b0b
 186:	0013490b          	0x13490b
 18a:	1e00                	addi	s0,sp,816
 18c:	0e030013          	addi	zero,t1,224
 190:	193c                	addi	a5,sp,184
 192:	0000                	unimp
 194:	151f 2701 0119      	0x1192701151f
 19a:	20000013          	li	zero,512
 19e:	0034                	addi	a3,sp,8
 1a0:	0b3a0e03          	lb	t3,179(s4)
 1a4:	0b39053b          	0xb39053b
 1a8:	1349                	addi	t1,t1,-14
 1aa:	193c193f 2e210000 	0x2e210000193c193f
 1b2:	3f01                	addiw	t5,t5,-32
 1b4:	0319                	addi	t1,t1,6
 1b6:	3a0e                	fld	fs4,224(sp)
 1b8:	390b3b0b          	0x390b3b0b
 1bc:	1113490b          	0x1113490b
 1c0:	1201                	addi	tp,tp,-32
 1c2:	97184007          	flq	ft0,-1679(a6)
 1c6:	1942                	slli	s2,s2,0x30
 1c8:	1301                	addi	t1,t1,-32
 1ca:	0000                	unimp
 1cc:	8922                	mv	s2,s0
 1ce:	0182                	c.slli64	gp
 1d0:	1101                	addi	sp,sp,-32
 1d2:	3101                	addiw	sp,sp,-32
 1d4:	23000013          	li	zero,560
 1d8:	828a                	mv	t0,sp
 1da:	0001                	nop
 1dc:	1802                	slli	a6,a6,0x20
 1de:	4291                	li	t0,4
 1e0:	0018                	0x18
 1e2:	2400                	fld	fs0,8(s0)
 1e4:	002e                	c.slli	zero,0xb
 1e6:	193c193f 0e030e6e 	0xe030e6e193c193f
 1ee:	0b3a                	slli	s6,s6,0xe
 1f0:	0b390b3b          	0xb390b3b
 1f4:	0000                	unimp
 1f6:	0100                	addi	s0,sp,128
 1f8:	0111                	addi	sp,sp,4
 1fa:	0e25                	addi	t3,t3,9
 1fc:	0e030b13          	addi	s6,t1,224
 200:	17550e1b          	addiw	t3,a0,373
 204:	0111                	addi	sp,sp,4
 206:	1710                	addi	a2,sp,928
 208:	0000                	unimp
 20a:	2402                	fld	fs0,0(sp)
 20c:	0b00                	addi	s0,sp,400
 20e:	030b3e0b          	0x30b3e0b
 212:	000e                	c.slli	zero,0x3
 214:	0300                	addi	s0,sp,384
 216:	0024                	addi	s1,sp,8
 218:	0b3e0b0b          	0xb3e0b0b
 21c:	00000803          	lb	a6,0(zero) # 0 <_tbss_end>
 220:	1604                	addi	s1,sp,800
 222:	0300                	addi	s0,sp,384
 224:	3a0e                	fld	fs4,224(sp)
 226:	390b3b0b          	0x390b3b0b
 22a:	0013490b          	0x13490b
 22e:	0500                	addi	s0,sp,640
 230:	0035                	c.nop	13
 232:	1349                	addi	t1,t1,-14
 234:	0000                	unimp
 236:	2606                	fld	fa2,64(sp)
 238:	4900                	lw	s0,16(a0)
 23a:	07000013          	li	zero,112
 23e:	0016                	c.slli	zero,0x5
 240:	0b3a0e03          	lb	t3,179(s4)
 244:	0b39053b          	0xb39053b
 248:	1349                	addi	t1,t1,-14
 24a:	0000                	unimp
 24c:	1708                	addi	a0,sp,928
 24e:	0b01                	addi	s6,s6,0
 250:	3b0b3a0b          	0x3b0b3a0b
 254:	010b390b          	0x10b390b
 258:	09000013          	li	zero,144
 25c:	000d                	c.nop	3
 25e:	0b3a0e03          	lb	t3,179(s4)
 262:	0b390b3b          	0xb390b3b
 266:	1349                	addi	t1,t1,-14
 268:	0000                	unimp
 26a:	010a                	slli	sp,sp,0x2
 26c:	4901                	li	s2,0
 26e:	00130113          	addi	sp,t1,1
 272:	0b00                	addi	s0,sp,400
 274:	0021                	c.nop	8
 276:	1349                	addi	t1,t1,-14
 278:	00000b2f          	0xb2f
 27c:	130c                	addi	a1,sp,416
 27e:	0b01                	addi	s6,s6,0
 280:	3b0b3a0b          	0x3b0b3a0b
 284:	010b390b          	0x10b390b
 288:	0d000013          	li	zero,208
 28c:	000d                	c.nop	3
 28e:	0b3a0e03          	lb	t3,179(s4)
 292:	0b390b3b          	0xb390b3b
 296:	1349                	addi	t1,t1,-14
 298:	0b38                	addi	a4,sp,408
 29a:	0000                	unimp
 29c:	0f0e                	slli	t5,t5,0x3
 29e:	0b00                	addi	s0,sp,400
 2a0:	0f00000b          	0xf00000b
 2a4:	0b0b000f          	0xb0b000f
 2a8:	00000e03          	lb	t3,0(zero) # 0 <_tbss_end>
 2ac:	1310                	addi	a2,sp,416
 2ae:	0301                	addi	t1,t1,0
 2b0:	0b0e                	slli	s6,s6,0x3
 2b2:	3b0b3a0b          	0x3b0b3a0b
 2b6:	010b390b          	0x10b390b
 2ba:	11000013          	li	zero,272
 2be:	000d                	c.nop	3
 2c0:	0b3a0803          	lb	a6,179(s4)
 2c4:	0b390b3b          	0xb390b3b
 2c8:	1349                	addi	t1,t1,-14
 2ca:	0b38                	addi	a4,sp,408
 2cc:	0000                	unimp
 2ce:	0f12                	slli	t5,t5,0x4
 2d0:	0b00                	addi	s0,sp,400
 2d2:	0013490b          	0x13490b
 2d6:	1300                	addi	s0,sp,416
 2d8:	0e030113          	addi	sp,t1,224
 2dc:	0b3a050b          	0xb3a050b
 2e0:	0b390b3b          	0xb390b3b
 2e4:	1301                	addi	t1,t1,-32
 2e6:	0000                	unimp
 2e8:	0d14                	addi	a3,sp,656
 2ea:	0300                	addi	s0,sp,384
 2ec:	3a0e                	fld	fs4,224(sp)
 2ee:	390b3b0b          	0x390b3b0b
 2f2:	3813490b          	0x3813490b
 2f6:	0005                	c.nop	1
 2f8:	1500                	addi	s0,sp,672
 2fa:	0015                	c.nop	5
 2fc:	00001927          	0x1927
 300:	1516                	slli	a0,a0,0x25
 302:	2701                	sext.w	a4,a4
 304:	4919                	li	s2,6
 306:	00130113          	addi	sp,t1,1
 30a:	1700                	addi	s0,sp,928
 30c:	0005                	c.nop	1
 30e:	1349                	addi	t1,t1,-14
 310:	0000                	unimp
 312:	1318                	addi	a4,sp,416
 314:	0301                	addi	t1,t1,0
 316:	0b0e                	slli	s6,s6,0x3
 318:	3a05                	addiw	s4,s4,-31
 31a:	39053b0b          	0x39053b0b
 31e:	0013010b          	0x13010b
 322:	1900                	addi	s0,sp,176
 324:	000d                	c.nop	3
 326:	0b3a0e03          	lb	t3,179(s4)
 32a:	0b39053b          	0xb39053b
 32e:	1349                	addi	t1,t1,-14
 330:	0b38                	addi	a4,sp,408
 332:	0000                	unimp
 334:	0d1a                	slli	s10,s10,0x6
 336:	0300                	addi	s0,sp,384
 338:	3a0e                	fld	fs4,224(sp)
 33a:	39053b0b          	0x39053b0b
 33e:	3813490b          	0x3813490b
 342:	0005                	c.nop	1
 344:	1b00                	addi	s0,sp,432
 346:	0e030113          	addi	sp,t1,224
 34a:	0b3a0b0b          	0xb3a0b0b
 34e:	0b39053b          	0xb39053b
 352:	1301                	addi	t1,t1,-32
 354:	0000                	unimp
 356:	131c                	addi	a5,sp,416
 358:	0b01                	addi	s6,s6,0
 35a:	3b0b3a0b          	0x3b0b3a0b
 35e:	3905                	addiw	s2,s2,-31
 360:	0013010b          	0x13010b
 364:	1d00                	addi	s0,sp,688
 366:	050b0113          	addi	sp,s6,80
 36a:	0b3a                	slli	s6,s6,0xe
 36c:	0b39053b          	0xb39053b
 370:	1301                	addi	t1,t1,-32
 372:	0000                	unimp
 374:	171e                	slli	a4,a4,0x27
 376:	0b01                	addi	s6,s6,0
 378:	3a05                	addiw	s4,s4,-31
 37a:	39053b0b          	0x39053b0b
 37e:	0013010b          	0x13010b
 382:	1f00                	addi	s0,sp,944
 384:	000d                	c.nop	3
 386:	0b3a0e03          	lb	t3,179(s4)
 38a:	0b39053b          	0xb39053b
 38e:	1349                	addi	t1,t1,-14
 390:	0000                	unimp
 392:	1320                	addi	s0,sp,424
 394:	0300                	addi	s0,sp,384
 396:	3c0e                	fld	fs8,224(sp)
 398:	0019                	c.nop	6
 39a:	2100                	fld	fs0,0(a0)
 39c:	0115                	addi	sp,sp,5
 39e:	13011927          	0x13011927
 3a2:	0000                	unimp
 3a4:	3422                	fld	fs0,40(sp)
 3a6:	0300                	addi	s0,sp,384
 3a8:	3a0e                	fld	fs4,224(sp)
 3aa:	39053b0b          	0x39053b0b
 3ae:	3f13490b          	0x3f13490b
 3b2:	3c19                	addiw	s8,s8,-26
 3b4:	0019                	c.nop	6
 3b6:	2300                	fld	fs0,0(a4)
 3b8:	0034                	addi	a3,sp,8
 3ba:	0b3a0e03          	lb	t3,179(s4)
 3be:	0b390b3b          	0xb390b3b
 3c2:	1349                	addi	t1,t1,-14
 3c4:	1802                	slli	a6,a6,0x20
 3c6:	0000                	unimp
 3c8:	3424                	fld	fs1,104(s0)
 3ca:	0300                	addi	s0,sp,384
 3cc:	3a0e                	fld	fs4,224(sp)
 3ce:	390b3b0b          	0x390b3b0b
 3d2:	3f13490b          	0x3f13490b
 3d6:	3c19                	addiw	s8,s8,-26
 3d8:	0019                	c.nop	6
 3da:	2500                	fld	fs0,8(a0)
 3dc:	012e                	slli	sp,sp,0xb
 3de:	0e03193f 053b0b3a 	0x53b0b3a0e03193f
 3e6:	0b39                	addi	s6,s6,14
 3e8:	13491927          	0x13491927
 3ec:	0111                	addi	sp,sp,4
 3ee:	0712                	slli	a4,a4,0x4
 3f0:	1840                	addi	s0,sp,52
 3f2:	01194297          	auipc	t0,0x1194
 3f6:	26000013          	li	zero,608
 3fa:	0005                	c.nop	1
 3fc:	0b3a0803          	lb	a6,179(s4)
 400:	0b39053b          	0xb39053b
 404:	1349                	addi	t1,t1,-14
 406:	1702                	slli	a4,a4,0x20
 408:	0000                	unimp
 40a:	03003427          	fsd	fa6,40(zero) # 28 <_tbss_end+0x28>
 40e:	3a08                	fld	fa0,48(a2)
 410:	39053b0b          	0x39053b0b
 414:	0213490b          	0x213490b
 418:	28000017          	auipc	zero,0x28000
 41c:	0034                	addi	a3,sp,8
 41e:	0b3a0e03          	lb	t3,179(s4)
 422:	0b39053b          	0xb39053b
 426:	1349                	addi	t1,t1,-14
 428:	1702                	slli	a4,a4,0x20
 42a:	0000                	unimp
 42c:	2e29                	addiw	t3,t3,10
 42e:	3f01                	addiw	t5,t5,-32
 430:	0319                	addi	t1,t1,6
 432:	3a0e                	fld	fs4,224(sp)
 434:	390b3b0b          	0x390b3b0b
 438:	4919270b          	0x4919270b
 43c:	12011113          	0x12011113
 440:	97184007          	flq	ft0,-1679(a6)
 444:	1942                	slli	s2,s2,0x30
 446:	1301                	addi	t1,t1,-32
 448:	0000                	unimp
 44a:	052a                	slli	a0,a0,0xa
 44c:	0300                	addi	s0,sp,384
 44e:	3a0e                	fld	fs4,224(sp)
 450:	39053b0b          	0x39053b0b
 454:	0213490b          	0x213490b
 458:	0018                	0x18
 45a:	2b00                	fld	fs0,16(a4)
 45c:	0005                	c.nop	1
 45e:	0b3a0803          	lb	a6,179(s4)
 462:	0b39053b          	0xb39053b
 466:	1349                	addi	t1,t1,-14
 468:	1802                	slli	a6,a6,0x20
 46a:	0000                	unimp
 46c:	342c                	fld	fa1,104(s0)
 46e:	0300                	addi	s0,sp,384
 470:	3a08                	fld	fa0,48(a2)
 472:	39053b0b          	0x39053b0b
 476:	0213490b          	0x213490b
 47a:	0018                	0x18
 47c:	2d00                	fld	fs0,24(a0)
 47e:	0005                	c.nop	1
 480:	0b3a0e03          	lb	t3,179(s4)
 484:	0b39053b          	0xb39053b
 488:	1349                	addi	t1,t1,-14
 48a:	1702                	slli	a4,a4,0x20
 48c:	0000                	unimp
 48e:	0b2e                	slli	s6,s6,0xb
 490:	1101                	addi	sp,sp,-32
 492:	1201                	addi	tp,tp,-32
 494:	00130107          	0x130107
 498:	2f00                	fld	fs0,24(a4)
 49a:	0111010b          	0x111010b
 49e:	0712                	slli	a4,a4,0x4
 4a0:	0000                	unimp
 4a2:	2630                	fld	fa2,72(a2)
 4a4:	0000                	unimp
 4a6:	3100                	fld	fs0,32(a0)
 4a8:	0018                	0x18
 4aa:	0000                	unimp
 4ac:	2e32                	fld	ft8,264(sp)
 4ae:	0301                	addi	t1,t1,0
 4b0:	3a0e                	fld	fs4,224(sp)
 4b2:	39053b0b          	0x39053b0b
 4b6:	1119270b          	0x1119270b
 4ba:	1201                	addi	tp,tp,-32
 4bc:	97184007          	flq	ft0,-1679(a6)
 4c0:	1942                	slli	s2,s2,0x30
 4c2:	1301                	addi	t1,t1,-32
 4c4:	0000                	unimp
 4c6:	03003433          	mulhu	s0,zero,a6
 4ca:	3a0e                	fld	fs4,224(sp)
 4cc:	39053b0b          	0x39053b0b
 4d0:	0213490b          	0x213490b
 4d4:	0018                	0x18
 4d6:	3400                	fld	fs0,40(s0)
 4d8:	8289                	srli	a3,a3,0x2
 4da:	0101                	addi	sp,sp,0
 4dc:	0111                	addi	sp,sp,4
 4de:	1331                	addi	t1,t1,-20
 4e0:	0000                	unimp
 4e2:	8a35                	andi	a2,a2,13
 4e4:	0182                	c.slli64	gp
 4e6:	0200                	addi	s0,sp,256
 4e8:	9118                	0x9118
 4ea:	1842                	slli	a6,a6,0x30
 4ec:	0000                	unimp
 4ee:	2e36                	fld	ft8,328(sp)
 4f0:	0301                	addi	t1,t1,0
 4f2:	3a0e                	fld	fs4,224(sp)
 4f4:	390b3b0b          	0x390b3b0b
 4f8:	1119270b          	0x1119270b
 4fc:	1201                	addi	tp,tp,-32
 4fe:	97184007          	flq	ft0,-1679(a6)
 502:	1942                	slli	s2,s2,0x30
 504:	1301                	addi	t1,t1,-32
 506:	0000                	unimp
 508:	03000537          	lui	a0,0x3000
 50c:	3a0e                	fld	fs4,224(sp)
 50e:	390b3b0b          	0x390b3b0b
 512:	0213490b          	0x213490b
 516:	38000017          	auipc	zero,0x38000
 51a:	0005                	c.nop	1
 51c:	0b3a0803          	lb	a6,179(s4)
 520:	0b390b3b          	0xb390b3b
 524:	1349                	addi	t1,t1,-14
 526:	1702                	slli	a4,a4,0x20
 528:	0000                	unimp
 52a:	3439                	addiw	s0,s0,-18
 52c:	0300                	addi	s0,sp,384
 52e:	3a08                	fld	fa0,48(a2)
 530:	390b3b0b          	0x390b3b0b
 534:	0213490b          	0x213490b
 538:	3a000017          	auipc	zero,0x3a000
 53c:	0034                	addi	a3,sp,8
 53e:	0b3a0e03          	lb	t3,179(s4)
 542:	0b390b3b          	0xb390b3b
 546:	1349                	addi	t1,t1,-14
 548:	1702                	slli	a4,a4,0x20
 54a:	0000                	unimp
 54c:	0300343b          	0x300343b
 550:	3a08                	fld	fa0,48(a2)
 552:	390b3b0b          	0x390b3b0b
 556:	0013490b          	0x13490b
 55a:	3c00                	fld	fs0,56(s0)
 55c:	000a                	c.slli	zero,0x2
 55e:	0b3a0e03          	lb	t3,179(s4)
 562:	0b390b3b          	0xb390b3b
 566:	0111                	addi	sp,sp,4
 568:	0000                	unimp
 56a:	0a3d                	addi	s4,s4,15
 56c:	0300                	addi	s0,sp,384
 56e:	3a0e                	fld	fs4,224(sp)
 570:	39053b0b          	0x39053b0b
 574:	0001110b          	0x1110b
 578:	3e00                	fld	fs0,56(a2)
 57a:	011d                	addi	sp,sp,7
 57c:	1331                	addi	t1,t1,-20
 57e:	0152                	slli	sp,sp,0x14
 580:	1755                	addi	a4,a4,-11
 582:	0b58                	addi	a4,sp,404
 584:	0559                	addi	a0,a0,22
 586:	13010b57          	0x13010b57
 58a:	0000                	unimp
 58c:	3100053f 00170213 	0x1702133100053f
 594:	4000                	lw	s0,0(s0)
 596:	1755010b          	0x1755010b
 59a:	0000                	unimp
 59c:	3441                	addiw	s0,s0,-16
 59e:	3100                	fld	fs0,32(a0)
 5a0:	00180213          	addi	tp,a6,1
 5a4:	4200                	lw	s0,0(a2)
 5a6:	0034                	addi	a3,sp,8
 5a8:	1331                	addi	t1,t1,-20
 5aa:	1702                	slli	a4,a4,0x20
 5ac:	0000                	unimp
 5ae:	01828943          	fmadd.s	fs2,ft5,fs8,ft0,rne
 5b2:	1101                	addi	sp,sp,-32
 5b4:	0101                	addi	sp,sp,0
 5b6:	44000013          	li	zero,1088
 5ba:	8289                	srli	a3,a3,0x2
 5bc:	0101                	addi	sp,sp,0
 5be:	0111                	addi	sp,sp,4
 5c0:	0000                	unimp
 5c2:	8945                	andi	a0,a0,17
 5c4:	0182                	c.slli64	gp
 5c6:	1101                	addi	sp,sp,-32
 5c8:	3101                	addiw	sp,sp,-32
 5ca:	00130113          	addi	sp,t1,1
 5ce:	4600                	lw	s0,8(a2)
 5d0:	012e                	slli	sp,sp,0xb
 5d2:	0b3a0e03          	lb	t3,179(s4)
 5d6:	0b390b3b          	0xb390b3b
 5da:	13491927          	0x13491927
 5de:	0111                	addi	sp,sp,4
 5e0:	0712                	slli	a4,a4,0x4
 5e2:	1840                	addi	s0,sp,52
 5e4:	01194297          	auipc	t0,0x1194
 5e8:	47000013          	li	zero,1136
 5ec:	0005                	c.nop	1
 5ee:	0b3a0e03          	lb	t3,179(s4)
 5f2:	0b390b3b          	0xb390b3b
 5f6:	1349                	addi	t1,t1,-14
 5f8:	1802                	slli	a6,a6,0x20
 5fa:	0000                	unimp
 5fc:	2e48                	fld	fa0,152(a2)
 5fe:	0301                	addi	t1,t1,0
 600:	3a0e                	fld	fs4,224(sp)
 602:	390b3b0b          	0x390b3b0b
 606:	2019270b          	0x2019270b
 60a:	0013010b          	0x13010b
 60e:	4900                	lw	s0,16(a0)
 610:	0005                	c.nop	1
 612:	0b3a0e03          	lb	t3,179(s4)
 616:	0b390b3b          	0xb390b3b
 61a:	1349                	addi	t1,t1,-14
 61c:	0000                	unimp
 61e:	054a                	slli	a0,a0,0x12
 620:	0300                	addi	s0,sp,384
 622:	3a08                	fld	fa0,48(a2)
 624:	390b3b0b          	0x390b3b0b
 628:	0013490b          	0x13490b
 62c:	4b00                	lw	s0,16(a4)
 62e:	0034                	addi	a3,sp,8
 630:	0b3a0e03          	lb	t3,179(s4)
 634:	0b390b3b          	0xb390b3b
 638:	1349                	addi	t1,t1,-14
 63a:	0000                	unimp
 63c:	2e4c                	fld	fa1,152(a2)
 63e:	3f01                	addiw	t5,t5,-32
 640:	0319                	addi	t1,t1,6
 642:	3a0e                	fld	fs4,224(sp)
 644:	390b3b0b          	0x390b3b0b
 648:	1119270b          	0x1119270b
 64c:	1201                	addi	tp,tp,-32
 64e:	97184007          	flq	ft0,-1679(a6)
 652:	1942                	slli	s2,s2,0x30
 654:	1301                	addi	t1,t1,-32
 656:	0000                	unimp
 658:	344d                	addiw	s0,s0,-13
 65a:	0300                	addi	s0,sp,384
 65c:	3a08                	fld	fa0,48(a2)
 65e:	390b3b0b          	0x390b3b0b
 662:	0213490b          	0x213490b
 666:	0018                	0x18
 668:	4e00                	lw	s0,24(a2)
 66a:	0034                	addi	a3,sp,8
 66c:	0b3a0803          	lb	a6,179(s4)
 670:	0b390b3b          	0xb390b3b
 674:	1349                	addi	t1,t1,-14
 676:	0188                	addi	a0,sp,192
 678:	4f00000b          	0x4f00000b
 67c:	0005                	c.nop	1
 67e:	0b3a0803          	lb	a6,179(s4)
 682:	0b390b3b          	0xb390b3b
 686:	1349                	addi	t1,t1,-14
 688:	1802                	slli	a6,a6,0x20
 68a:	0000                	unimp
 68c:	2e50                	fld	fa2,152(a2)
 68e:	3f01                	addiw	t5,t5,-32
 690:	0319                	addi	t1,t1,6
 692:	3a0e                	fld	fs4,224(sp)
 694:	390b3b0b          	0x390b3b0b
 698:	1201110b          	0x1201110b
 69c:	97184007          	flq	ft0,-1679(a6)
 6a0:	1942                	slli	s2,s2,0x30
 6a2:	1301                	addi	t1,t1,-32
 6a4:	0000                	unimp
 6a6:	8951                	andi	a0,a0,20
 6a8:	0182                	c.slli64	gp
 6aa:	1100                	addi	s0,sp,160
 6ac:	3101                	addiw	sp,sp,-32
 6ae:	52000013          	li	zero,1312
 6b2:	002e                	c.slli	zero,0xb
 6b4:	0e03193f 0b3b0b3a 	0xb3b0b3a0e03193f
 6bc:	0b39                	addi	s6,s6,14
 6be:	0111                	addi	sp,sp,4
 6c0:	0712                	slli	a4,a4,0x4
 6c2:	1840                	addi	s0,sp,52
 6c4:	00194297          	auipc	t0,0x194
 6c8:	5300                	lw	s0,32(a4)
 6ca:	012e                	slli	sp,sp,0xb
 6cc:	0e03193f 0b3b0b3a 	0xb3b0b3a0e03193f
 6d4:	0b39                	addi	s6,s6,14
 6d6:	01871927          	0x1871927
 6da:	1119                	addi	sp,sp,-26
 6dc:	1201                	addi	tp,tp,-32
 6de:	97184007          	flq	ft0,-1679(a6)
 6e2:	1942                	slli	s2,s2,0x30
 6e4:	1301                	addi	t1,t1,-32
 6e6:	0000                	unimp
 6e8:	3454                	fld	fa3,168(s0)
 6ea:	0300                	addi	s0,sp,384
 6ec:	3a0e                	fld	fs4,224(sp)
 6ee:	390b3b0b          	0x390b3b0b
 6f2:	8813490b          	0x8813490b
 6f6:	0b01                	addi	s6,s6,0
 6f8:	1802                	slli	a6,a6,0x20
 6fa:	0000                	unimp
 6fc:	0100                	addi	s0,sp,128
 6fe:	0011                	c.nop	4
 700:	0610                	addi	a2,sp,768
 702:	0111                	addi	sp,sp,4
 704:	0112                	slli	sp,sp,0x4
 706:	0e1b0e03          	lb	t3,225(s6)
 70a:	0e25                	addi	t3,t3,9
 70c:	00000513          	li	a0,0
	...

Disassembly of section .debug_aranges:

0000000000000000 <.debug_aranges>:
   0:	002c                	addi	a1,sp,8
   2:	0000                	unimp
   4:	0002                	c.slli64	zero
   6:	0000                	unimp
   8:	0000                	unimp
   a:	0008                	0x8
   c:	0000                	unimp
   e:	0000                	unimp
  10:	1048                	addi	a0,sp,36
  12:	8000                	0x8000
  14:	0000                	unimp
  16:	0000                	unimp
  18:	0018                	0x18
	...
  2e:	0000                	unimp
  30:	002c                	addi	a1,sp,8
  32:	0000                	unimp
  34:	0002                	c.slli64	zero
  36:	0965                	addi	s2,s2,25
  38:	0000                	unimp
  3a:	0008                	0x8
  3c:	0000                	unimp
  3e:	0000                	unimp
  40:	1060                	addi	s0,sp,44
  42:	8000                	0x8000
  44:	0000                	unimp
  46:	0000                	unimp
  48:	05d4                	addi	a3,sp,708
	...
  5e:	0000                	unimp
  60:	002c                	addi	a1,sp,8
  62:	0000                	unimp
  64:	0002                	c.slli64	zero
  66:	20bd                	addiw	ra,ra,15
  68:	0000                	unimp
  6a:	0008                	0x8
  6c:	0000                	unimp
  6e:	0000                	unimp
  70:	0000                	unimp
  72:	8000                	0x8000
  74:	0000                	unimp
  76:	0000                	unimp
  78:	00f8                	addi	a4,sp,76
	...

Disassembly of section .debug_line:

0000000000000000 <.debug_line>:
       0:	0149                	addi	sp,sp,18
       2:	0000                	unimp
       4:	011e0003          	lb	zero,17(t3) # 61011 <_tbss_end+0x61011>
       8:	0000                	unimp
       a:	0101                	addi	sp,sp,0
       c:	000d0efb          	0xd0efb
      10:	0101                	addi	sp,sp,0
      12:	0101                	addi	sp,sp,0
      14:	0000                	unimp
      16:	0100                	addi	s0,sp,128
      18:	0000                	unimp
      1a:	2e01                	sext.w	t3,t3
      1c:	2f00                	fld	fs0,24(a4)
      1e:	6e69                	lui	t3,0x1a
      20:	656e                	ld	a0,216(sp)
      22:	5f72                	lw	t5,60(sp)
      24:	63617073          	csrci	0x636,2
      28:	2f65                	addiw	t5,t5,25
      2a:	6f74                	ld	a3,216(a4)
      2c:	2f736c6f          	jal	s8,36b22 <_tbss_end+0x36b22>
      30:	6972                	ld	s2,280(sp)
      32:	2d766373          	csrrsi	t1,0x2d7,12
      36:	656e                	ld	a0,216(sp)
      38:	62696c77          	0x62696c77
      3c:	62696c2f          	0x62696c2f
      40:	6363672f          	0x6363672f
      44:	7369722f          	0x7369722f
      48:	34367663          	bgeu	a2,gp,394 <_tbss_end+0x394>
      4c:	752d                	lui	a0,0xfffeb
      4e:	6b6e                	ld	s6,216(sp)
      50:	6f6e                	ld	t5,216(sp)
      52:	652d6e77          	0x652d6e77
      56:	666c                	ld	a1,200(a2)
      58:	322e392f          	0x322e392f
      5c:	302e                	fld	ft0,232(sp)
      5e:	636e692f          	0x636e692f
      62:	756c                	ld	a1,232(a0)
      64:	6564                	ld	s1,200(a0)
      66:	2f00                	fld	fs0,24(a4)
      68:	6e69                	lui	t3,0x1a
      6a:	656e                	ld	a0,216(sp)
      6c:	5f72                	lw	t5,60(sp)
      6e:	63617073          	csrci	0x636,2
      72:	2f65                	addiw	t5,t5,25
      74:	6f74                	ld	a3,216(a4)
      76:	2f736c6f          	jal	s8,36b6c <_tbss_end+0x36b6c>
      7a:	6972                	ld	s2,280(sp)
      7c:	2d766373          	csrrsi	t1,0x2d7,12
      80:	656e                	ld	a0,216(sp)
      82:	62696c77          	0x62696c77
      86:	7369722f          	0x7369722f
      8a:	34367663          	bgeu	a2,gp,3d6 <_tbss_end+0x3d6>
      8e:	752d                	lui	a0,0xfffeb
      90:	6b6e                	ld	s6,216(sp)
      92:	6f6e                	ld	t5,216(sp)
      94:	652d6e77          	0x652d6e77
      98:	666c                	ld	a1,200(a2)
      9a:	636e692f          	0x636e692f
      9e:	756c                	ld	a1,232(a0)
      a0:	6564                	ld	s1,200(a0)
      a2:	7379732f          	0x7379732f
      a6:	2f00                	fld	fs0,24(a4)
      a8:	6e69                	lui	t3,0x1a
      aa:	656e                	ld	a0,216(sp)
      ac:	5f72                	lw	t5,60(sp)
      ae:	63617073          	csrci	0x636,2
      b2:	2f65                	addiw	t5,t5,25
      b4:	6f74                	ld	a3,216(a4)
      b6:	2f736c6f          	jal	s8,36bac <_tbss_end+0x36bac>
      ba:	6972                	ld	s2,280(sp)
      bc:	2d766373          	csrrsi	t1,0x2d7,12
      c0:	656e                	ld	a0,216(sp)
      c2:	62696c77          	0x62696c77
      c6:	7369722f          	0x7369722f
      ca:	34367663          	bgeu	a2,gp,416 <_tbss_end+0x416>
      ce:	752d                	lui	a0,0xfffeb
      d0:	6b6e                	ld	s6,216(sp)
      d2:	6f6e                	ld	t5,216(sp)
      d4:	652d6e77          	0x652d6e77
      d8:	666c                	ld	a1,200(a2)
      da:	636e692f          	0x636e692f
      de:	756c                	ld	a1,232(a0)
      e0:	6564                	ld	s1,200(a0)
      e2:	0000                	unimp
      e4:	6568                	ld	a0,200(a0)
      e6:	6c6c                	ld	a1,216(s0)
      e8:	00632e6f          	jal	t3,320ee <_tbss_end+0x320ee>
      ec:	0001                	nop
      ee:	7300                	ld	s0,32(a4)
      f0:	6474                	ld	a3,200(s0)
      f2:	6564                	ld	s1,200(a0)
      f4:	2e66                	fld	ft8,88(sp)
      f6:	0068                	addi	a0,sp,12
      f8:	0002                	c.slli64	zero
      fa:	5f00                	lw	s0,56(a4)
      fc:	7974                	ld	a3,240(a0)
      fe:	6570                	ld	a2,200(a0)
     100:	00682e73          	csrrs	t3,0x6,a6
     104:	72000003          	lb	zero,1824(zero) # 720 <_tbss_end+0x720>
     108:	6565                	lui	a0,0x19
     10a:	746e                	ld	s0,248(sp)
     10c:	682e                	ld	a6,200(sp)
     10e:	0300                	addi	s0,sp,384
     110:	0000                	unimp
     112:	6f6c                	ld	a1,216(a4)
     114:	682e6b63          	bltu	t3,sp,7aa <_tbss_end+0x7aa>
     118:	0300                	addi	s0,sp,384
     11a:	0000                	unimp
     11c:	69647473          	csrrci	s0,0x696,8
     120:	00682e6f          	jal	t3,82126 <_tbss_end+0x82126>
     124:	0004                	0x4
     126:	0000                	unimp
     128:	0c05                	addi	s8,s8,1
     12a:	0900                	addi	s0,sp,144
     12c:	4802                	lw	a6,0(sp)
     12e:	0010                	0x10
     130:	0080                	addi	s0,sp,64
     132:	0000                	unimp
     134:	1400                	addi	s0,sp,544
     136:	0505                	addi	a0,a0,1
     138:	04090103          	lb	sp,64(s2) # e040 <_tbss_end+0xe040>
     13c:	0100                	addi	s0,sp,128
     13e:	0105                	addi	sp,sp,1
     140:	0306                	slli	t1,t1,0x1
     142:	0901                	addi	s2,s2,0
     144:	000c                	0xc
     146:	0901                	addi	s2,s2,0
     148:	0008                	0x8
     14a:	0100                	addi	s0,sp,128
     14c:	7a01                	lui	s4,0xfffe0
     14e:	0012                	c.slli	zero,0x4
     150:	0300                	addi	s0,sp,384
     152:	a500                	fsd	fs0,8(a0)
     154:	0001                	nop
     156:	0100                	addi	s0,sp,128
     158:	fb01                	bnez	a4,68 <_tbss_end+0x68>
     15a:	0d0e                	slli	s10,s10,0x3
     15c:	0100                	addi	s0,sp,128
     15e:	0101                	addi	sp,sp,0
     160:	0001                	nop
     162:	0000                	unimp
     164:	0001                	nop
     166:	0100                	addi	s0,sp,128
     168:	2f2e                	fld	ft10,200(sp)
     16a:	6d6d6f63          	bltu	s10,s6,848 <_tbss_end+0x848>
     16e:	2f006e6f          	jal	t3,645e <_tbss_end+0x645e>
     172:	6e69                	lui	t3,0x1a
     174:	656e                	ld	a0,216(sp)
     176:	5f72                	lw	t5,60(sp)
     178:	63617073          	csrci	0x636,2
     17c:	2f65                	addiw	t5,t5,25
     17e:	6f74                	ld	a3,216(a4)
     180:	2f736c6f          	jal	s8,36c76 <_tbss_end+0x36c76>
     184:	6972                	ld	s2,280(sp)
     186:	2d766373          	csrrsi	t1,0x2d7,12
     18a:	656e                	ld	a0,216(sp)
     18c:	62696c77          	0x62696c77
     190:	7369722f          	0x7369722f
     194:	34367663          	bgeu	a2,gp,4e0 <_tbss_end+0x4e0>
     198:	752d                	lui	a0,0xfffeb
     19a:	6b6e                	ld	s6,216(sp)
     19c:	6f6e                	ld	t5,216(sp)
     19e:	652d6e77          	0x652d6e77
     1a2:	666c                	ld	a1,200(a2)
     1a4:	636e692f          	0x636e692f
     1a8:	756c                	ld	a1,232(a0)
     1aa:	6564                	ld	s1,200(a0)
     1ac:	63616d2f          	0x63616d2f
     1b0:	6968                	ld	a0,208(a0)
     1b2:	656e                	ld	a0,216(sp)
     1b4:	2f00                	fld	fs0,24(a4)
     1b6:	6e69                	lui	t3,0x1a
     1b8:	656e                	ld	a0,216(sp)
     1ba:	5f72                	lw	t5,60(sp)
     1bc:	63617073          	csrci	0x636,2
     1c0:	2f65                	addiw	t5,t5,25
     1c2:	6f74                	ld	a3,216(a4)
     1c4:	2f736c6f          	jal	s8,36cba <_tbss_end+0x36cba>
     1c8:	6972                	ld	s2,280(sp)
     1ca:	2d766373          	csrrsi	t1,0x2d7,12
     1ce:	656e                	ld	a0,216(sp)
     1d0:	62696c77          	0x62696c77
     1d4:	7369722f          	0x7369722f
     1d8:	34367663          	bgeu	a2,gp,524 <_tbss_end+0x524>
     1dc:	752d                	lui	a0,0xfffeb
     1de:	6b6e                	ld	s6,216(sp)
     1e0:	6f6e                	ld	t5,216(sp)
     1e2:	652d6e77          	0x652d6e77
     1e6:	666c                	ld	a1,200(a2)
     1e8:	636e692f          	0x636e692f
     1ec:	756c                	ld	a1,232(a0)
     1ee:	6564                	ld	s1,200(a0)
     1f0:	7379732f          	0x7379732f
     1f4:	2f00                	fld	fs0,24(a4)
     1f6:	6e69                	lui	t3,0x1a
     1f8:	656e                	ld	a0,216(sp)
     1fa:	5f72                	lw	t5,60(sp)
     1fc:	63617073          	csrci	0x636,2
     200:	2f65                	addiw	t5,t5,25
     202:	6f74                	ld	a3,216(a4)
     204:	2f736c6f          	jal	s8,36cfa <_tbss_end+0x36cfa>
     208:	6972                	ld	s2,280(sp)
     20a:	2d766373          	csrrsi	t1,0x2d7,12
     20e:	656e                	ld	a0,216(sp)
     210:	62696c77          	0x62696c77
     214:	62696c2f          	0x62696c2f
     218:	6363672f          	0x6363672f
     21c:	7369722f          	0x7369722f
     220:	34367663          	bgeu	a2,gp,56c <_tbss_end+0x56c>
     224:	752d                	lui	a0,0xfffeb
     226:	6b6e                	ld	s6,216(sp)
     228:	6f6e                	ld	t5,216(sp)
     22a:	652d6e77          	0x652d6e77
     22e:	666c                	ld	a1,200(a2)
     230:	322e392f          	0x322e392f
     234:	302e                	fld	ft0,232(sp)
     236:	636e692f          	0x636e692f
     23a:	756c                	ld	a1,232(a0)
     23c:	6564                	ld	s1,200(a0)
     23e:	2f00                	fld	fs0,24(a4)
     240:	6e69                	lui	t3,0x1a
     242:	656e                	ld	a0,216(sp)
     244:	5f72                	lw	t5,60(sp)
     246:	63617073          	csrci	0x636,2
     24a:	2f65                	addiw	t5,t5,25
     24c:	6f74                	ld	a3,216(a4)
     24e:	2f736c6f          	jal	s8,36d44 <_tbss_end+0x36d44>
     252:	6972                	ld	s2,280(sp)
     254:	2d766373          	csrrsi	t1,0x2d7,12
     258:	656e                	ld	a0,216(sp)
     25a:	62696c77          	0x62696c77
     25e:	7369722f          	0x7369722f
     262:	34367663          	bgeu	a2,gp,5ae <_tbss_end+0x5ae>
     266:	752d                	lui	a0,0xfffeb
     268:	6b6e                	ld	s6,216(sp)
     26a:	6f6e                	ld	t5,216(sp)
     26c:	652d6e77          	0x652d6e77
     270:	666c                	ld	a1,200(a2)
     272:	636e692f          	0x636e692f
     276:	756c                	ld	a1,232(a0)
     278:	6564                	ld	s1,200(a0)
     27a:	0000                	unimp
     27c:	63737973          	csrrci	s2,0x637,6
     280:	6c61                	lui	s8,0x18
     282:	736c                	ld	a1,224(a4)
     284:	632e                	ld	t1,200(sp)
     286:	0100                	addi	s0,sp,128
     288:	0000                	unimp
     28a:	645f 6665 7561      	0x75616665645f
     290:	746c                	ld	a1,232(s0)
     292:	745f 7079 7365      	0x73657079745f
     298:	682e                	ld	a6,200(sp)
     29a:	0200                	addi	s0,sp,256
     29c:	0000                	unimp
     29e:	735f 6474 6e69      	0x6e696474735f
     2a4:	2e74                	fld	fa3,216(a2)
     2a6:	0068                	addi	a0,sp,12
     2a8:	73000003          	lb	zero,1840(zero) # 730 <_tbss_end+0x730>
     2ac:	6474                	ld	a3,200(s0)
     2ae:	6564                	ld	s1,200(a0)
     2b0:	2e66                	fld	ft8,88(sp)
     2b2:	0068                	addi	a0,sp,12
     2b4:	0004                	0x4
     2b6:	5f00                	lw	s0,56(a4)
     2b8:	7974                	ld	a3,240(a0)
     2ba:	6570                	ld	a2,200(a0)
     2bc:	00682e73          	csrrs	t3,0x6,a6
     2c0:	72000003          	lb	zero,1824(zero) # 720 <_tbss_end+0x720>
     2c4:	6565                	lui	a0,0x19
     2c6:	746e                	ld	s0,248(sp)
     2c8:	682e                	ld	a6,200(sp)
     2ca:	0300                	addi	s0,sp,384
     2cc:	0000                	unimp
     2ce:	6f6c                	ld	a1,216(a4)
     2d0:	682e6b63          	bltu	t3,sp,966 <_tbss_end+0x966>
     2d4:	0300                	addi	s0,sp,384
     2d6:	0000                	unimp
     2d8:	61647473          	csrrci	s0,0x616,8
     2dc:	6772                	ld	a4,280(sp)
     2de:	682e                	ld	a6,200(sp)
     2e0:	0400                	addi	s0,sp,512
     2e2:	0000                	unimp
     2e4:	69727473          	csrrci	s0,0x697,4
     2e8:	676e                	ld	a4,216(sp)
     2ea:	682e                	ld	a6,200(sp)
     2ec:	0500                	addi	s0,sp,640
     2ee:	0000                	unimp
     2f0:	69647473          	csrrci	s0,0x696,8
     2f4:	00682e6f          	jal	t3,822fa <_tbss_end+0x822fa>
     2f8:	0005                	c.nop	1
     2fa:	0000                	unimp
     2fc:	0105                	addi	sp,sp,1
     2fe:	0900                	addi	s0,sp,144
     300:	6002                	0x6002
     302:	0010                	0x10
     304:	0080                	addi	s0,sp,64
     306:	0000                	unimp
     308:	0300                	addi	s0,sp,384
     30a:	00f5                	addi	ra,ra,29
     30c:	0501                	addi	a0,a0,0
     30e:	09010303          	lb	t1,144(sp) # 50b01fe <_tbss_end+0x50b01fe>
     312:	0000                	unimp
     314:	0301                	addi	t1,t1,0
     316:	0901                	addi	s2,s2,0
     318:	0000                	unimp
     31a:	0301                	addi	t1,t1,0
     31c:	0908                	addi	a0,sp,144
     31e:	0012                	c.slli	zero,0x4
     320:	0501                	addi	a0,a0,0
     322:	0601                	addi	a2,a2,0
     324:	00090103          	lb	sp,0(s2)
     328:	0100                	addi	s0,sp,128
     32a:	0306                	slli	t1,t1,0x1
     32c:	00c8                	addi	a0,sp,68
     32e:	0409                	addi	s0,s0,2
     330:	0100                	addi	s0,sp,128
     332:	0305                	addi	t1,t1,1
     334:	00090103          	lb	sp,0(s2)
     338:	0100                	addi	s0,sp,128
     33a:	0605                	addi	a2,a2,1
     33c:	0306                	slli	t1,t1,0x1
     33e:	0900                	addi	s0,sp,144
     340:	0000                	unimp
     342:	0501                	addi	a0,a0,0
     344:	0608                	addi	a0,sp,768
     346:	06090203          	lb	tp,96(s2)
     34a:	0100                	addi	s0,sp,128
     34c:	0b05                	addi	s6,s6,1
     34e:	0306                	slli	t1,t1,0x1
     350:	0900                	addi	s0,sp,144
     352:	0000                	unimp
     354:	0501                	addi	a0,a0,0
     356:	0605                	addi	a2,a2,1
     358:	02090103          	lb	sp,32(s2)
     35c:	0100                	addi	s0,sp,128
     35e:	0c05                	addi	s8,s8,1
     360:	0306                	slli	t1,t1,0x1
     362:	0900                	addi	s0,sp,144
     364:	0000                	unimp
     366:	0501                	addi	a0,a0,0
     368:	0605                	addi	a2,a2,1
     36a:	0c097e03          	0xc097e03
     36e:	0100                	addi	s0,sp,128
     370:	0c05                	addi	s8,s8,1
     372:	0306                	slli	t1,t1,0x1
     374:	0900                	addi	s0,sp,144
     376:	0000                	unimp
     378:	0501                	addi	a0,a0,0
     37a:	0605                	addi	a2,a2,1
     37c:	0c090403          	lb	s0,192(s2)
     380:	0100                	addi	s0,sp,128
     382:	0c05                	addi	s8,s8,1
     384:	0306                	slli	t1,t1,0x1
     386:	0900                	addi	s0,sp,144
     388:	0000                	unimp
     38a:	0501                	addi	a0,a0,0
     38c:	0301                	addi	t1,t1,0
     38e:	0901                	addi	s2,s2,0
     390:	000c                	0xc
     392:	0601                	addi	a2,a2,0
     394:	02090303          	lb	t1,32(s2)
     398:	0100                	addi	s0,sp,128
     39a:	0305                	addi	t1,t1,1
     39c:	00090103          	lb	sp,0(s2)
     3a0:	0100                	addi	s0,sp,128
     3a2:	0605                	addi	a2,a2,1
     3a4:	0306                	slli	t1,t1,0x1
     3a6:	0900                	addi	s0,sp,144
     3a8:	0000                	unimp
     3aa:	0501                	addi	a0,a0,0
     3ac:	0608                	addi	a0,sp,768
     3ae:	06090203          	lb	tp,96(s2)
     3b2:	0100                	addi	s0,sp,128
     3b4:	0b05                	addi	s6,s6,1
     3b6:	0306                	slli	t1,t1,0x1
     3b8:	0900                	addi	s0,sp,144
     3ba:	0000                	unimp
     3bc:	0501                	addi	a0,a0,0
     3be:	0605                	addi	a2,a2,1
     3c0:	02090103          	lb	sp,32(s2)
     3c4:	0100                	addi	s0,sp,128
     3c6:	0c05                	addi	s8,s8,1
     3c8:	0306                	slli	t1,t1,0x1
     3ca:	0900                	addi	s0,sp,144
     3cc:	0000                	unimp
     3ce:	0501                	addi	a0,a0,0
     3d0:	0605                	addi	a2,a2,1
     3d2:	0c097e03          	0xc097e03
     3d6:	0100                	addi	s0,sp,128
     3d8:	0c05                	addi	s8,s8,1
     3da:	0306                	slli	t1,t1,0x1
     3dc:	0900                	addi	s0,sp,144
     3de:	0000                	unimp
     3e0:	0501                	addi	a0,a0,0
     3e2:	0605                	addi	a2,a2,1
     3e4:	0c090403          	lb	s0,192(s2)
     3e8:	0100                	addi	s0,sp,128
     3ea:	0c05                	addi	s8,s8,1
     3ec:	0306                	slli	t1,t1,0x1
     3ee:	0900                	addi	s0,sp,144
     3f0:	0000                	unimp
     3f2:	0501                	addi	a0,a0,0
     3f4:	0301                	addi	t1,t1,0
     3f6:	0901                	addi	s2,s2,0
     3f8:	000a                	c.slli	zero,0x2
     3fa:	0501                	addi	a0,a0,0
     3fc:	ab030603          	lb	a2,-1360(t1)
     400:	0901                	addi	s2,s2,0
     402:	0002                	c.slli64	zero
     404:	0501                	addi	a0,a0,0
     406:	0305                	addi	t1,t1,1
     408:	0901                	addi	s2,s2,0
     40a:	0000                	unimp
     40c:	0301                	addi	t1,t1,0
     40e:	0901                	addi	s2,s2,0
     410:	0000                	unimp
     412:	0501                	addi	a0,a0,0
     414:	0606                	slli	a2,a2,0x1
     416:	00090003          	lb	zero,0(s2)
     41a:	0100                	addi	s0,sp,128
     41c:	0c05                	addi	s8,s8,1
     41e:	02090003          	lb	zero,32(s2)
     422:	0100                	addi	s0,sp,128
     424:	0505                	addi	a0,a0,1
     426:	0306                	slli	t1,t1,0x1
     428:	0901                	addi	s2,s2,0
     42a:	0004                	0x4
     42c:	0501                	addi	a0,a0,0
     42e:	0606                	slli	a2,a2,0x1
     430:	00090003          	lb	zero,0(s2)
     434:	0100                	addi	s0,sp,128
     436:	0c05                	addi	s8,s8,1
     438:	02090003          	lb	zero,32(s2)
     43c:	0100                	addi	s0,sp,128
     43e:	0305                	addi	t1,t1,1
     440:	04090103          	lb	sp,64(s2)
     444:	0100                	addi	s0,sp,128
     446:	0105                	addi	sp,sp,1
     448:	0306                	slli	t1,t1,0x1
     44a:	7d8e                	ld	s11,224(sp)
     44c:	0209                	addi	tp,tp,2
     44e:	0100                	addi	s0,sp,128
     450:	0305                	addi	t1,t1,1
     452:	0a090103          	lb	sp,160(s2)
     456:	0100                	addi	s0,sp,128
     458:	00090103          	lb	sp,0(s2)
     45c:	0100                	addi	s0,sp,128
     45e:	1005                	c.nop	-31
     460:	0306                	slli	t1,t1,0x1
     462:	0900                	addi	s0,sp,144
     464:	0000                	unimp
     466:	0501                	addi	a0,a0,0
     468:	01030603          	lb	a2,16(t1)
     46c:	0209                	addi	tp,tp,2
     46e:	0100                	addi	s0,sp,128
     470:	1005                	c.nop	-31
     472:	0306                	slli	t1,t1,0x1
     474:	0900                	addi	s0,sp,144
     476:	0000                	unimp
     478:	0501                	addi	a0,a0,0
     47a:	01030603          	lb	a2,16(t1)
     47e:	0209                	addi	tp,tp,2
     480:	0100                	addi	s0,sp,128
     482:	1005                	c.nop	-31
     484:	0306                	slli	t1,t1,0x1
     486:	0900                	addi	s0,sp,144
     488:	0000                	unimp
     48a:	0501                	addi	a0,a0,0
     48c:	01030603          	lb	a2,16(t1)
     490:	0209                	addi	tp,tp,2
     492:	0100                	addi	s0,sp,128
     494:	1005                	c.nop	-31
     496:	0306                	slli	t1,t1,0x1
     498:	0900                	addi	s0,sp,144
     49a:	0000                	unimp
     49c:	0501                	addi	a0,a0,0
     49e:	01030603          	lb	a2,16(t1)
     4a2:	0209                	addi	tp,tp,2
     4a4:	0100                	addi	s0,sp,128
     4a6:	04090203          	lb	tp,64(s2)
     4aa:	0100                	addi	s0,sp,128
     4ac:	0a05                	addi	s4,s4,1
     4ae:	0306                	slli	t1,t1,0x1
     4b0:	0900                	addi	s0,sp,144
     4b2:	0000                	unimp
     4b4:	0501                	addi	a0,a0,0
     4b6:	01030603          	lb	a2,16(t1)
     4ba:	0809                	addi	a6,a6,2
     4bc:	0100                	addi	s0,sp,128
     4be:	0505                	addi	a0,a0,1
     4c0:	0200                	addi	s0,sp,256
     4c2:	0104                	addi	s1,sp,128
     4c4:	00090103          	lb	sp,0(s2)
     4c8:	0100                	addi	s0,sp,128
     4ca:	0905                	addi	s2,s2,1
     4cc:	0200                	addi	s0,sp,256
     4ce:	0104                	addi	s1,sp,128
     4d0:	00097f03          	0x97f03
     4d4:	0100                	addi	s0,sp,128
     4d6:	1305                	addi	t1,t1,-31
     4d8:	0200                	addi	s0,sp,256
     4da:	0104                	addi	s1,sp,128
     4dc:	0306                	slli	t1,t1,0x1
     4de:	0900                	addi	s0,sp,144
     4e0:	0000                	unimp
     4e2:	0501                	addi	a0,a0,0
     4e4:	0009                	c.nop	2
     4e6:	0402                	c.slli64	s0
     4e8:	0301                	addi	t1,t1,0
     4ea:	0900                	addi	s0,sp,144
     4ec:	0008                	0x8
     4ee:	0501                	addi	a0,a0,0
     4f0:	02030603          	lb	a2,32(t1)
     4f4:	0209                	addi	tp,tp,2
     4f6:	0100                	addi	s0,sp,128
     4f8:	0c05                	addi	s8,s8,1
     4fa:	0306                	slli	t1,t1,0x1
     4fc:	0900                	addi	s0,sp,144
     4fe:	0000                	unimp
     500:	0501                	addi	a0,a0,0
     502:	02030603          	lb	a2,32(t1)
     506:	0809                	addi	a6,a6,2
     508:	0100                	addi	s0,sp,128
     50a:	04090103          	lb	sp,64(s2)
     50e:	0100                	addi	s0,sp,128
     510:	1305                	addi	t1,t1,-31
     512:	0306                	slli	t1,t1,0x1
     514:	0900                	addi	s0,sp,144
     516:	0000                	unimp
     518:	0501                	addi	a0,a0,0
     51a:	0301                	addi	t1,t1,0
     51c:	0901                	addi	s2,s2,0
     51e:	0002                	c.slli64	zero
     520:	0601                	addi	a2,a2,0
     522:	04090303          	lb	t1,64(s2)
     526:	0100                	addi	s0,sp,128
     528:	0305                	addi	t1,t1,1
     52a:	00090103          	lb	sp,0(s2)
     52e:	0100                	addi	s0,sp,128
     530:	1205                	addi	tp,tp,-31
     532:	0306                	slli	t1,t1,0x1
     534:	0900                	addi	s0,sp,144
     536:	0000                	unimp
     538:	0501                	addi	a0,a0,0
     53a:	0318                	addi	a4,sp,384
     53c:	0900                	addi	s0,sp,144
     53e:	0004                	0x4
     540:	0501                	addi	a0,a0,0
     542:	030a                	slli	t1,t1,0x2
     544:	0900                	addi	s0,sp,144
     546:	0004                	0x4
     548:	0501                	addi	a0,a0,0
     54a:	04020003          	lb	zero,64(tp) # fffffffffffe1040 <__global_pointer$+0xffffffff7ffdf024>
     54e:	0601                	addi	a2,a2,0
     550:	08090103          	lb	sp,128(s2)
     554:	0100                	addi	s0,sp,128
     556:	0c05                	addi	s8,s8,1
     558:	0200                	addi	s0,sp,256
     55a:	0104                	addi	s1,sp,128
     55c:	00090003          	lb	zero,0(s2)
     560:	0100                	addi	s0,sp,128
     562:	0905                	addi	s2,s2,1
     564:	0200                	addi	s0,sp,256
     566:	0104                	addi	s1,sp,128
     568:	00090003          	lb	zero,0(s2)
     56c:	0100                	addi	s0,sp,128
     56e:	0105                	addi	sp,sp,1
     570:	02090403          	lb	s0,32(s2)
     574:	0100                	addi	s0,sp,128
     576:	0405                	addi	s0,s0,1
     578:	00090203          	lb	tp,0(s2)
     57c:	0100                	addi	s0,sp,128
     57e:	0205                	addi	tp,tp,1
     580:	0200                	addi	s0,sp,256
     582:	0104                	addi	s1,sp,128
     584:	14090f03          	lb	t5,320(s2)
     588:	0100                	addi	s0,sp,128
     58a:	0a05                	addi	s4,s4,1
     58c:	0200                	addi	s0,sp,256
     58e:	0104                	addi	s1,sp,128
     590:	00090003          	lb	zero,0(s2)
     594:	0100                	addi	s0,sp,128
     596:	0705                	addi	a4,a4,1
     598:	0200                	addi	s0,sp,256
     59a:	0104                	addi	s1,sp,128
     59c:	00090003          	lb	zero,0(s2)
     5a0:	0100                	addi	s0,sp,128
     5a2:	0105                	addi	sp,sp,1
     5a4:	02090603          	lb	a2,32(s2)
     5a8:	0100                	addi	s0,sp,128
     5aa:	0305                	addi	t1,t1,1
     5ac:	00090103          	lb	sp,0(s2)
     5b0:	0100                	addi	s0,sp,128
     5b2:	00090803          	lb	a6,0(s2)
     5b6:	0100                	addi	s0,sp,128
     5b8:	00090003          	lb	zero,0(s2)
     5bc:	0100                	addi	s0,sp,128
     5be:	00090003          	lb	zero,0(s2)
     5c2:	0100                	addi	s0,sp,128
     5c4:	00090003          	lb	zero,0(s2)
     5c8:	0100                	addi	s0,sp,128
     5ca:	00090003          	lb	zero,0(s2)
     5ce:	0100                	addi	s0,sp,128
     5d0:	00090003          	lb	zero,0(s2)
     5d4:	0100                	addi	s0,sp,128
     5d6:	00090003          	lb	zero,0(s2)
     5da:	0100                	addi	s0,sp,128
     5dc:	04090003          	lb	zero,64(s2)
     5e0:	0100                	addi	s0,sp,128
     5e2:	00090003          	lb	zero,0(s2)
     5e6:	0100                	addi	s0,sp,128
     5e8:	0200                	addi	s0,sp,256
     5ea:	0304                	addi	s1,sp,384
     5ec:	02090003          	lb	zero,32(s2)
     5f0:	0100                	addi	s0,sp,128
     5f2:	0200                	addi	s0,sp,256
     5f4:	0304                	addi	s1,sp,384
     5f6:	0c090003          	lb	zero,192(s2)
     5fa:	0100                	addi	s0,sp,128
     5fc:	0200                	addi	s0,sp,256
     5fe:	0504                	addi	s1,sp,640
     600:	0a090003          	lb	zero,160(s2)
     604:	0100                	addi	s0,sp,128
     606:	0200                	addi	s0,sp,256
     608:	0504                	addi	s1,sp,640
     60a:	08090003          	lb	zero,128(s2)
     60e:	0100                	addi	s0,sp,128
     610:	0200                	addi	s0,sp,256
     612:	0504                	addi	s1,sp,640
     614:	00090103          	lb	sp,0(s2)
     618:	0100                	addi	s0,sp,128
     61a:	0200                	addi	s0,sp,256
     61c:	0504                	addi	s1,sp,640
     61e:	00090003          	lb	zero,0(s2)
     622:	0100                	addi	s0,sp,128
     624:	0200                	addi	s0,sp,256
     626:	0504                	addi	s1,sp,640
     628:	00090003          	lb	zero,0(s2)
     62c:	0100                	addi	s0,sp,128
     62e:	0200                	addi	s0,sp,256
     630:	0504                	addi	s1,sp,640
     632:	00090003          	lb	zero,0(s2)
     636:	0100                	addi	s0,sp,128
     638:	0200                	addi	s0,sp,256
     63a:	0504                	addi	s1,sp,640
     63c:	00090003          	lb	zero,0(s2)
     640:	0100                	addi	s0,sp,128
     642:	0200                	addi	s0,sp,256
     644:	0504                	addi	s1,sp,640
     646:	00090003          	lb	zero,0(s2)
     64a:	0100                	addi	s0,sp,128
     64c:	0200                	addi	s0,sp,256
     64e:	0504                	addi	s1,sp,640
     650:	00090003          	lb	zero,0(s2)
     654:	0100                	addi	s0,sp,128
     656:	0200                	addi	s0,sp,256
     658:	0504                	addi	s1,sp,640
     65a:	04090003          	lb	zero,64(s2)
     65e:	0100                	addi	s0,sp,128
     660:	0200                	addi	s0,sp,256
     662:	0504                	addi	s1,sp,640
     664:	00090003          	lb	zero,0(s2)
     668:	0100                	addi	s0,sp,128
     66a:	0200                	addi	s0,sp,256
     66c:	0304                	addi	s1,sp,384
     66e:	02090003          	lb	zero,32(s2)
     672:	0100                	addi	s0,sp,128
     674:	0200                	addi	s0,sp,256
     676:	0304                	addi	s1,sp,384
     678:	0c090003          	lb	zero,192(s2)
     67c:	0100                	addi	s0,sp,128
     67e:	0200                	addi	s0,sp,256
     680:	0504                	addi	s1,sp,640
     682:	0a090003          	lb	zero,160(s2)
     686:	0100                	addi	s0,sp,128
     688:	0200                	addi	s0,sp,256
     68a:	0504                	addi	s1,sp,640
     68c:	08090003          	lb	zero,128(s2)
     690:	0100                	addi	s0,sp,128
     692:	0105                	addi	sp,sp,1
     694:	0200                	addi	s0,sp,256
     696:	0504                	addi	s1,sp,640
     698:	0306                	slli	t1,t1,0x1
     69a:	00000903          	lb	s2,0(zero) # 0 <_tbss_end>
     69e:	0601                	addi	a2,a2,0
     6a0:	02090903          	lb	s2,32(s2)
     6a4:	0100                	addi	s0,sp,128
     6a6:	0305                	addi	t1,t1,1
     6a8:	04090103          	lb	sp,64(s2)
     6ac:	0100                	addi	s0,sp,128
     6ae:	0105                	addi	sp,sp,1
     6b0:	04090903          	lb	s2,64(s2)
     6b4:	0100                	addi	s0,sp,128
     6b6:	1305                	addi	t1,t1,-31
     6b8:	0200                	addi	s0,sp,256
     6ba:	0104                	addi	s1,sp,128
     6bc:	00090303          	lb	t1,0(s2)
     6c0:	0100                	addi	s0,sp,128
     6c2:	0905                	addi	s2,s2,1
     6c4:	0200                	addi	s0,sp,256
     6c6:	0104                	addi	s1,sp,128
     6c8:	00090003          	lb	zero,0(s2)
     6cc:	0100                	addi	s0,sp,128
     6ce:	0105                	addi	sp,sp,1
     6d0:	0306                	slli	t1,t1,0x1
     6d2:	0901                	addi	s2,s2,0
     6d4:	0002                	c.slli64	zero
     6d6:	0601                	addi	a2,a2,0
     6d8:	0902a903          	lw	s2,144(t0) # 194754 <_tbss_end+0x194754>
     6dc:	0002                	c.slli64	zero
     6de:	0501                	addi	a0,a0,0
     6e0:	09010303          	lb	t1,144(sp)
     6e4:	0000                	unimp
     6e6:	0501                	addi	a0,a0,0
     6e8:	0619                	addi	a2,a2,6
     6ea:	00090003          	lb	zero,0(s2)
     6ee:	0100                	addi	s0,sp,128
     6f0:	2a05                	addiw	s4,s4,1
     6f2:	04090003          	lb	zero,64(s2)
     6f6:	0100                	addi	s0,sp,128
     6f8:	3105                	addiw	sp,sp,-31
     6fa:	02090003          	lb	zero,32(s2)
     6fe:	0100                	addi	s0,sp,128
     700:	0605                	addi	a2,a2,1
     702:	02090003          	lb	zero,32(s2)
     706:	0100                	addi	s0,sp,128
     708:	0b05                	addi	s6,s6,1
     70a:	02090703          	lb	a4,32(s2)
     70e:	0100                	addi	s0,sp,128
     710:	0306                	slli	t1,t1,0x1
     712:	0901                	addi	s2,s2,0
     714:	0002                	c.slli64	zero
     716:	0501                	addi	a0,a0,0
     718:	061d                	addi	a2,a2,7
     71a:	00090003          	lb	zero,0(s2)
     71e:	0100                	addi	s0,sp,128
     720:	0b05                	addi	s6,s6,1
     722:	04090003          	lb	zero,64(s2)
     726:	0100                	addi	s0,sp,128
     728:	0705                	addi	a4,a4,1
     72a:	0306                	slli	t1,t1,0x1
     72c:	0901                	addi	s2,s2,0
     72e:	0004                	0x4
     730:	0501                	addi	a0,a0,0
     732:	060e                	slli	a2,a2,0x3
     734:	00090003          	lb	zero,0(s2)
     738:	0100                	addi	s0,sp,128
     73a:	0c05                	addi	s8,s8,1
     73c:	04090003          	lb	zero,64(s2)
     740:	0100                	addi	s0,sp,128
     742:	0905                	addi	s2,s2,1
     744:	04090003          	lb	zero,64(s2)
     748:	0100                	addi	s0,sp,128
     74a:	1005                	c.nop	-31
     74c:	02090003          	lb	zero,32(s2)
     750:	0100                	addi	s0,sp,128
     752:	04097903          	0x4097903
     756:	0100                	addi	s0,sp,128
     758:	0b05                	addi	s6,s6,1
     75a:	0306                	slli	t1,t1,0x1
     75c:	0901                	addi	s2,s2,0
     75e:	0002                	c.slli64	zero
     760:	0501                	addi	a0,a0,0
     762:	0622                	slli	a2,a2,0x8
     764:	00090003          	lb	zero,0(s2)
     768:	0100                	addi	s0,sp,128
     76a:	0b05                	addi	s6,s6,1
     76c:	04090003          	lb	zero,64(s2)
     770:	0100                	addi	s0,sp,128
     772:	0705                	addi	a4,a4,1
     774:	0306                	slli	t1,t1,0x1
     776:	0901                	addi	s2,s2,0
     778:	0004                	0x4
     77a:	0501                	addi	a0,a0,0
     77c:	060e                	slli	a2,a2,0x3
     77e:	00090003          	lb	zero,0(s2)
     782:	0100                	addi	s0,sp,128
     784:	0c05                	addi	s8,s8,1
     786:	02090003          	lb	zero,32(s2)
     78a:	0100                	addi	s0,sp,128
     78c:	0905                	addi	s2,s2,1
     78e:	02090003          	lb	zero,32(s2)
     792:	0100                	addi	s0,sp,128
     794:	1005                	c.nop	-31
     796:	02090003          	lb	zero,32(s2)
     79a:	0100                	addi	s0,sp,128
     79c:	0305                	addi	t1,t1,1
     79e:	0306                	slli	t1,t1,0x1
     7a0:	00060907          	0x60907
     7a4:	0501                	addi	a0,a0,0
     7a6:	0601                	addi	a2,a2,0
     7a8:	00090103          	lb	sp,0(s2)
     7ac:	0100                	addi	s0,sp,128
     7ae:	0306                	slli	t1,t1,0x1
     7b0:	00020903          	lb	s2,0(tp) # 0 <_tbss_end>
     7b4:	0501                	addi	a0,a0,0
     7b6:	09010303          	lb	t1,144(sp)
     7ba:	0000                	unimp
     7bc:	0501                	addi	a0,a0,0
     7be:	0619                	addi	a2,a2,6
     7c0:	00090003          	lb	zero,0(s2)
     7c4:	0100                	addi	s0,sp,128
     7c6:	2005                	0x2005
     7c8:	04090003          	lb	zero,64(s2)
     7cc:	0100                	addi	s0,sp,128
     7ce:	0605                	addi	a2,a2,1
     7d0:	02090003          	lb	zero,32(s2)
     7d4:	0100                	addi	s0,sp,128
     7d6:	0505                	addi	a0,a0,1
     7d8:	0306                	slli	t1,t1,0x1
     7da:	0901                	addi	s2,s2,0
     7dc:	0002                	c.slli64	zero
     7de:	0501                	addi	a0,a0,0
     7e0:	0003060f          	0x3060f
     7e4:	0009                	c.nop	2
     7e6:	0100                	addi	s0,sp,128
     7e8:	0505                	addi	a0,a0,1
     7ea:	0306                	slli	t1,t1,0x1
     7ec:	0901                	addi	s2,s2,0
     7ee:	0004                	0x4
     7f0:	0501                	addi	a0,a0,0
     7f2:	0612                	slli	a2,a2,0x4
     7f4:	00090003          	lb	zero,0(s2)
     7f8:	0100                	addi	s0,sp,128
     7fa:	0a05                	addi	s4,s4,1
     7fc:	04090003          	lb	zero,64(s2)
     800:	0100                	addi	s0,sp,128
     802:	0505                	addi	a0,a0,1
     804:	0306                	slli	t1,t1,0x1
     806:	0901                	addi	s2,s2,0
     808:	0002                	c.slli64	zero
     80a:	0501                	addi	a0,a0,0
     80c:	0612                	slli	a2,a2,0x4
     80e:	00090003          	lb	zero,0(s2)
     812:	0100                	addi	s0,sp,128
     814:	0a05                	addi	s4,s4,1
     816:	04090003          	lb	zero,64(s2)
     81a:	0100                	addi	s0,sp,128
     81c:	0505                	addi	a0,a0,1
     81e:	0306                	slli	t1,t1,0x1
     820:	0901                	addi	s2,s2,0
     822:	0002                	c.slli64	zero
     824:	0501                	addi	a0,a0,0
     826:	0618                	addi	a4,sp,768
     828:	00090003          	lb	zero,0(s2)
     82c:	0100                	addi	s0,sp,128
     82e:	0a05                	addi	s4,s4,1
     830:	04090003          	lb	zero,64(s2)
     834:	0100                	addi	s0,sp,128
     836:	0505                	addi	a0,a0,1
     838:	0306                	slli	t1,t1,0x1
     83a:	0902                	c.slli64	s2
     83c:	0002                	c.slli64	zero
     83e:	0301                	addi	t1,t1,0
     840:	0901                	addi	s2,s2,0
     842:	0000                	unimp
     844:	0501                	addi	a0,a0,0
     846:	0610                	addi	a2,sp,768
     848:	00097f03          	0x97f03
     84c:	0100                	addi	s0,sp,128
     84e:	0b05                	addi	s6,s6,1
     850:	0306                	slli	t1,t1,0x1
     852:	0901                	addi	s2,s2,0
     854:	0002                	c.slli64	zero
     856:	0501                	addi	a0,a0,0
     858:	0622                	slli	a2,a2,0x8
     85a:	00090003          	lb	zero,0(s2)
     85e:	0100                	addi	s0,sp,128
     860:	0b05                	addi	s6,s6,1
     862:	04090003          	lb	zero,64(s2)
     866:	0100                	addi	s0,sp,128
     868:	0705                	addi	a4,a4,1
     86a:	0306                	slli	t1,t1,0x1
     86c:	0901                	addi	s2,s2,0
     86e:	0004                	0x4
     870:	0501                	addi	a0,a0,0
     872:	060c                	addi	a1,sp,768
     874:	00090003          	lb	zero,0(s2)
     878:	0100                	addi	s0,sp,128
     87a:	0905                	addi	s2,s2,1
     87c:	02090003          	lb	zero,32(s2)
     880:	0100                	addi	s0,sp,128
     882:	0b05                	addi	s6,s6,1
     884:	06090203          	lb	tp,96(s2)
     888:	0100                	addi	s0,sp,128
     88a:	0306                	slli	t1,t1,0x1
     88c:	0901                	addi	s2,s2,0
     88e:	0002                	c.slli64	zero
     890:	0501                	addi	a0,a0,0
     892:	061d                	addi	a2,a2,7
     894:	00090003          	lb	zero,0(s2)
     898:	0100                	addi	s0,sp,128
     89a:	0b05                	addi	s6,s6,1
     89c:	04090003          	lb	zero,64(s2)
     8a0:	0100                	addi	s0,sp,128
     8a2:	0705                	addi	a4,a4,1
     8a4:	0306                	slli	t1,t1,0x1
     8a6:	0901                	addi	s2,s2,0
     8a8:	0004                	0x4
     8aa:	0501                	addi	a0,a0,0
     8ac:	060c                	addi	a1,sp,768
     8ae:	00090003          	lb	zero,0(s2)
     8b2:	0100                	addi	s0,sp,128
     8b4:	0905                	addi	s2,s2,1
     8b6:	04090003          	lb	zero,64(s2)
     8ba:	0100                	addi	s0,sp,128
     8bc:	0305                	addi	t1,t1,1
     8be:	0306                	slli	t1,t1,0x1
     8c0:	0902                	c.slli64	s2
     8c2:	0004                	0x4
     8c4:	0501                	addi	a0,a0,0
     8c6:	0601                	addi	a2,a2,0
     8c8:	00090103          	lb	sp,0(s2)
     8cc:	0100                	addi	s0,sp,128
     8ce:	0306                	slli	t1,t1,0x1
     8d0:	00020903          	lb	s2,0(tp) # 0 <_tbss_end>
     8d4:	0501                	addi	a0,a0,0
     8d6:	09010303          	lb	t1,144(sp)
     8da:	0000                	unimp
     8dc:	0301                	addi	t1,t1,0
     8de:	0901                	addi	s2,s2,0
     8e0:	0000                	unimp
     8e2:	0501                	addi	a0,a0,0
     8e4:	7f03060f          	0x7f03060f
     8e8:	0009                	c.nop	2
     8ea:	0100                	addi	s0,sp,128
     8ec:	0905                	addi	s2,s2,1
     8ee:	0306                	slli	t1,t1,0x1
     8f0:	0901                	addi	s2,s2,0
     8f2:	0002                	c.slli64	zero
     8f4:	0501                	addi	a0,a0,0
     8f6:	060a                	slli	a2,a2,0x2
     8f8:	00090003          	lb	zero,0(s2)
     8fc:	0100                	addi	s0,sp,128
     8fe:	0905                	addi	s2,s2,1
     900:	04090003          	lb	zero,64(s2)
     904:	0100                	addi	s0,sp,128
     906:	0505                	addi	a0,a0,1
     908:	0306                	slli	t1,t1,0x1
     90a:	0901                	addi	s2,s2,0
     90c:	0002                	c.slli64	zero
     90e:	0501                	addi	a0,a0,0
     910:	0606                	slli	a2,a2,0x1
     912:	00090003          	lb	zero,0(s2)
     916:	0100                	addi	s0,sp,128
     918:	0305                	addi	t1,t1,1
     91a:	0306                	slli	t1,t1,0x1
     91c:	0901                	addi	s2,s2,0
     91e:	0004                	0x4
     920:	0501                	addi	a0,a0,0
     922:	0601                	addi	a2,a2,0
     924:	00090103          	lb	sp,0(s2)
     928:	0100                	addi	s0,sp,128
     92a:	0306                	slli	t1,t1,0x1
     92c:	7da6                	ld	s11,104(sp)
     92e:	0609                	addi	a2,a2,2
     930:	0100                	addi	s0,sp,128
     932:	0305                	addi	t1,t1,1
     934:	08090103          	lb	sp,128(s2)
     938:	0100                	addi	s0,sp,128
     93a:	0105                	addi	sp,sp,1
     93c:	0306                	slli	t1,t1,0x1
     93e:	0901                	addi	s2,s2,0
     940:	0012                	c.slli	zero,0x4
     942:	0601                	addi	a2,a2,0
     944:	08090a03          	lb	s4,128(s2)
     948:	0100                	addi	s0,sp,128
     94a:	0305                	addi	t1,t1,1
     94c:	04090203          	lb	tp,64(s2)
     950:	0100                	addi	s0,sp,128
     952:	0c090103          	lb	sp,192(s2)
     956:	0100                	addi	s0,sp,128
     958:	0105                	addi	sp,sp,1
     95a:	0306                	slli	t1,t1,0x1
     95c:	0901                	addi	s2,s2,0
     95e:	0000                	unimp
     960:	0601                	addi	a2,a2,0
     962:	08093503          	ld	a0,128(s2)
     966:	0100                	addi	s0,sp,128
     968:	0305                	addi	t1,t1,1
     96a:	04090103          	lb	sp,64(s2)
     96e:	0100                	addi	s0,sp,128
     970:	00090103          	lb	sp,0(s2)
     974:	0100                	addi	s0,sp,128
     976:	00090103          	lb	sp,0(s2)
     97a:	0100                	addi	s0,sp,128
     97c:	0a05                	addi	s4,s4,1
     97e:	0306                	slli	t1,t1,0x1
     980:	0900                	addi	s0,sp,144
     982:	0000                	unimp
     984:	0501                	addi	a0,a0,0
     986:	09000303          	lb	t1,144(zero) # 90 <_tbss_end+0x90>
     98a:	0002                	c.slli64	zero
     98c:	0501                	addi	a0,a0,0
     98e:	0902031b          	addiw	t1,tp,144
     992:	0002                	c.slli64	zero
     994:	0501                	addi	a0,a0,0
     996:	0402000b          	0x402000b
     99a:	0304                	addi	s1,sp,384
     99c:	0900                	addi	s0,sp,144
     99e:	0004                	0x4
     9a0:	0501                	addi	a0,a0,0
     9a2:	0402001b          	addiw	zero,tp,64
     9a6:	0304                	addi	s1,sp,384
     9a8:	0900                	addi	s0,sp,144
     9aa:	0004                	0x4
     9ac:	0501                	addi	a0,a0,0
     9ae:	0402000f          	0x402000f
     9b2:	0304                	addi	s1,sp,384
     9b4:	0900                	addi	s0,sp,144
     9b6:	0002                	c.slli64	zero
     9b8:	0501                	addi	a0,a0,0
     9ba:	0005                	c.nop	1
     9bc:	0402                	c.slli64	s0
     9be:	0604                	addi	s1,sp,768
     9c0:	08090103          	lb	sp,128(s2)
     9c4:	0100                	addi	s0,sp,128
     9c6:	0705                	addi	a4,a4,1
     9c8:	0200                	addi	s0,sp,256
     9ca:	0404                	addi	s1,sp,512
     9cc:	0306                	slli	t1,t1,0x1
     9ce:	0900                	addi	s0,sp,144
     9d0:	0000                	unimp
     9d2:	0501                	addi	a0,a0,0
     9d4:	04020017          	auipc	zero,0x4020
     9d8:	0604                	addi	s1,sp,768
     9da:	02097d03          	0x2097d03
     9de:	0100                	addi	s0,sp,128
     9e0:	1805                	addi	a6,a6,-31
     9e2:	0200                	addi	s0,sp,256
     9e4:	0404                	addi	s1,sp,512
     9e6:	0306                	slli	t1,t1,0x1
     9e8:	0900                	addi	s0,sp,144
     9ea:	0000                	unimp
     9ec:	0501                	addi	a0,a0,0
     9ee:	0402000f          	0x402000f
     9f2:	0602                	c.slli64	a2
     9f4:	02090003          	lb	zero,32(s2)
     9f8:	0100                	addi	s0,sp,128
     9fa:	0305                	addi	t1,t1,1
     9fc:	0200                	addi	s0,sp,256
     9fe:	0204                	addi	s1,sp,256
     a00:	0306                	slli	t1,t1,0x1
     a02:	0900                	addi	s0,sp,144
     a04:	0000                	unimp
     a06:	0501                	addi	a0,a0,0
     a08:	0605                	addi	a2,a2,1
     a0a:	06090203          	lb	tp,96(s2)
     a0e:	0100                	addi	s0,sp,128
     a10:	1405                	addi	s0,s0,-31
     a12:	0306                	slli	t1,t1,0x1
     a14:	0900                	addi	s0,sp,144
     a16:	0000                	unimp
     a18:	0501                	addi	a0,a0,0
     a1a:	0900031b          	addiw	t1,zero,144
     a1e:	0004                	0x4
     a20:	0501                	addi	a0,a0,0
     a22:	03030603          	lb	a2,48(t1)
     a26:	0c09                	addi	s8,s8,2
     a28:	0100                	addi	s0,sp,128
     a2a:	0b05                	addi	s6,s6,1
     a2c:	0306                	slli	t1,t1,0x1
     a2e:	0900                	addi	s0,sp,144
     a30:	0000                	unimp
     a32:	0501                	addi	a0,a0,0
     a34:	02030603          	lb	a2,32(t1)
     a38:	0409                	addi	s0,s0,2
     a3a:	0100                	addi	s0,sp,128
     a3c:	0105                	addi	sp,sp,1
     a3e:	0306                	slli	t1,t1,0x1
     a40:	0901                	addi	s2,s2,0
     a42:	0006                	c.slli	zero,0x1
     a44:	0601                	addi	a2,a2,0
     a46:	09028d03          	lb	s10,144(t0)
     a4a:	0006                	c.slli	zero,0x1
     a4c:	0501                	addi	a0,a0,0
     a4e:	09010303          	lb	t1,144(sp)
     a52:	0000                	unimp
     a54:	0301                	addi	t1,t1,0
     a56:	0901                	addi	s2,s2,0
     a58:	0000                	unimp
     a5a:	0501                	addi	a0,a0,0
     a5c:	7f03060f          	0x7f03060f
     a60:	0009                	c.nop	2
     a62:	0100                	addi	s0,sp,128
     a64:	0905                	addi	s2,s2,1
     a66:	0306                	slli	t1,t1,0x1
     a68:	0901                	addi	s2,s2,0
     a6a:	0002                	c.slli64	zero
     a6c:	0501                	addi	a0,a0,0
     a6e:	0003060b          	0x3060b
     a72:	0009                	c.nop	2
     a74:	0100                	addi	s0,sp,128
     a76:	0905                	addi	s2,s2,1
     a78:	04090003          	lb	zero,64(s2)
     a7c:	0100                	addi	s0,sp,128
     a7e:	1105                	addi	sp,sp,-31
     a80:	0200                	addi	s0,sp,256
     a82:	0104                	addi	s1,sp,128
     a84:	02090003          	lb	zero,32(s2)
     a88:	0100                	addi	s0,sp,128
     a8a:	0e05                	addi	t3,t3,1
     a8c:	0200                	addi	s0,sp,256
     a8e:	0104                	addi	s1,sp,128
     a90:	04090003          	lb	zero,64(s2)
     a94:	0100                	addi	s0,sp,128
     a96:	0505                	addi	a0,a0,1
     a98:	0306                	slli	t1,t1,0x1
     a9a:	0901                	addi	s2,s2,0
     a9c:	0002                	c.slli64	zero
     a9e:	0501                	addi	a0,a0,0
     aa0:	0606                	slli	a2,a2,0x1
     aa2:	00090003          	lb	zero,0(s2)
     aa6:	0100                	addi	s0,sp,128
     aa8:	0b05                	addi	s6,s6,1
     aaa:	02097f03          	0x2097f03
     aae:	0100                	addi	s0,sp,128
     ab0:	0305                	addi	t1,t1,1
     ab2:	0306                	slli	t1,t1,0x1
     ab4:	0902                	c.slli64	s2
     ab6:	0004                	0x4
     ab8:	0501                	addi	a0,a0,0
     aba:	0601                	addi	a2,a2,0
     abc:	00090103          	lb	sp,0(s2)
     ac0:	0100                	addi	s0,sp,128
     ac2:	0306                	slli	t1,t1,0x1
     ac4:	7e9a                	ld	t4,416(sp)
     ac6:	0609                	addi	a2,a2,2
     ac8:	0100                	addi	s0,sp,128
     aca:	0b05                	addi	s6,s6,1
     acc:	1a090903          	lb	s2,416(s2)
     ad0:	0100                	addi	s0,sp,128
     ad2:	1005                	c.nop	-31
     ad4:	0306                	slli	t1,t1,0x1
     ad6:	0900                	addi	s0,sp,144
     ad8:	0000                	unimp
     ada:	0501                	addi	a0,a0,0
     adc:	0900030b          	0x900030b
     ae0:	0004                	0x4
     ae2:	0501                	addi	a0,a0,0
     ae4:	01030607          	0x1030607
     ae8:	0809                	addi	a6,a6,2
     aea:	0100                	addi	s0,sp,128
     aec:	0a05                	addi	s4,s4,1
     aee:	0306                	slli	t1,t1,0x1
     af0:	0900                	addi	s0,sp,144
     af2:	0000                	unimp
     af4:	0501                	addi	a0,a0,0
     af6:	02030607          	0x2030607
     afa:	0409                	addi	s0,s0,2
     afc:	0100                	addi	s0,sp,128
     afe:	0a05                	addi	s4,s4,1
     b00:	0306                	slli	t1,t1,0x1
     b02:	0900                	addi	s0,sp,144
     b04:	0000                	unimp
     b06:	0501                	addi	a0,a0,0
     b08:	01030607          	0x1030607
     b0c:	0209                	addi	tp,tp,2
     b0e:	0100                	addi	s0,sp,128
     b10:	0505                	addi	a0,a0,1
     b12:	06090203          	lb	tp,96(s2)
     b16:	0100                	addi	s0,sp,128
     b18:	0805                	addi	a6,a6,1
     b1a:	0306                	slli	t1,t1,0x1
     b1c:	0900                	addi	s0,sp,144
     b1e:	0000                	unimp
     b20:	0501                	addi	a0,a0,0
     b22:	0605                	addi	a2,a2,1
     b24:	04090303          	lb	t1,64(s2)
     b28:	0100                	addi	s0,sp,128
     b2a:	00090103          	lb	sp,0(s2)
     b2e:	0100                	addi	s0,sp,128
     b30:	00090103          	lb	sp,0(s2)
     b34:	0100                	addi	s0,sp,128
     b36:	00090103          	lb	sp,0(s2)
     b3a:	0100                	addi	s0,sp,128
     b3c:	00090103          	lb	sp,0(s2)
     b40:	0100                	addi	s0,sp,128
     b42:	00090103          	lb	sp,0(s2)
     b46:	0100                	addi	s0,sp,128
     b48:	0805                	addi	a6,a6,1
     b4a:	0306                	slli	t1,t1,0x1
     b4c:	0978                	addi	a4,sp,156
     b4e:	0000                	unimp
     b50:	0501                	addi	a0,a0,0
     b52:	030a                	slli	t1,t1,0x2
     b54:	0904                	addi	s1,sp,144
     b56:	0002                	c.slli64	zero
     b58:	0501                	addi	a0,a0,0
     b5a:	0902030f          	0x902030f
     b5e:	0004                	0x4
     b60:	0501                	addi	a0,a0,0
     b62:	097f030b          	0x97f030b
     b66:	0002                	c.slli64	zero
     b68:	0301                	addi	t1,t1,0
     b6a:	0902                	c.slli64	s2
     b6c:	0002                	c.slli64	zero
     b6e:	0501                	addi	a0,a0,0
     b70:	0605                	addi	a2,a2,1
     b72:	02090303          	lb	t1,32(s2)
     b76:	0100                	addi	s0,sp,128
     b78:	1305                	addi	t1,t1,-31
     b7a:	0306                	slli	t1,t1,0x1
     b7c:	0900                	addi	s0,sp,144
     b7e:	0000                	unimp
     b80:	0501                	addi	a0,a0,0
     b82:	0312                	slli	t1,t1,0x4
     b84:	0900                	addi	s0,sp,144
     b86:	0004                	0x4
     b88:	0501                	addi	a0,a0,0
     b8a:	0310                	addi	a2,sp,384
     b8c:	0900                	addi	s0,sp,144
     b8e:	0004                	0x4
     b90:	0501                	addi	a0,a0,0
     b92:	030c                	addi	a1,sp,384
     b94:	0909                	addi	s2,s2,2
     b96:	0028                	addi	a0,sp,8
     b98:	0501                	addi	a0,a0,0
     b9a:	09770313          	addi	t1,a4,151 # fffffffffffe0097 <__global_pointer$+0xffffffff7ffde07b>
     b9e:	0002                	c.slli64	zero
     ba0:	0501                	addi	a0,a0,0
     ba2:	0310                	addi	a2,sp,384
     ba4:	0900                	addi	s0,sp,144
     ba6:	0004                	0x4
     ba8:	0501                	addi	a0,a0,0
     baa:	0609                	addi	a2,a2,2
     bac:	06091703          	lh	a4,96(s2)
     bb0:	0100                	addi	s0,sp,128
     bb2:	1f05                	addi	t5,t5,-31
     bb4:	0306                	slli	t1,t1,0x1
     bb6:	0900                	addi	s0,sp,144
     bb8:	0000                	unimp
     bba:	0501                	addi	a0,a0,0
     bbc:	0324                	addi	s1,sp,392
     bbe:	0900                	addi	s0,sp,144
     bc0:	000c                	0xc
     bc2:	0501                	addi	a0,a0,0
     bc4:	09000313          	li	t1,144
     bc8:	0002                	c.slli64	zero
     bca:	0501                	addi	a0,a0,0
     bcc:	0609                	addi	a2,a2,2
     bce:	04090103          	lb	sp,64(s2)
     bd2:	0100                	addi	s0,sp,128
     bd4:	0e05                	addi	t3,t3,1
     bd6:	0306                	slli	t1,t1,0x1
     bd8:	0900                	addi	s0,sp,144
     bda:	0000                	unimp
     bdc:	0501                	addi	a0,a0,0
     bde:	030c                	addi	a1,sp,384
     be0:	0900                	addi	s0,sp,144
     be2:	0004                	0x4
     be4:	0501                	addi	a0,a0,0
     be6:	0609                	addi	a2,a2,2
     be8:	04090103          	lb	sp,64(s2)
     bec:	0100                	addi	s0,sp,128
     bee:	1605                	addi	a2,a2,-31
     bf0:	0306                	slli	t1,t1,0x1
     bf2:	0900                	addi	s0,sp,144
     bf4:	0000                	unimp
     bf6:	0501                	addi	a0,a0,0
     bf8:	030c                	addi	a1,sp,384
     bfa:	0900                	addi	s0,sp,144
     bfc:	0004                	0x4
     bfe:	0501                	addi	a0,a0,0
     c00:	061d                	addi	a2,a2,7
     c02:	06097d03          	0x6097d03
     c06:	0100                	addi	s0,sp,128
     c08:	1b05                	addi	s6,s6,-31
     c0a:	02090003          	lb	zero,32(s2)
     c0e:	0100                	addi	s0,sp,128
     c10:	1305                	addi	t1,t1,-31
     c12:	0306                	slli	t1,t1,0x1
     c14:	0901                	addi	s2,s2,0
     c16:	0000                	unimp
     c18:	0501                	addi	a0,a0,0
     c1a:	08030607          	0x8030607
     c1e:	0209                	addi	tp,tp,2
     c20:	0100                	addi	s0,sp,128
     c22:	1105                	addi	sp,sp,-31
     c24:	0306                	slli	t1,t1,0x1
     c26:	0900                	addi	s0,sp,144
     c28:	0000                	unimp
     c2a:	0501                	addi	a0,a0,0
     c2c:	01030607          	0x1030607
     c30:	0c09                	addi	s8,s8,2
     c32:	0100                	addi	s0,sp,128
     c34:	1305                	addi	t1,t1,-31
     c36:	0306                	slli	t1,t1,0x1
     c38:	0960                	addi	s0,sp,156
     c3a:	0000                	unimp
     c3c:	0501                	addi	a0,a0,0
     c3e:	2c030607          	0x2c030607
     c42:	0209                	addi	tp,tp,2
     c44:	0100                	addi	s0,sp,128
     c46:	0a05                	addi	s4,s4,1
     c48:	0306                	slli	t1,t1,0x1
     c4a:	0900                	addi	s0,sp,144
     c4c:	0000                	unimp
     c4e:	0501                	addi	a0,a0,0
     c50:	0901030f          	0x901030f
     c54:	0004                	0x4
     c56:	0501                	addi	a0,a0,0
     c58:	0326                	slli	t1,t1,0x9
     c5a:	0900                	addi	s0,sp,144
     c5c:	0002                	c.slli64	zero
     c5e:	0501                	addi	a0,a0,0
     c60:	01030607          	0x1030607
     c64:	0209                	addi	tp,tp,2
     c66:	0100                	addi	s0,sp,128
     c68:	02097503          	0x2097503
     c6c:	0100                	addi	s0,sp,128
     c6e:	0a05                	addi	s4,s4,1
     c70:	0306                	slli	t1,t1,0x1
     c72:	0900                	addi	s0,sp,144
     c74:	0000                	unimp
     c76:	0501                	addi	a0,a0,0
     c78:	02030607          	0x2030607
     c7c:	0409                	addi	s0,s0,2
     c7e:	0100                	addi	s0,sp,128
     c80:	1305                	addi	t1,t1,-31
     c82:	0306                	slli	t1,t1,0x1
     c84:	0000095b          	0x95b
     c88:	0501                	addi	a0,a0,0
     c8a:	09250307          	0x9250307
     c8e:	0002                	c.slli64	zero
     c90:	0501                	addi	a0,a0,0
     c92:	097f030f          	0x97f030f
     c96:	0002                	c.slli64	zero
     c98:	0501                	addi	a0,a0,0
     c9a:	04030607          	0x4030607
     c9e:	0409                	addi	s0,s0,2
     ca0:	0100                	addi	s0,sp,128
     ca2:	00090103          	lb	sp,0(s2)
     ca6:	0100                	addi	s0,sp,128
     ca8:	1305                	addi	t1,t1,-31
     caa:	0306                	slli	t1,t1,0x1
     cac:	00000957          	0x957
     cb0:	0501                	addi	a0,a0,0
     cb2:	09290307          	0x9290307
     cb6:	0002                	c.slli64	zero
     cb8:	0601                	addi	a2,a2,0
     cba:	06090903          	lb	s2,96(s2)
     cbe:	0100                	addi	s0,sp,128
     cc0:	0c05                	addi	s8,s8,1
     cc2:	0306                	slli	t1,t1,0x1
     cc4:	0900                	addi	s0,sp,144
     cc6:	0000                	unimp
     cc8:	0501                	addi	a0,a0,0
     cca:	01030607          	0x1030607
     cce:	0209                	addi	tp,tp,2
     cd0:	0100                	addi	s0,sp,128
     cd2:	1305                	addi	t1,t1,-31
     cd4:	0306                	slli	t1,t1,0x1
     cd6:	094d                	addi	s2,s2,19
     cd8:	0000                	unimp
     cda:	0501                	addi	a0,a0,0
     cdc:	09330307          	0x9330307
     ce0:	0002                	c.slli64	zero
     ce2:	0601                	addi	a2,a2,0
     ce4:	02090403          	lb	s0,32(s2)
     ce8:	0100                	addi	s0,sp,128
     cea:	0e090103          	lb	sp,224(s2)
     cee:	0100                	addi	s0,sp,128
     cf0:	02090403          	lb	s0,32(s2)
     cf4:	0100                	addi	s0,sp,128
     cf6:	0e05                	addi	t3,t3,1
     cf8:	0306                	slli	t1,t1,0x1
     cfa:	0900                	addi	s0,sp,144
     cfc:	0000                	unimp
     cfe:	0501                	addi	a0,a0,0
     d00:	030a                	slli	t1,t1,0x2
     d02:	0900                	addi	s0,sp,144
     d04:	000c                	0xc
     d06:	0501                	addi	a0,a0,0
     d08:	02030607          	0x2030607
     d0c:	0409                	addi	s0,s0,2
     d0e:	0100                	addi	s0,sp,128
     d10:	0a05                	addi	s4,s4,1
     d12:	0306                	slli	t1,t1,0x1
     d14:	0900                	addi	s0,sp,144
     d16:	0000                	unimp
     d18:	0501                	addi	a0,a0,0
     d1a:	0015                	c.nop	5
     d1c:	0402                	c.slli64	s0
     d1e:	0301                	addi	t1,t1,0
     d20:	0900                	addi	s0,sp,144
     d22:	0004                	0x4
     d24:	0501                	addi	a0,a0,0
     d26:	0609                	addi	a2,a2,2
     d28:	08090103          	lb	sp,128(s2)
     d2c:	0100                	addi	s0,sp,128
     d2e:	1705                	addi	a4,a4,-31
     d30:	0306                	slli	t1,t1,0x1
     d32:	0900                	addi	s0,sp,144
     d34:	0000                	unimp
     d36:	0501                	addi	a0,a0,0
     d38:	0314                	addi	a3,sp,384
     d3a:	0900                	addi	s0,sp,144
     d3c:	0008                	0x8
     d3e:	0501                	addi	a0,a0,0
     d40:	0309                	addi	t1,t1,2
     d42:	0900                	addi	s0,sp,144
     d44:	0004                	0x4
     d46:	0501                	addi	a0,a0,0
     d48:	097e030b          	0x97e030b
     d4c:	0002                	c.slli64	zero
     d4e:	0001                	nop
     d50:	0402                	c.slli64	s0
     d52:	03030603          	lb	a2,48(t1)
     d56:	0a09                	addi	s4,s4,2
     d58:	0100                	addi	s0,sp,128
     d5a:	3905                	addiw	s2,s2,-31
     d5c:	0200                	addi	s0,sp,256
     d5e:	0304                	addi	s1,sp,384
     d60:	08097f03          	0x8097f03
     d64:	0100                	addi	s0,sp,128
     d66:	3e05                	addiw	t3,t3,-31
     d68:	0200                	addi	s0,sp,256
     d6a:	0304                	addi	s1,sp,384
     d6c:	0306                	slli	t1,t1,0x1
     d6e:	0900                	addi	s0,sp,144
     d70:	0000                	unimp
     d72:	0501                	addi	a0,a0,0
     d74:	002e                	c.slli	zero,0xb
     d76:	0402                	c.slli64	s0
     d78:	0601                	addi	a2,a2,0
     d7a:	02090003          	lb	zero,32(s2)
     d7e:	0100                	addi	s0,sp,128
     d80:	0905                	addi	s2,s2,1
     d82:	0200                	addi	s0,sp,256
     d84:	0104                	addi	s1,sp,128
     d86:	0306                	slli	t1,t1,0x1
     d88:	0900                	addi	s0,sp,144
     d8a:	0000                	unimp
     d8c:	0001                	nop
     d8e:	0402                	c.slli64	s0
     d90:	0605                	addi	a2,a2,1
     d92:	06090303          	lb	t1,96(s2)
     d96:	0100                	addi	s0,sp,128
     d98:	0200                	addi	s0,sp,256
     d9a:	0504                	addi	s1,sp,640
     d9c:	04090103          	lb	sp,64(s2)
     da0:	0100                	addi	s0,sp,128
     da2:	0a05                	addi	s4,s4,1
     da4:	0200                	addi	s0,sp,256
     da6:	0504                	addi	s1,sp,640
     da8:	0306                	slli	t1,t1,0x1
     daa:	0900                	addi	s0,sp,144
     dac:	0000                	unimp
     dae:	0501                	addi	a0,a0,0
     db0:	0048                	addi	a0,sp,4
     db2:	0402                	c.slli64	s0
     db4:	0605                	addi	a2,a2,1
     db6:	02097e03          	0x2097e03
     dba:	0100                	addi	s0,sp,128
     dbc:	4d05                	li	s10,1
     dbe:	0200                	addi	s0,sp,256
     dc0:	0504                	addi	s1,sp,640
     dc2:	0306                	slli	t1,t1,0x1
     dc4:	0900                	addi	s0,sp,144
     dc6:	0000                	unimp
     dc8:	0501                	addi	a0,a0,0
     dca:	000e                	c.slli	zero,0x3
     dcc:	0402                	c.slli64	s0
     dce:	0601                	addi	a2,a2,0
     dd0:	02090003          	lb	zero,32(s2)
     dd4:	0100                	addi	s0,sp,128
     dd6:	1205                	addi	tp,tp,-31
     dd8:	0200                	addi	s0,sp,256
     dda:	0104                	addi	s1,sp,128
     ddc:	0306                	slli	t1,t1,0x1
     dde:	0900                	addi	s0,sp,144
     de0:	0000                	unimp
     de2:	0501                	addi	a0,a0,0
     de4:	04020007          	0x4020007
     de8:	0301                	addi	t1,t1,0
     dea:	0900                	addi	s0,sp,144
     dec:	0004                	0x4
     dee:	0501                	addi	a0,a0,0
     df0:	0020                	addi	s0,sp,8
     df2:	0402                	c.slli64	s0
     df4:	0302                	c.slli64	t1
     df6:	0900                	addi	s0,sp,144
     df8:	0002                	c.slli64	zero
     dfa:	0501                	addi	a0,a0,0
     dfc:	0032                	c.slli	zero,0xc
     dfe:	0402                	c.slli64	s0
     e00:	0304                	addi	s1,sp,384
     e02:	0900                	addi	s0,sp,144
     e04:	0004                	0x4
     e06:	0501                	addi	a0,a0,0
     e08:	0009                	c.nop	2
     e0a:	0402                	c.slli64	s0
     e0c:	0602                	c.slli64	a2
     e0e:	08090503          	lb	a0,128(s2)
     e12:	0100                	addi	s0,sp,128
     e14:	1905                	addi	s2,s2,-31
     e16:	0200                	addi	s0,sp,256
     e18:	0204                	addi	s1,sp,256
     e1a:	08097f03          	0x8097f03
     e1e:	0100                	addi	s0,sp,128
     e20:	1e05                	addi	t3,t3,-31
     e22:	0200                	addi	s0,sp,256
     e24:	0204                	addi	s1,sp,256
     e26:	0306                	slli	t1,t1,0x1
     e28:	0900                	addi	s0,sp,144
     e2a:	0000                	unimp
     e2c:	0501                	addi	a0,a0,0
     e2e:	000e                	c.slli	zero,0x3
     e30:	0402                	c.slli64	s0
     e32:	0601                	addi	a2,a2,0
     e34:	02090003          	lb	zero,32(s2)
     e38:	0100                	addi	s0,sp,128
     e3a:	0705                	addi	a4,a4,1
     e3c:	0200                	addi	s0,sp,256
     e3e:	0104                	addi	s1,sp,128
     e40:	0306                	slli	t1,t1,0x1
     e42:	0900                	addi	s0,sp,144
     e44:	0000                	unimp
     e46:	0601                	addi	a2,a2,0
     e48:	06090603          	lb	a2,96(s2)
     e4c:	0100                	addi	s0,sp,128
     e4e:	0d05                	addi	s10,s10,1
     e50:	0306                	slli	t1,t1,0x1
     e52:	0900                	addi	s0,sp,144
     e54:	0000                	unimp
     e56:	0501                	addi	a0,a0,0
     e58:	01030607          	0x1030607
     e5c:	0809                	addi	a6,a6,2
     e5e:	0100                	addi	s0,sp,128
     e60:	0a05                	addi	s4,s4,1
     e62:	0306                	slli	t1,t1,0x1
     e64:	0900                	addi	s0,sp,144
     e66:	0000                	unimp
     e68:	0501                	addi	a0,a0,0
     e6a:	04030607          	0x4030607
     e6e:	0409                	addi	s0,s0,2
     e70:	0100                	addi	s0,sp,128
     e72:	00090103          	lb	sp,0(s2)
     e76:	0100                	addi	s0,sp,128
     e78:	0c05                	addi	s8,s8,1
     e7a:	0306                	slli	t1,t1,0x1
     e7c:	097f                	0x97f
     e7e:	0000                	unimp
     e80:	0501                	addi	a0,a0,0
     e82:	09010307          	0x9010307
     e86:	0002                	c.slli64	zero
     e88:	0501                	addi	a0,a0,0
     e8a:	0609                	addi	a2,a2,2
     e8c:	02097c03          	0x2097c03
     e90:	0100                	addi	s0,sp,128
     e92:	08090103          	lb	sp,128(s2)
     e96:	0100                	addi	s0,sp,128
     e98:	0f05                	addi	t5,t5,1
     e9a:	0306                	slli	t1,t1,0x1
     e9c:	0900                	addi	s0,sp,144
     e9e:	0000                	unimp
     ea0:	0501                	addi	a0,a0,0
     ea2:	0d030607          	0xd030607
     ea6:	0609                	addi	a2,a2,2
     ea8:	0100                	addi	s0,sp,128
     eaa:	00090103          	lb	sp,0(s2)
     eae:	0100                	addi	s0,sp,128
     eb0:	0c05                	addi	s8,s8,1
     eb2:	0306                	slli	t1,t1,0x1
     eb4:	097f                	0x97f
     eb6:	0000                	unimp
     eb8:	0501                	addi	a0,a0,0
     eba:	0f030607          	0xf030607
     ebe:	0209                	addi	tp,tp,2
     ec0:	0100                	addi	s0,sp,128
     ec2:	0d05                	addi	s10,s10,1
     ec4:	0306                	slli	t1,t1,0x1
     ec6:	0900                	addi	s0,sp,144
     ec8:	0000                	unimp
     eca:	0501                	addi	a0,a0,0
     ecc:	02030607          	0x2030607
     ed0:	0609                	addi	a2,a2,2
     ed2:	0100                	addi	s0,sp,128
     ed4:	0305                	addi	t1,t1,1
     ed6:	097ed403          	lhu	s0,151(t4)
     eda:	0006                	c.slli	zero,0x1
     edc:	0301                	addi	t1,t1,0
     ede:	0901                	addi	s2,s2,0
     ee0:	0000                	unimp
     ee2:	0501                	addi	a0,a0,0
     ee4:	00030607          	0x30607
     ee8:	0009                	c.nop	2
     eea:	0100                	addi	s0,sp,128
     eec:	0305                	addi	t1,t1,1
     eee:	0306                	slli	t1,t1,0x1
     ef0:	0902                	c.slli64	s2
     ef2:	0002                	c.slli64	zero
     ef4:	0501                	addi	a0,a0,0
     ef6:	0305                	addi	t1,t1,1
     ef8:	0902                	c.slli64	s2
     efa:	0000                	unimp
     efc:	0501                	addi	a0,a0,0
     efe:	00030617          	auipc	a2,0x30
     f02:	0009                	c.nop	2
     f04:	0100                	addi	s0,sp,128
     f06:	0d05                	addi	s10,s10,1
     f08:	0a090003          	lb	zero,160(s2)
     f0c:	0100                	addi	s0,sp,128
     f0e:	1105                	addi	sp,sp,-31
     f10:	04090003          	lb	zero,64(s2)
     f14:	0100                	addi	s0,sp,128
     f16:	0505                	addi	a0,a0,1
     f18:	0306                	slli	t1,t1,0x1
     f1a:	0901                	addi	s2,s2,0
     f1c:	000a                	c.slli	zero,0x2
     f1e:	0501                	addi	a0,a0,0
     f20:	0608                	addi	a0,sp,768
     f22:	00090003          	lb	zero,0(s2)
     f26:	0100                	addi	s0,sp,128
     f28:	0505                	addi	a0,a0,1
     f2a:	0306                	slli	t1,t1,0x1
     f2c:	0902                	c.slli64	s2
     f2e:	0004                	0x4
     f30:	0501                	addi	a0,a0,0
     f32:	0609                	addi	a2,a2,2
     f34:	00090003          	lb	zero,0(s2)
     f38:	0100                	addi	s0,sp,128
     f3a:	0306                	slli	t1,t1,0x1
     f3c:	0004097b          	0x4097b
     f40:	0501                	addi	a0,a0,0
     f42:	060d                	addi	a2,a2,3
     f44:	00090203          	lb	tp,0(s2)
     f48:	0100                	addi	s0,sp,128
     f4a:	1105                	addi	sp,sp,-31
     f4c:	02090003          	lb	zero,32(s2)
     f50:	0100                	addi	s0,sp,128
     f52:	0705                	addi	a4,a4,1
     f54:	0306                	slli	t1,t1,0x1
     f56:	0209019b          	addiw	gp,s2,32
     f5a:	0100                	addi	s0,sp,128
     f5c:	00090003          	lb	zero,0(s2)
     f60:	0100                	addi	s0,sp,128
     f62:	3305                	addiw	t1,t1,-31
     f64:	00090003          	lb	zero,0(s2)
     f68:	0100                	addi	s0,sp,128
     f6a:	0705                	addi	a4,a4,1
     f6c:	00090103          	lb	sp,0(s2)
     f70:	0100                	addi	s0,sp,128
     f72:	00090103          	lb	sp,0(s2)
     f76:	0100                	addi	s0,sp,128
     f78:	08090103          	lb	sp,128(s2)
     f7c:	0100                	addi	s0,sp,128
     f7e:	0d05                	addi	s10,s10,1
     f80:	0306                	slli	t1,t1,0x1
     f82:	097e                	slli	s2,s2,0x1f
     f84:	0008                	0x8
     f86:	0501                	addi	a0,a0,0
     f88:	030c                	addi	a1,sp,384
     f8a:	00020907          	0x20907
     f8e:	0301                	addi	t1,t1,0
     f90:	096d                	addi	s2,s2,27
     f92:	0004                	0x4
     f94:	0501                	addi	a0,a0,0
     f96:	0609                	addi	a2,a2,2
     f98:	097ef603          	0x97ef603
     f9c:	0004                	0x4
     f9e:	0501                	addi	a0,a0,0
     fa0:	0003060f          	0x3060f
     fa4:	0009                	c.nop	2
     fa6:	0100                	addi	s0,sp,128
     fa8:	0905                	addi	s2,s2,1
     faa:	04090003          	lb	zero,64(s2)
     fae:	0100                	addi	s0,sp,128
     fb0:	0505                	addi	a0,a0,1
     fb2:	0306                	slli	t1,t1,0x1
     fb4:	0901                	addi	s2,s2,0
     fb6:	0004                	0x4
     fb8:	0501                	addi	a0,a0,0
     fba:	7f03060f          	0x7f03060f
     fbe:	0609                	addi	a2,a2,2
     fc0:	0100                	addi	s0,sp,128
     fc2:	3305                	addiw	t1,t1,-31
     fc4:	04090403          	lb	s0,64(s2)
     fc8:	0100                	addi	s0,sp,128
     fca:	0505                	addi	a0,a0,1
     fcc:	04090003          	lb	zero,64(s2)
     fd0:	0100                	addi	s0,sp,128
     fd2:	0d05                	addi	s10,s10,1
     fd4:	06097f03          	0x6097f03
     fd8:	0100                	addi	s0,sp,128
     fda:	0905                	addi	s2,s2,1
     fdc:	0306                	slli	t1,t1,0x1
     fde:	0900                	addi	s0,sp,144
     fe0:	0002                	c.slli64	zero
     fe2:	0501                	addi	a0,a0,0
     fe4:	060d                	addi	a2,a2,3
     fe6:	00090003          	lb	zero,0(s2)
     fea:	0100                	addi	s0,sp,128
     fec:	0905                	addi	s2,s2,1
     fee:	04090003          	lb	zero,64(s2)
     ff2:	0100                	addi	s0,sp,128
     ff4:	0505                	addi	a0,a0,1
     ff6:	0306                	slli	t1,t1,0x1
     ff8:	0901                	addi	s2,s2,0
     ffa:	0004                	0x4
     ffc:	0501                	addi	a0,a0,0
     ffe:	0003060f          	0x3060f
    1002:	0009                	c.nop	2
    1004:	0100                	addi	s0,sp,128
    1006:	3305                	addiw	t1,t1,-31
    1008:	0c090003          	lb	zero,192(s2)
    100c:	0100                	addi	s0,sp,128
    100e:	0705                	addi	a4,a4,1
    1010:	0306                	slli	t1,t1,0x1
    1012:	01a2                	slli	gp,gp,0x8
    1014:	0c09                	addi	s8,s8,2
    1016:	0100                	addi	s0,sp,128
    1018:	04090103          	lb	sp,64(s2)
    101c:	0100                	addi	s0,sp,128
    101e:	02090403          	lb	s0,32(s2)
    1022:	0100                	addi	s0,sp,128
    1024:	08090103          	lb	sp,128(s2)
    1028:	0100                	addi	s0,sp,128
    102a:	00090103          	lb	sp,0(s2)
    102e:	0100                	addi	s0,sp,128
    1030:	0b05                	addi	s6,s6,1
    1032:	0306                	slli	t1,t1,0x1
    1034:	097f                	0x97f
    1036:	0000                	unimp
    1038:	0501                	addi	a0,a0,0
    103a:	f1030603          	lb	a2,-240(t1)
    103e:	097e                	slli	s2,s2,0x1f
    1040:	0002                	c.slli64	zero
    1042:	0301                	addi	t1,t1,0
    1044:	0901                	addi	s2,s2,0
    1046:	0000                	unimp
    1048:	0301                	addi	t1,t1,0
    104a:	0901                	addi	s2,s2,0
    104c:	0000                	unimp
    104e:	0301                	addi	t1,t1,0
    1050:	0901                	addi	s2,s2,0
    1052:	0000                	unimp
    1054:	0301                	addi	t1,t1,0
    1056:	0901                	addi	s2,s2,0
    1058:	0000                	unimp
    105a:	0301                	addi	t1,t1,0
    105c:	0901                	addi	s2,s2,0
    105e:	0000                	unimp
    1060:	0301                	addi	t1,t1,0
    1062:	0902                	c.slli64	s2
    1064:	0000                	unimp
    1066:	0501                	addi	a0,a0,0
    1068:	0305                	addi	t1,t1,1
    106a:	0901                	addi	s2,s2,0
    106c:	0000                	unimp
    106e:	0501                	addi	a0,a0,0
    1070:	0003060b          	0x3060b
    1074:	0009                	c.nop	2
    1076:	0100                	addi	s0,sp,128
    1078:	0105                	addi	sp,sp,1
    107a:	09018b03          	lb	s6,144(gp) # 300f0090 <_tbss_end+0x300f0090>
    107e:	0002                	c.slli64	zero
    1080:	0601                	addi	a2,a2,0
    1082:	14090303          	lb	t1,320(s2)
    1086:	0100                	addi	s0,sp,128
    1088:	0305                	addi	t1,t1,1
    108a:	12090103          	lb	sp,288(s2)
    108e:	0100                	addi	s0,sp,128
    1090:	00090103          	lb	sp,0(s2)
    1094:	0100                	addi	s0,sp,128
    1096:	04090203          	lb	tp,64(s2)
    109a:	0100                	addi	s0,sp,128
    109c:	10090203          	lb	tp,256(s2)
    10a0:	0100                	addi	s0,sp,128
    10a2:	00090103          	lb	sp,0(s2)
    10a6:	0100                	addi	s0,sp,128
    10a8:	0105                	addi	sp,sp,1
    10aa:	0306                	slli	t1,t1,0x1
    10ac:	0901                	addi	s2,s2,0
    10ae:	0000                	unimp
    10b0:	0601                	addi	a2,a2,0
    10b2:	097dda03          	lhu	s4,151(s11)
    10b6:	0008                	0x8
    10b8:	0501                	addi	a0,a0,0
    10ba:	09010303          	lb	t1,144(sp)
    10be:	0006                	c.slli	zero,0x1
    10c0:	0301                	addi	t1,t1,0
    10c2:	0901                	addi	s2,s2,0
    10c4:	000e                	c.slli	zero,0x3
    10c6:	0501                	addi	a0,a0,0
    10c8:	0301                	addi	t1,t1,0
    10ca:	0004093f 03030501 	0x30305010004093f
    10d2:	0902                	c.slli64	s2
    10d4:	0008                	0x8
    10d6:	0501                	addi	a0,a0,0
    10d8:	060d                	addi	a2,a2,3
    10da:	00090003          	lb	zero,0(s2)
    10de:	0100                	addi	s0,sp,128
    10e0:	0305                	addi	t1,t1,1
    10e2:	0306                	slli	t1,t1,0x1
    10e4:	0902                	c.slli64	s2
    10e6:	000a                	c.slli	zero,0x2
    10e8:	0301                	addi	t1,t1,0
    10ea:	0901                	addi	s2,s2,0
    10ec:	0000                	unimp
    10ee:	0301                	addi	t1,t1,0
    10f0:	0901                	addi	s2,s2,0
    10f2:	0000                	unimp
    10f4:	0501                	addi	a0,a0,0
    10f6:	0308                	addi	a0,sp,384
    10f8:	0900                	addi	s0,sp,144
    10fa:	0000                	unimp
    10fc:	0501                	addi	a0,a0,0
    10fe:	060c                	addi	a1,sp,768
    1100:	00090003          	lb	zero,0(s2)
    1104:	0100                	addi	s0,sp,128
    1106:	0305                	addi	t1,t1,1
    1108:	02090003          	lb	zero,32(s2)
    110c:	0100                	addi	s0,sp,128
    110e:	0405                	addi	s0,s0,1
    1110:	0306                	slli	t1,t1,0x1
    1112:	0902                	c.slli64	s2
    1114:	0002                	c.slli64	zero
    1116:	0501                	addi	a0,a0,0
    1118:	0025                	c.nop	9
    111a:	0402                	c.slli64	s0
    111c:	0302                	c.slli64	t1
    111e:	097e                	slli	s2,s2,0x1f
    1120:	0018                	0x18
    1122:	0501                	addi	a0,a0,0
    1124:	0026                	c.slli	zero,0x9
    1126:	0402                	c.slli64	s0
    1128:	0602                	c.slli64	a2
    112a:	00090003          	lb	zero,0(s2)
    112e:	0100                	addi	s0,sp,128
    1130:	1305                	addi	t1,t1,-31
    1132:	0200                	addi	s0,sp,256
    1134:	0104                	addi	s1,sp,128
    1136:	0306                	slli	t1,t1,0x1
    1138:	0900                	addi	s0,sp,144
    113a:	0002                	c.slli64	zero
    113c:	0501                	addi	a0,a0,0
    113e:	04020003          	lb	zero,64(tp) # 40 <_tbss_end+0x40>
    1142:	0601                	addi	a2,a2,0
    1144:	00090003          	lb	zero,0(s2)
    1148:	0100                	addi	s0,sp,128
    114a:	0505                	addi	a0,a0,1
    114c:	0306                	slli	t1,t1,0x1
    114e:	0901                	addi	s2,s2,0
    1150:	0006                	c.slli	zero,0x1
    1152:	0501                	addi	a0,a0,0
    1154:	0611                	addi	a2,a2,4
    1156:	00090003          	lb	zero,0(s2)
    115a:	0100                	addi	s0,sp,128
    115c:	0805                	addi	a6,a6,1
    115e:	10090003          	lb	zero,256(s2)
    1162:	0100                	addi	s0,sp,128
    1164:	0305                	addi	t1,t1,1
    1166:	0306                	slli	t1,t1,0x1
    1168:	00040903          	lb	s2,0(s0) # 1a000 <_tbss_end+0x1a000>
    116c:	0501                	addi	a0,a0,0
    116e:	0301                	addi	t1,t1,0
    1170:	01de                	slli	gp,gp,0x17
    1172:	0609                	addi	a2,a2,2
    1174:	0100                	addi	s0,sp,128
    1176:	0305                	addi	t1,t1,1
    1178:	14090103          	lb	sp,320(s2)
    117c:	0100                	addi	s0,sp,128
    117e:	00090103          	lb	sp,0(s2)
    1182:	0100                	addi	s0,sp,128
    1184:	0905                	addi	s2,s2,1
    1186:	0306                	slli	t1,t1,0x1
    1188:	0900                	addi	s0,sp,144
    118a:	0000                	unimp
    118c:	0501                	addi	a0,a0,0
    118e:	01030603          	lb	a2,16(t1)
    1192:	0209                	addi	tp,tp,2
    1194:	0100                	addi	s0,sp,128
    1196:	04090203          	lb	tp,64(s2)
    119a:	0100                	addi	s0,sp,128
    119c:	00090703          	lb	a4,0(s2)
    11a0:	0100                	addi	s0,sp,128
    11a2:	10090103          	lb	sp,256(s2)
    11a6:	0100                	addi	s0,sp,128
    11a8:	0805                	addi	a6,a6,1
    11aa:	0306                	slli	t1,t1,0x1
    11ac:	0900                	addi	s0,sp,144
    11ae:	0002                	c.slli64	zero
    11b0:	0501                	addi	a0,a0,0
    11b2:	02030603          	lb	a2,32(t1)
    11b6:	0409                	addi	s0,s0,2
    11b8:	0100                	addi	s0,sp,128
    11ba:	00090103          	lb	sp,0(s2)
    11be:	0100                	addi	s0,sp,128
    11c0:	0105                	addi	sp,sp,1
    11c2:	0306                	slli	t1,t1,0x1
    11c4:	0901                	addi	s2,s2,0
    11c6:	0000                	unimp
    11c8:	0601                	addi	a2,a2,0
    11ca:	0c093603          	ld	a2,192(s2)
    11ce:	0100                	addi	s0,sp,128
    11d0:	0305                	addi	t1,t1,1
    11d2:	0200                	addi	s0,sp,256
    11d4:	0204                	addi	s1,sp,256
    11d6:	00090103          	lb	sp,0(s2)
    11da:	0100                	addi	s0,sp,128
    11dc:	0200                	addi	s0,sp,256
    11de:	0204                	addi	s1,sp,256
    11e0:	00090203          	lb	tp,0(s2)
    11e4:	0100                	addi	s0,sp,128
    11e6:	0505                	addi	a0,a0,1
    11e8:	0200                	addi	s0,sp,256
    11ea:	0204                	addi	s1,sp,256
    11ec:	00090103          	lb	sp,0(s2)
    11f0:	0100                	addi	s0,sp,128
    11f2:	0805                	addi	a6,a6,1
    11f4:	0200                	addi	s0,sp,256
    11f6:	0204                	addi	s1,sp,256
    11f8:	0306                	slli	t1,t1,0x1
    11fa:	0900                	addi	s0,sp,144
    11fc:	0000                	unimp
    11fe:	0501                	addi	a0,a0,0
    1200:	0005                	c.nop	1
    1202:	0402                	c.slli64	s0
    1204:	0602                	c.slli64	a2
    1206:	06090103          	lb	sp,96(s2)
    120a:	0100                	addi	s0,sp,128
    120c:	0805                	addi	a6,a6,1
    120e:	0200                	addi	s0,sp,256
    1210:	0204                	addi	s1,sp,256
    1212:	0306                	slli	t1,t1,0x1
    1214:	0900                	addi	s0,sp,144
    1216:	0000                	unimp
    1218:	0501                	addi	a0,a0,0
    121a:	0402000b          	0x402000b
    121e:	0602                	c.slli64	a2
    1220:	06090103          	lb	sp,96(s2)
    1224:	0100                	addi	s0,sp,128
    1226:	0305                	addi	t1,t1,1
    1228:	0200                	addi	s0,sp,256
    122a:	0204                	addi	s1,sp,256
    122c:	0306                	slli	t1,t1,0x1
    122e:	0900                	addi	s0,sp,144
    1230:	0000                	unimp
    1232:	0501                	addi	a0,a0,0
    1234:	0015                	c.nop	5
    1236:	0402                	c.slli64	s0
    1238:	0301                	addi	t1,t1,0
    123a:	0900                	addi	s0,sp,144
    123c:	0004                	0x4
    123e:	0501                	addi	a0,a0,0
    1240:	02030603          	lb	a2,32(t1)
    1244:	0209                	addi	tp,tp,2
    1246:	0100                	addi	s0,sp,128
    1248:	0105                	addi	sp,sp,1
    124a:	0306                	slli	t1,t1,0x1
    124c:	0901                	addi	s2,s2,0
    124e:	0000                	unimp
    1250:	0601                	addi	a2,a2,0
    1252:	06090303          	lb	t1,96(s2)
    1256:	0100                	addi	s0,sp,128
    1258:	0305                	addi	t1,t1,1
    125a:	00090103          	lb	sp,0(s2)
    125e:	0100                	addi	s0,sp,128
    1260:	00090103          	lb	sp,0(s2)
    1264:	0100                	addi	s0,sp,128
    1266:	0905                	addi	s2,s2,1
    1268:	0306                	slli	t1,t1,0x1
    126a:	097f                	0x97f
    126c:	0000                	unimp
    126e:	0501                	addi	a0,a0,0
    1270:	0005                	c.nop	1
    1272:	0402                	c.slli64	s0
    1274:	0601                	addi	a2,a2,0
    1276:	02090203          	lb	tp,32(s2)
    127a:	0100                	addi	s0,sp,128
    127c:	0905                	addi	s2,s2,1
    127e:	0200                	addi	s0,sp,256
    1280:	0104                	addi	s1,sp,128
    1282:	00097f03          	0x97f03
    1286:	0100                	addi	s0,sp,128
    1288:	1205                	addi	tp,tp,-31
    128a:	0200                	addi	s0,sp,256
    128c:	0104                	addi	s1,sp,128
    128e:	0306                	slli	t1,t1,0x1
    1290:	0900                	addi	s0,sp,144
    1292:	0000                	unimp
    1294:	0501                	addi	a0,a0,0
    1296:	0010                	0x10
    1298:	0402                	c.slli64	s0
    129a:	0301                	addi	t1,t1,0
    129c:	0900                	addi	s0,sp,144
    129e:	0006                	c.slli	zero,0x1
    12a0:	0501                	addi	a0,a0,0
    12a2:	0009                	c.nop	2
    12a4:	0402                	c.slli64	s0
    12a6:	0301                	addi	t1,t1,0
    12a8:	0900                	addi	s0,sp,144
    12aa:	0006                	c.slli	zero,0x1
    12ac:	0501                	addi	a0,a0,0
    12ae:	0301                	addi	t1,t1,0
    12b0:	00020903          	lb	s2,0(tp) # 0 <_tbss_end>
    12b4:	0601                	addi	a2,a2,0
    12b6:	02090303          	lb	t1,32(s2)
    12ba:	0100                	addi	s0,sp,128
    12bc:	0305                	addi	t1,t1,1
    12be:	02090103          	lb	sp,32(s2)
    12c2:	0100                	addi	s0,sp,128
    12c4:	00090103          	lb	sp,0(s2)
    12c8:	0100                	addi	s0,sp,128
    12ca:	00090203          	lb	tp,0(s2)
    12ce:	0100                	addi	s0,sp,128
    12d0:	0905                	addi	s2,s2,1
    12d2:	00090003          	lb	zero,0(s2)
    12d6:	0100                	addi	s0,sp,128
    12d8:	0a05                	addi	s4,s4,1
    12da:	0306                	slli	t1,t1,0x1
    12dc:	0900                	addi	s0,sp,144
    12de:	0000                	unimp
    12e0:	0501                	addi	a0,a0,0
    12e2:	0309                	addi	t1,t1,2
    12e4:	0900                	addi	s0,sp,144
    12e6:	0004                	0x4
    12e8:	0501                	addi	a0,a0,0
    12ea:	0605                	addi	a2,a2,1
    12ec:	08090103          	lb	sp,128(s2)
    12f0:	0100                	addi	s0,sp,128
    12f2:	0805                	addi	a6,a6,1
    12f4:	0306                	slli	t1,t1,0x1
    12f6:	0900                	addi	s0,sp,144
    12f8:	0000                	unimp
    12fa:	0501                	addi	a0,a0,0
    12fc:	02030603          	lb	a2,32(t1)
    1300:	0409                	addi	s0,s0,2
    1302:	0100                	addi	s0,sp,128
    1304:	0605                	addi	a2,a2,1
    1306:	0306                	slli	t1,t1,0x1
    1308:	0900                	addi	s0,sp,144
    130a:	0000                	unimp
    130c:	0501                	addi	a0,a0,0
    130e:	04020013          	addi	zero,tp,64 # 40 <_tbss_end+0x40>
    1312:	0301                	addi	t1,t1,0
    1314:	0900                	addi	s0,sp,144
    1316:	0008                	0x8
    1318:	0501                	addi	a0,a0,0
    131a:	097b0307          	0x97b0307
    131e:	0008                	0x8
    1320:	0501                	addi	a0,a0,0
    1322:	0605                	addi	a2,a2,1
    1324:	04090603          	lb	a2,64(s2)
    1328:	0100                	addi	s0,sp,128
    132a:	1105                	addi	sp,sp,-31
    132c:	0306                	slli	t1,t1,0x1
    132e:	0900                	addi	s0,sp,144
    1330:	0000                	unimp
    1332:	0501                	addi	a0,a0,0
    1334:	030a                	slli	t1,t1,0x2
    1336:	0900                	addi	s0,sp,144
    1338:	0004                	0x4
    133a:	0501                	addi	a0,a0,0
    133c:	0605                	addi	a2,a2,1
    133e:	04090103          	lb	sp,64(s2)
    1342:	0100                	addi	s0,sp,128
    1344:	0805                	addi	a6,a6,1
    1346:	0306                	slli	t1,t1,0x1
    1348:	0900                	addi	s0,sp,144
    134a:	0000                	unimp
    134c:	0501                	addi	a0,a0,0
    134e:	09790307          	0x9790307
    1352:	0002                	c.slli64	zero
    1354:	0501                	addi	a0,a0,0
    1356:	0605                	addi	a2,a2,1
    1358:	04090b03          	lb	s6,64(s2)
    135c:	0100                	addi	s0,sp,128
    135e:	0905                	addi	s2,s2,1
    1360:	0306                	slli	t1,t1,0x1
    1362:	0900                	addi	s0,sp,144
    1364:	0000                	unimp
    1366:	0501                	addi	a0,a0,0
    1368:	0605                	addi	a2,a2,1
    136a:	08090103          	lb	sp,128(s2)
    136e:	0100                	addi	s0,sp,128
    1370:	1005                	c.nop	-31
    1372:	0306                	slli	t1,t1,0x1
    1374:	0900                	addi	s0,sp,144
    1376:	0000                	unimp
    1378:	0501                	addi	a0,a0,0
    137a:	09000313          	li	t1,144
    137e:	0002                	c.slli64	zero
    1380:	0501                	addi	a0,a0,0
    1382:	0309                	addi	t1,t1,2
    1384:	0900                	addi	s0,sp,144
    1386:	0004                	0x4
    1388:	0601                	addi	a2,a2,0
    138a:	04097e03          	0x4097e03
    138e:	0100                	addi	s0,sp,128
    1390:	0a05                	addi	s4,s4,1
    1392:	0306                	slli	t1,t1,0x1
    1394:	0900                	addi	s0,sp,144
    1396:	0000                	unimp
    1398:	0501                	addi	a0,a0,0
    139a:	0309                	addi	t1,t1,2
    139c:	0900                	addi	s0,sp,144
    139e:	0004                	0x4
    13a0:	0501                	addi	a0,a0,0
    13a2:	05030603          	lb	a2,80(t1)
    13a6:	0209                	addi	tp,tp,2
    13a8:	0100                	addi	s0,sp,128
    13aa:	1605                	addi	a2,a2,-31
    13ac:	0306                	slli	t1,t1,0x1
    13ae:	0900                	addi	s0,sp,144
    13b0:	0000                	unimp
    13b2:	0001                	nop
    13b4:	0402                	c.slli64	s0
    13b6:	0301                	addi	t1,t1,0
    13b8:	0900                	addi	s0,sp,144
    13ba:	0002                	c.slli64	zero
    13bc:	0501                	addi	a0,a0,0
    13be:	0301                	addi	t1,t1,0
    13c0:	0901                	addi	s2,s2,0
    13c2:	0004                	0x4
    13c4:	0901                	addi	s2,s2,0
    13c6:	0002                	c.slli64	zero
    13c8:	0100                	addi	s0,sp,128
    13ca:	6101                	0x6101
    13cc:	0002                	c.slli64	zero
    13ce:	0300                	addi	s0,sp,384
    13d0:	2500                	fld	fs0,8(a0)
    13d2:	0000                	unimp
    13d4:	0100                	addi	s0,sp,128
    13d6:	fb01                	bnez	a4,12e6 <_tbss_end+0x12e6>
    13d8:	0d0e                	slli	s10,s10,0x3
    13da:	0100                	addi	s0,sp,128
    13dc:	0101                	addi	sp,sp,0
    13de:	0001                	nop
    13e0:	0000                	unimp
    13e2:	0001                	nop
    13e4:	0100                	addi	s0,sp,128
    13e6:	2f2e                	fld	ft10,200(sp)
    13e8:	6d6d6f63          	bltu	s10,s6,1ac6 <_tbss_end+0x1ac6>
    13ec:	00006e6f          	jal	t3,73ec <_tbss_end+0x73ec>
    13f0:	2e747263          	bgeu	s0,t2,16d4 <_tbss_end+0x16d4>
    13f4:	00010053          	fadd.s	ft0,ft2,ft0,rne
    13f8:	0000                	unimp
    13fa:	0900                	addi	s0,sp,144
    13fc:	0002                	c.slli64	zero
    13fe:	0000                	unimp
    1400:	0080                	addi	s0,sp,64
    1402:	0000                	unimp
    1404:	0300                	addi	s0,sp,384
    1406:	01030113          	addi	sp,t1,16
    140a:	0209                	addi	tp,tp,2
    140c:	0100                	addi	s0,sp,128
    140e:	04090303          	lb	t1,64(s2)
    1412:	0100                	addi	s0,sp,128
    1414:	02090103          	lb	sp,32(s2)
    1418:	0100                	addi	s0,sp,128
    141a:	02090203          	lb	tp,32(s2)
    141e:	0100                	addi	s0,sp,128
    1420:	04090503          	lb	a0,64(s2)
    1424:	0100                	addi	s0,sp,128
    1426:	02090103          	lb	sp,32(s2)
    142a:	0100                	addi	s0,sp,128
    142c:	04090503          	lb	a0,64(s2)
    1430:	0100                	addi	s0,sp,128
    1432:	08090103          	lb	sp,128(s2)
    1436:	0100                	addi	s0,sp,128
    1438:	04090203          	lb	tp,64(s2)
    143c:	0100                	addi	s0,sp,128
    143e:	04090503          	lb	a0,64(s2)
    1442:	0100                	addi	s0,sp,128
    1444:	08090103          	lb	sp,128(s2)
    1448:	0100                	addi	s0,sp,128
    144a:	04090503          	lb	a0,64(s2)
    144e:	0100                	addi	s0,sp,128
    1450:	08090303          	lb	t1,128(s2)
    1454:	0100                	addi	s0,sp,128
    1456:	04090103          	lb	sp,64(s2)
    145a:	0100                	addi	s0,sp,128
    145c:	04090303          	lb	t1,64(s2)
    1460:	0100                	addi	s0,sp,128
    1462:	04090203          	lb	tp,64(s2)
    1466:	0100                	addi	s0,sp,128
    1468:	02090103          	lb	sp,32(s2)
    146c:	0100                	addi	s0,sp,128
    146e:	04090903          	lb	s2,64(s2)
    1472:	0100                	addi	s0,sp,128
    1474:	08090203          	lb	tp,128(s2)
    1478:	0100                	addi	s0,sp,128
    147a:	06090403          	lb	s0,96(s2)
    147e:	0100                	addi	s0,sp,128
    1480:	02090203          	lb	tp,32(s2)
    1484:	0100                	addi	s0,sp,128
    1486:	02090103          	lb	sp,32(s2)
    148a:	0100                	addi	s0,sp,128
    148c:	02090103          	lb	sp,32(s2)
    1490:	0100                	addi	s0,sp,128
    1492:	02090103          	lb	sp,32(s2)
    1496:	0100                	addi	s0,sp,128
    1498:	02090103          	lb	sp,32(s2)
    149c:	0100                	addi	s0,sp,128
    149e:	02090103          	lb	sp,32(s2)
    14a2:	0100                	addi	s0,sp,128
    14a4:	02090103          	lb	sp,32(s2)
    14a8:	0100                	addi	s0,sp,128
    14aa:	02090103          	lb	sp,32(s2)
    14ae:	0100                	addi	s0,sp,128
    14b0:	02090103          	lb	sp,32(s2)
    14b4:	0100                	addi	s0,sp,128
    14b6:	02090103          	lb	sp,32(s2)
    14ba:	0100                	addi	s0,sp,128
    14bc:	02090103          	lb	sp,32(s2)
    14c0:	0100                	addi	s0,sp,128
    14c2:	02090103          	lb	sp,32(s2)
    14c6:	0100                	addi	s0,sp,128
    14c8:	02090103          	lb	sp,32(s2)
    14cc:	0100                	addi	s0,sp,128
    14ce:	02090103          	lb	sp,32(s2)
    14d2:	0100                	addi	s0,sp,128
    14d4:	02090103          	lb	sp,32(s2)
    14d8:	0100                	addi	s0,sp,128
    14da:	02090103          	lb	sp,32(s2)
    14de:	0100                	addi	s0,sp,128
    14e0:	02090103          	lb	sp,32(s2)
    14e4:	0100                	addi	s0,sp,128
    14e6:	02090103          	lb	sp,32(s2)
    14ea:	0100                	addi	s0,sp,128
    14ec:	02090103          	lb	sp,32(s2)
    14f0:	0100                	addi	s0,sp,128
    14f2:	02090103          	lb	sp,32(s2)
    14f6:	0100                	addi	s0,sp,128
    14f8:	02090103          	lb	sp,32(s2)
    14fc:	0100                	addi	s0,sp,128
    14fe:	02090103          	lb	sp,32(s2)
    1502:	0100                	addi	s0,sp,128
    1504:	02090103          	lb	sp,32(s2)
    1508:	0100                	addi	s0,sp,128
    150a:	02090103          	lb	sp,32(s2)
    150e:	0100                	addi	s0,sp,128
    1510:	02090103          	lb	sp,32(s2)
    1514:	0100                	addi	s0,sp,128
    1516:	02090103          	lb	sp,32(s2)
    151a:	0100                	addi	s0,sp,128
    151c:	02090103          	lb	sp,32(s2)
    1520:	0100                	addi	s0,sp,128
    1522:	02090103          	lb	sp,32(s2)
    1526:	0100                	addi	s0,sp,128
    1528:	02090103          	lb	sp,32(s2)
    152c:	0100                	addi	s0,sp,128
    152e:	02090103          	lb	sp,32(s2)
    1532:	0100                	addi	s0,sp,128
    1534:	02090103          	lb	sp,32(s2)
    1538:	0100                	addi	s0,sp,128
    153a:	02090203          	lb	tp,32(s2)
    153e:	0100                	addi	s0,sp,128
    1540:	04090103          	lb	sp,64(s2)
    1544:	0100                	addi	s0,sp,128
    1546:	04090103          	lb	sp,64(s2)
    154a:	0100                	addi	s0,sp,128
    154c:	02090103          	lb	sp,32(s2)
    1550:	0100                	addi	s0,sp,128
    1552:	04090103          	lb	sp,64(s2)
    1556:	0100                	addi	s0,sp,128
    1558:	04090303          	lb	t1,64(s2)
    155c:	0100                	addi	s0,sp,128
    155e:	06090103          	lb	sp,96(s2)
    1562:	0100                	addi	s0,sp,128
    1564:	04090203          	lb	tp,64(s2)
    1568:	0100                	addi	s0,sp,128
    156a:	02090103          	lb	sp,32(s2)
    156e:	0100                	addi	s0,sp,128
    1570:	02090103          	lb	sp,32(s2)
    1574:	0100                	addi	s0,sp,128
    1576:	02090103          	lb	sp,32(s2)
    157a:	0100                	addi	s0,sp,128
    157c:	02090103          	lb	sp,32(s2)
    1580:	0100                	addi	s0,sp,128
    1582:	02090103          	lb	sp,32(s2)
    1586:	0100                	addi	s0,sp,128
    1588:	02090103          	lb	sp,32(s2)
    158c:	0100                	addi	s0,sp,128
    158e:	02090103          	lb	sp,32(s2)
    1592:	0100                	addi	s0,sp,128
    1594:	02090103          	lb	sp,32(s2)
    1598:	0100                	addi	s0,sp,128
    159a:	02090103          	lb	sp,32(s2)
    159e:	0100                	addi	s0,sp,128
    15a0:	02090103          	lb	sp,32(s2)
    15a4:	0100                	addi	s0,sp,128
    15a6:	02090103          	lb	sp,32(s2)
    15aa:	0100                	addi	s0,sp,128
    15ac:	02090103          	lb	sp,32(s2)
    15b0:	0100                	addi	s0,sp,128
    15b2:	02090103          	lb	sp,32(s2)
    15b6:	0100                	addi	s0,sp,128
    15b8:	02090103          	lb	sp,32(s2)
    15bc:	0100                	addi	s0,sp,128
    15be:	02090103          	lb	sp,32(s2)
    15c2:	0100                	addi	s0,sp,128
    15c4:	02090103          	lb	sp,32(s2)
    15c8:	0100                	addi	s0,sp,128
    15ca:	02090103          	lb	sp,32(s2)
    15ce:	0100                	addi	s0,sp,128
    15d0:	02090103          	lb	sp,32(s2)
    15d4:	0100                	addi	s0,sp,128
    15d6:	02090103          	lb	sp,32(s2)
    15da:	0100                	addi	s0,sp,128
    15dc:	02090103          	lb	sp,32(s2)
    15e0:	0100                	addi	s0,sp,128
    15e2:	02090103          	lb	sp,32(s2)
    15e6:	0100                	addi	s0,sp,128
    15e8:	02090103          	lb	sp,32(s2)
    15ec:	0100                	addi	s0,sp,128
    15ee:	02090103          	lb	sp,32(s2)
    15f2:	0100                	addi	s0,sp,128
    15f4:	02090103          	lb	sp,32(s2)
    15f8:	0100                	addi	s0,sp,128
    15fa:	02090103          	lb	sp,32(s2)
    15fe:	0100                	addi	s0,sp,128
    1600:	02090103          	lb	sp,32(s2)
    1604:	0100                	addi	s0,sp,128
    1606:	02090103          	lb	sp,32(s2)
    160a:	0100                	addi	s0,sp,128
    160c:	02090103          	lb	sp,32(s2)
    1610:	0100                	addi	s0,sp,128
    1612:	02090103          	lb	sp,32(s2)
    1616:	0100                	addi	s0,sp,128
    1618:	02090103          	lb	sp,32(s2)
    161c:	0100                	addi	s0,sp,128
    161e:	02090203          	lb	tp,32(s2)
    1622:	0100                	addi	s0,sp,128
    1624:	02090103          	lb	sp,32(s2)
    1628:	0100                	addi	s0,sp,128
    162a:	0409                	addi	s0,s0,2
    162c:	0000                	unimp
    162e:	0101                	addi	sp,sp,0

Disassembly of section .debug_str:

0000000000000000 <.debug_str>:
   0:	645f 6f73 685f      	0x685f6f73645f
   6:	6e61                	lui	t3,0x18
   8:	6c64                	ld	s1,216(s0)
   a:	0065                	c.nop	25
   c:	735f 7a69 0065      	0x657a69735f
  12:	725f 6e61 3464      	0x34646e61725f
  18:	0038                	addi	a4,sp,8
  1a:	655f 656d 6772      	0x6772656d655f
  20:	6e65                	lui	t3,0x19
  22:	5f007963          	bgeu	zero,a6,614 <_tbss_end+0x614>
  26:	6164                	ld	s1,192(a0)
  28:	6174                	ld	a3,192(a0)
  2a:	5f00                	lw	s0,56(a4)
  2c:	74726377          	0x74726377
  30:	5f626d6f          	jal	s10,26626 <_tbss_end+0x26626>
  34:	74617473          	csrrci	s0,0x746,2
  38:	0065                	c.nop	25
  3a:	775f 7363 7472      	0x74727363775f
  40:	73626d6f          	jal	s10,26776 <_tbss_end+0x26776>
  44:	735f 6174 6574      	0x65746174735f
  4a:	6c00                	ld	s0,24(s0)
  4c:	20676e6f          	jal	t3,76252 <_tbss_end+0x76252>
  50:	6f6c                	ld	a1,216(a4)
  52:	676e                	ld	a4,216(sp)
  54:	7520                	ld	s0,104(a0)
  56:	736e                	ld	t1,248(sp)
  58:	6769                	lui	a4,0x1a
  5a:	656e                	ld	a0,216(sp)
  5c:	2064                	fld	fs1,192(s0)
  5e:	6e69                	lui	t3,0x1a
  60:	0074                	addi	a3,sp,12
  62:	6c5f 6662 6973      	0x697366626c5f
  68:	657a                	ld	a0,408(sp)
  6a:	5f00                	lw	s0,56(a4)
  6c:	6c5f 636f 6c61      	0x6c61636f6c5f
  72:	5f65                	li	t5,-7
  74:	0074                	addi	a3,sp,12
  76:	6d5f 7262 6f74      	0x6f7472626d5f
  7c:	735f6377          	0x735f6377
  80:	6174                	ld	a3,192(a0)
  82:	6574                	ld	a3,200(a0)
  84:	5f00                	lw	s0,56(a4)
  86:	6f746377          	0x6f746377
  8a:	626d                	lui	tp,0x1b
  8c:	735f 6174 6574      	0x65746174735f
  92:	5f00                	lw	s0,56(a4)
  94:	745f 5f6d 6573      	0x65735f6d745f
  9a:	692f0063          	beq	t5,s2,71a <_tbss_end+0x71a>
  9e:	6e6e                	ld	t3,216(sp)
  a0:	7265                	lui	tp,0xffff9
  a2:	735f 6170 6563      	0x65636170735f
  a8:	6769762f          	0x6769762f
  ac:	6e68                	ld	a0,216(a2)
  ae:	7365                	lui	t1,0xffff9
  b0:	2f68                	fld	fa0,216(a4)
  b2:	6561                	lui	a0,0x18
  b4:	6e692f73          	csrrs	t5,0x6e6,s2
  b8:	6574                	ld	a3,200(a0)
  ba:	74617267          	0x74617267
  be:	6f69                	lui	t5,0x1a
  c0:	326e                	fld	ft4,248(sp)
  c2:	632d632f          	0x632d632f
  c6:	616c                	ld	a1,192(a0)
  c8:	622f7373          	csrrci	t1,0x622,30
  cc:	7361                	lui	t1,0xffff8
  ce:	2d65                	addiw	s10,s10,25
  d0:	2f6d6973          	csrrsi	s2,0x2f6,26
  d4:	62636573          	csrrsi	a0,0x626,6
  d8:	00746f6f          	jal	t5,468de <_tbss_end+0x468de>
  dc:	6f6c                	ld	a1,216(a4)
  de:	676e                	ld	a4,216(sp)
  e0:	6c20                	ld	s0,88(s0)
  e2:	20676e6f          	jal	t3,762e8 <_tbss_end+0x762e8>
  e6:	6e69                	lui	t3,0x1a
  e8:	0074                	addi	a3,sp,12
  ea:	20554e47          	fmsub.s	ft8,fa0,ft5,ft4,rmm
  ee:	20393943          	fmadd.s	fs2,fs2,ft3,ft4,rup
  f2:	2e39                	addiw	t3,t3,14
  f4:	2e32                	fld	ft8,264(sp)
  f6:	2030                	fld	fa2,64(s0)
  f8:	6d2d                	lui	s10,0xb
  fa:	646f6d63          	bltu	t5,t1,754 <_tbss_end+0x754>
  fe:	6c65                	lui	s8,0x19
 100:	6d3d                	lui	s10,0xf
 102:	6465                	lui	s0,0x19
 104:	6e61                	lui	t3,0x18
 106:	2079                	0x2079
 108:	6d2d                	lui	s10,0xb
 10a:	7261                	lui	tp,0xffff8
 10c:	723d6863          	bltu	s10,gp,83c <_tbss_end+0x83c>
 110:	3676                	fld	fa2,376(sp)
 112:	6934                	ld	a3,80(a0)
 114:	616d                	addi	sp,sp,240
 116:	6466                	ld	s0,88(sp)
 118:	6d2d2063          	0x6d2d2063
 11c:	7574                	ld	a3,232(a0)
 11e:	656e                	ld	a0,216(sp)
 120:	723d                	lui	tp,0xfffef
 122:	656b636f          	jal	t1,b6778 <_tbss_end+0xb6778>
 126:	2074                	fld	fa3,192(s0)
 128:	6d2d                	lui	s10,0xb
 12a:	6261                	lui	tp,0x18
 12c:	3d69                	addiw	s10,s10,-6
 12e:	706c                	ld	a1,224(s0)
 130:	3436                	fld	fs0,360(sp)
 132:	2d20                	fld	fs0,88(a0)
 134:	4f2d2067          	0x4f2d2067
 138:	2032                	fld	ft0,264(sp)
 13a:	4f2d                	li	t5,11
 13c:	732d2067          	0x732d2067
 140:	6474                	ld	a3,200(s0)
 142:	673d                	lui	a4,0xf
 144:	756e                	ld	a0,248(sp)
 146:	3939                	addiw	s2,s2,-18
 148:	2d20                	fld	fs0,88(a0)
 14a:	6666                	ld	a2,88(sp)
 14c:	7361                	lui	t1,0xffff8
 14e:	2d74                	fld	fa3,216(a0)
 150:	616d                	addi	sp,sp,240
 152:	6874                	ld	a3,208(s0)
 154:	2d20                	fld	fs0,88(a0)
 156:	6e66                	ld	t3,88(sp)
 158:	6f632d6f          	jal	s10,3284e <_tbss_end+0x3284e>
 15c:	6d6d                	lui	s10,0x1b
 15e:	2d206e6f          	jal	t3,6430 <_tbss_end+0x6430>
 162:	6e66                	ld	t3,88(sp)
 164:	75622d6f          	jal	s10,228ba <_tbss_end+0x228ba>
 168:	6c69                	lui	s8,0x1a
 16a:	6974                	ld	a3,208(a0)
 16c:	2d6e                	fld	fs10,216(sp)
 16e:	7270                	ld	a2,224(a2)
 170:	6e69                	lui	t3,0x1a
 172:	6674                	ld	a3,200(a2)
 174:	5f00                	lw	s0,56(a4)
 176:	6275                	lui	tp,0x1d
 178:	6675                	lui	a2,0x1d
 17a:	5f00                	lw	s0,56(a4)
 17c:	6162                	ld	sp,24(sp)
 17e:	5f006573          	csrrsi	a0,0x5f0,0
 182:	745f 5f6d 6f68      	0x6f685f6d745f
 188:	7275                	lui	tp,0xffffd
 18a:	5f00                	lw	s0,56(a4)
 18c:	735f 0066 6f5f      	0x6f5f0066735f
 192:	5f6e                	lw	t5,248(sp)
 194:	7865                	lui	a6,0xffff9
 196:	7469                	lui	s0,0xffffa
 198:	615f 6772 0073      	0x736772615f
 19e:	635f 6f6f 696b      	0x696b6f6f635f
 1a4:	0065                	c.nop	25
 1a6:	5f5f 6773 756c      	0x756c67735f5f
 1ac:	0065                	c.nop	25
 1ae:	665f 616c 7367      	0x7367616c665f
 1b4:	5f00                	lw	s0,56(a4)
 1b6:	7369                	lui	t1,0xffffa
 1b8:	635f 6178 5f00      	0x5f006178635f
 1be:	69647473          	csrrci	s0,0x696,8
 1c2:	006e                	c.slli	zero,0x1b
 1c4:	625f 6b6c 6973      	0x69736b6c625f
 1ca:	657a                	ld	a0,408(sp)
 1cc:	5f00                	lw	s0,56(a4)
 1ce:	62747663          	bgeu	s0,t2,7fa <_tbss_end+0x7fa>
 1d2:	6675                	lui	a2,0x1d
 1d4:	5f00                	lw	s0,56(a4)
 1d6:	7366666f          	jal	a2,6690c <_tbss_end+0x6690c>
 1da:	7465                	lui	s0,0xffff9
 1dc:	5f00                	lw	s0,56(a4)
 1de:	626d                	lui	tp,0x1b
 1e0:	6f747273          	csrrci	tp,0x6f7,8
 1e4:	5f736377          	0x5f736377
 1e8:	74617473          	csrrci	s0,0x746,2
 1ec:	0065                	c.nop	25
 1ee:	6d5f 7262 656c      	0x656c72626d5f
 1f4:	5f6e                	lw	t5,248(sp)
 1f6:	74617473          	csrrci	s0,0x746,2
 1fa:	0065                	c.nop	25
 1fc:	665f 616e 6772      	0x6772616e665f
 202:	665f0073          	0x665f0073
 206:	736e                	ld	t1,248(sp)
 208:	5f00                	lw	s0,56(a4)
 20a:	6e676973          	csrrsi	s2,0x6e6,14
 20e:	5f00                	lw	s0,56(a4)
 210:	6c66                	ld	s8,88(sp)
 212:	5f6b636f          	jal	t1,b6808 <_tbss_end+0xb6808>
 216:	0074                	addi	a3,sp,12
 218:	735f 6474 7265      	0x72656474735f
 21e:	0072                	c.slli	zero,0x1c
 220:	425f 6769 6e69      	0x6e696769425f
 226:	0074                	addi	a3,sp,12
 228:	675f 6d61 616d      	0x616d6d61675f
 22e:	735f 6769 676e      	0x676e6769735f
 234:	6d61                	lui	s10,0x18
 236:	5f00                	lw	s0,56(a4)
 238:	6572                	ld	a0,280(sp)
 23a:	6461                	lui	s0,0x18
 23c:	5f00                	lw	s0,56(a4)
 23e:	6572                	ld	a0,280(sp)
 240:	746c7573          	csrrci	a0,0x746,24
 244:	6b5f 5f00 745f      	0x745f5f006b5f
 24a:	006d                	c.nop	27
 24c:	5f5f 6377 6268      	0x626863775f5f
 252:	5f00                	lw	s0,56(a4)
 254:	6f647473          	csrrci	s0,0x6f6,8
 258:	7475                	lui	s0,0xffffd
 25a:	5f00                	lw	s0,56(a4)
 25c:	6c747663          	bgeu	s0,t2,928 <_tbss_end+0x928>
 260:	6e65                	lui	t3,0x19
 262:	5f00                	lw	s0,56(a4)
 264:	6966                	ld	s2,88(sp)
 266:	656c                	ld	a1,200(a0)
 268:	5f00                	lw	s0,56(a4)
 26a:	696e                	ld	s2,216(sp)
 26c:	0073626f          	jal	tp,36a72 <_tbss_end+0x36a72>
 270:	726f6873          	csrrsi	a6,0x726,30
 274:	2074                	fld	fa3,192(s0)
 276:	6e75                	lui	t3,0x1d
 278:	6e676973          	csrrsi	s2,0x6e6,14
 27c:	6465                	lui	s0,0x19
 27e:	6920                	ld	s0,80(a0)
 280:	746e                	ld	s0,248(sp)
 282:	5f00                	lw	s0,56(a4)
 284:	7461                	lui	s0,0xffff8
 286:	7865                	lui	a6,0xffff9
 288:	7469                	lui	s0,0xffffa
 28a:	0030                	addi	a2,sp,8
 28c:	735f 6769 616e      	0x616e6769735f
 292:	5f6c                	lw	a1,124(a4)
 294:	7562                	ld	a0,56(sp)
 296:	0066                	c.slli	zero,0x19
 298:	615f 6373 6974      	0x69746373615f
 29e:	656d                	lui	a0,0x1b
 2a0:	625f 6675 5f00      	0x5f006675625f
 2a6:	6572                	ld	a0,280(sp)
 2a8:	746c7573          	csrrci	a0,0x746,24
 2ac:	5f00                	lw	s0,56(a4)
 2ae:	775f 6863 7700      	0x77006863775f
 2b4:	6e69                	lui	t3,0x1a
 2b6:	5f74                	lw	a3,124(a4)
 2b8:	0074                	addi	a3,sp,12
 2ba:	6c5f 636f 006b      	0x6b636f6c5f
 2c0:	665f 616c 7367      	0x7367616c665f
 2c6:	0032                	c.slli	zero,0xc
 2c8:	775f 6972 6574      	0x65746972775f
 2ce:	5f00                	lw	s0,56(a4)
 2d0:	745f 5f6d 6579      	0x65795f6d745f
 2d6:	7261                	lui	tp,0xffff8
 2d8:	5f00                	lw	s0,56(a4)
 2da:	6d6e                	ld	s10,216(sp)
 2dc:	6c61                	lui	s8,0x18
 2de:	6f6c                	ld	a1,216(a4)
 2e0:	6e5f0063          	beq	t5,t0,9c0 <_tbss_end+0x9c0>
 2e4:	7865                	lui	a6,0xffff9
 2e6:	6674                	ld	a3,200(a2)
 2e8:	5f00                	lw	s0,56(a4)
 2ea:	745f 5f6d 6f6d      	0x6f6d5f6d745f
 2f0:	006e                	c.slli	zero,0x1b
 2f2:	615f 6574 6978      	0x69786574615f
 2f8:	0074                	addi	a3,sp,12
 2fa:	5f5f 6473 6469      	0x646964735f5f
 300:	6e69                	lui	t3,0x1a
 302:	7469                	lui	s0,0xffffa
 304:	5f00                	lw	s0,56(a4)
 306:	5f66666f          	jal	a2,668fc <_tbss_end+0x668fc>
 30a:	0074                	addi	a3,sp,12
 30c:	665f 6572 6c65      	0x6c656572665f
 312:	7369                	lui	t1,0xffffa
 314:	0074                	addi	a3,sp,12
 316:	4c5f 434f 5f4b      	0x5f4b434f4c5f
 31c:	4552                	lw	a0,20(sp)
 31e:	53525543          	fmadd.d	fa0,ft4,fs5,fa0,unknown
 322:	5649                	li	a2,-14
 324:	5f45                	li	t5,-15
 326:	0054                	addi	a3,sp,4
 328:	6e75                	lui	t3,0x1d
 32a:	6e676973          	csrrsi	s2,0x6e6,14
 32e:	6465                	lui	s0,0x19
 330:	6320                	ld	s0,64(a4)
 332:	6168                	ld	a0,192(a0)
 334:	0072                	c.slli	zero,0x1c
 336:	6e5f 7765 5f00      	0x5f0077656e5f
 33c:	5f68                	lw	a0,124(a4)
 33e:	7265                	lui	tp,0xffff9
 340:	6e72                	ld	t3,280(sp)
 342:	6873006f          	j	311c8 <_tbss_end+0x311c8>
 346:	2074726f          	jal	tp,47d4c <_tbss_end+0x47d4c>
 34a:	6e69                	lui	t3,0x1a
 34c:	0074                	addi	a3,sp,12
 34e:	5f5f 6d74 795f      	0x795f6d745f5f
 354:	6164                	ld	s1,192(a0)
 356:	0079                	c.nop	30
 358:	5f5f 6273 6675      	0x667562735f5f
 35e:	5f00                	lw	s0,56(a4)
 360:	6f69                	lui	t5,0x1a
 362:	7362                	ld	t1,56(sp)
 364:	5f00                	lw	s0,56(a4)
 366:	465f 4c49 0045      	0x454c49465f
 36c:	6d5f 7362 6174      	0x617473626d5f
 372:	6574                	ld	a3,200(a0)
 374:	745f 5f00 735f      	0x735f5f00745f
 37a:	4946                	lw	s2,80(sp)
 37c:	454c                	lw	a1,12(a0)
 37e:	5f00                	lw	s0,56(a4)
 380:	626d                	lui	tp,0x1b
 382:	74617473          	csrrci	s0,0x746,2
 386:	0065                	c.nop	25
 388:	725f 6e61 5f64      	0x5f646e61725f
 38e:	656e                	ld	a0,216(sp)
 390:	7478                	ld	a4,232(s0)
 392:	5f00                	lw	s0,56(a4)
 394:	626d                	lui	tp,0x1b
 396:	656c                	ld	a1,200(a0)
 398:	5f6e                	lw	t5,248(sp)
 39a:	74617473          	csrrci	s0,0x746,2
 39e:	0065                	c.nop	25
 3a0:	695f 636e 5f00      	0x5f00636e695f
 3a6:	6e69                	lui	t3,0x1a
 3a8:	0064                	addi	s1,sp,12
 3aa:	6c5f 636f 6c61      	0x6c61636f6c5f
 3b0:	0065                	c.nop	25
 3b2:	5f5f 6c63 6165      	0x61656c635f5f
 3b8:	756e                	ld	a0,248(sp)
 3ba:	0070                	addi	a2,sp,12
 3bc:	755f 736e 6570      	0x6570736e755f
 3c2:	69666963          	bltu	a2,s6,a54 <_tbss_end+0xa54>
 3c6:	6465                	lui	s0,0x19
 3c8:	6c5f 636f 6c61      	0x6c61636f6c5f
 3ce:	5f65                	li	t5,-7
 3d0:	6e69                	lui	t3,0x1a
 3d2:	6f66                	ld	t5,88(sp)
 3d4:	5f00                	lw	s0,56(a4)
 3d6:	616d                	addi	sp,sp,240
 3d8:	7778                	ld	a4,232(a4)
 3da:	7364                	ld	s1,224(a4)
 3dc:	5f00                	lw	s0,56(a4)
 3de:	6572                	ld	a0,280(sp)
 3e0:	6e65                	lui	t3,0x19
 3e2:	0074                	addi	a3,sp,12
 3e4:	735f 6565 0064      	0x646565735f
 3ea:	5f5f 6f63 6e75      	0x6e756f635f5f
 3f0:	0074                	addi	a3,sp,12
 3f2:	5f5f 6176 756c      	0x756c61765f5f
 3f8:	0065                	c.nop	25
 3fa:	735f 6565 006b      	0x6b6565735f
 400:	665f 6f70 5f73      	0x5f736f70665f
 406:	0074                	addi	a3,sp,12
 408:	5f5f 6d74 6d5f      	0x6d5f6d745f5f
 40e:	6e69                	lui	t3,0x1a
 410:	5f00                	lw	s0,56(a4)
 412:	756d                	lui	a0,0xffffb
 414:	746c                	ld	a1,232(s0)
 416:	5f00                	lw	s0,56(a4)
 418:	74727473          	csrrci	s0,0x747,4
 41c:	6c5f6b6f          	jal	s6,f72e0 <_tbss_end+0xf72e0>
 420:	7361                	lui	t1,0xffff8
 422:	0074                	addi	a3,sp,12
 424:	665f 746e 7079      	0x7079746e665f
 42a:	7365                	lui	t1,0xffff9
 42c:	5f00                	lw	s0,56(a4)
 42e:	6461                	lui	s0,0x18
 430:	0064                	addi	s1,sp,12
 432:	5f5f 4c55 6e6f      	0x6e6f4c555f5f
 438:	675f0067          	jr	1653(t5) # 1a675 <_tbss_end+0x1a675>
 43c:	7465                	lui	s0,0xffff9
 43e:	6164                	ld	s1,192(a0)
 440:	6574                	ld	a3,200(a0)
 442:	655f 7272 5f00      	0x5f007272655f
 448:	626f6c67          	0x626f6c67
 44c:	6c61                	lui	s8,0x18
 44e:	695f 706d 7275      	0x7275706d695f
 454:	5f65                	li	t5,-7
 456:	7470                	ld	a2,232(s0)
 458:	0072                	c.slli	zero,0x1c
 45a:	2f2e                	fld	ft10,200(sp)
 45c:	6568                	ld	a0,200(a0)
 45e:	6c6c                	ld	a1,216(s0)
 460:	00632e6f          	jal	t3,32466 <_tbss_end+0x32466>
 464:	755f 756e 6573      	0x6573756e755f
 46a:	5f64                	lw	s1,124(a4)
 46c:	6172                	ld	sp,280(sp)
 46e:	646e                	ld	s0,216(sp)
 470:	5f00                	lw	s0,56(a4)
 472:	00736477          	0x736477
 476:	5f5f 6d74 775f      	0x775f6d745f5f
 47c:	6164                	ld	s1,192(a0)
 47e:	0079                	c.nop	30
 480:	675f 756c 0065      	0x65756c675f
 486:	735f 6973 657a      	0x657a6973735f
 48c:	745f 5f00 366c      	0x366c5f00745f
 492:	6134                	ld	a3,64(a0)
 494:	625f 6675 5f00      	0x5f006675625f
 49a:	5f676973          	csrrsi	s2,0x5f6,14
 49e:	7566                	ld	a0,120(sp)
 4a0:	636e                	ld	t1,216(sp)
 4a2:	5f00                	lw	s0,56(a4)
 4a4:	626e                	ld	tp,216(sp)
 4a6:	6675                	lui	a2,0x1d
 4a8:	5f00                	lw	s0,56(a4)
 4aa:	6e75                	lui	t3,0x1d
 4ac:	7375                	lui	t1,0xffffd
 4ae:	6465                	lui	s0,0x19
 4b0:	5f00                	lw	s0,56(a4)
 4b2:	745f 5f6d 7369      	0x73695f6d745f
 4b8:	7364                	ld	s1,224(a4)
 4ba:	0074                	addi	a3,sp,12
 4bc:	6c5f 636f 6c61      	0x6c61636f6c5f
 4c2:	6974                	ld	a3,208(a0)
 4c4:	656d                	lui	a0,0x1b
 4c6:	625f 6675 5f00      	0x5f006675625f
 4cc:	736f6c63          	bltu	t5,s6,c04 <_tbss_end+0xc04>
 4d0:	0065                	c.nop	25
 4d2:	725f 3834 5f00      	0x5f003834725f
 4d8:	626d                	lui	tp,0x1b
 4da:	6f74                	ld	a3,216(a4)
 4dc:	735f6377          	0x735f6377
 4e0:	6174                	ld	a3,192(a0)
 4e2:	6574                	ld	a3,200(a0)
 4e4:	5f00                	lw	s0,56(a4)
 4e6:	3570                	fld	fa2,232(a0)
 4e8:	616d0073          	0x616d0073
 4ec:	6e69                	lui	t3,0x1a
 4ee:	5f00                	lw	s0,56(a4)
 4f0:	745f 5f6d 646d      	0x646d5f6d745f
 4f6:	7961                	lui	s2,0xffff8
 4f8:	7400                	ld	s0,40(s0)
 4fa:	736f686f          	jal	a6,f6c30 <_tbss_end+0xf6c30>
 4fe:	0074                	addi	a3,sp,12
 500:	6c727473          	csrrci	s0,0x6c7,4
 504:	6e65                	lui	t3,0x19
 506:	6300                	ld	s0,0(a4)
 508:	7561                	lui	a0,0xffff8
 50a:	73006573          	csrrsi	a0,0x730,0
 50e:	7274                	ld	a3,224(a2)
 510:	6c6e                	ld	s8,216(sp)
 512:	6e65                	lui	t3,0x19
 514:	7000                	ld	s0,32(s0)
 516:	6f72                	ld	t5,280(sp)
 518:	73736563          	bltu	t1,s7,c42 <_tbss_end+0xc42>
 51c:	705f 6572 6963      	0x69636572705f
 522:	6e6f6973          	csrrsi	s2,0x6e6,30
 526:	6700                	ld	s0,8(a4)
 528:	7465                	lui	s0,0xffff9
 52a:	6975                	lui	s2,0x1d
 52c:	746e                	ld	s0,248(sp)
 52e:	7000                	ld	s0,32(s0)
 530:	7475                	lui	s0,0xffffd
 532:	72616863          	bltu	sp,t1,c62 <_tbss_end+0xc62>
 536:	7200                	ld	s0,32(a2)
 538:	6765                	lui	a4,0x19
 53a:	72700073          	0x72700073
 53e:	6e69                	lui	t3,0x1a
 540:	7374                	ld	a3,224(a4)
 542:	7274                	ld	a3,224(a2)
 544:	6800                	ld	s0,16(s0)
 546:	6e61                	lui	t3,0x18
 548:	6c64                	ld	s1,216(s0)
 54a:	5f65                	li	t5,-7
 54c:	7274                	ld	a3,224(a2)
 54e:	7061                	c.lui	zero,0xffff8
 550:	7400                	ld	s0,40(s0)
 552:	7268                	ld	a0,224(a2)
 554:	6165                	addi	sp,sp,112
 556:	5f64                	lw	s1,124(a4)
 558:	6e65                	lui	t3,0x19
 55a:	7274                	ld	a3,224(a2)
 55c:	0079                	c.nop	30
 55e:	63727473          	csrrci	s0,0x637,4
 562:	7970                	ld	a2,240(a0)
 564:	7000                	ld	s0,32(s0)
 566:	6972                	ld	s2,280(sp)
 568:	746e                	ld	s0,248(sp)
 56a:	756e                	ld	a0,248(sp)
 56c:	006d                	c.nop	27
 56e:	6e65                	lui	t3,0x19
 570:	6261                	lui	tp,0x18
 572:	656c                	ld	a1,200(a0)
 574:	6100                	ld	s0,0(a0)
 576:	6f62                	ld	t5,24(sp)
 578:	7472                	ld	s0,312(sp)
 57a:	5f00                	lw	s0,56(a4)
 57c:	675f 756e 5f63      	0x5f63756e675f
 582:	6176                	ld	sp,344(sp)
 584:	6c5f 7369 0074      	0x7473696c5f
 58a:	6170                	ld	a2,192(a0)
 58c:	6364                	ld	s1,192(a4)
 58e:	7700                	ld	s0,40(a4)
 590:	6469                	lui	s0,0x1a
 592:	6874                	ld	a3,208(s0)
 594:	7300                	ld	s0,32(a4)
 596:	7274                	ld	a3,224(a2)
 598:	0030                	addi	a2,sp,8
 59a:	5f5f 6975 746e      	0x746e69755f5f
 5a0:	3436                	fld	fs0,360(sp)
 5a2:	745f 6300 756f      	0x756f6300745f
 5a8:	746e                	ld	s0,248(sp)
 5aa:	7265                	lui	tp,0xffff9
 5ac:	6f630073          	0x6f630073
 5b0:	6564                	ld	s1,200(a0)
 5b2:	6c00                	ld	s0,24(s0)
 5b4:	7361                	lui	t1,0xffff8
 5b6:	5f74                	lw	a3,124(a4)
 5b8:	6d66                	ld	s10,88(sp)
 5ba:	0074                	addi	a3,sp,12
 5bc:	6572                	ld	a0,280(sp)
 5be:	74697773          	csrrci	a4,0x746,18
 5c2:	73006863          	bltu	zero,a6,cf2 <_tbss_end+0xcf2>
 5c6:	7274                	ld	a3,224(a2)
 5c8:	00706d63          	bltu	zero,t2,5e2 <_tbss_end+0x5e2>
 5cc:	666c                	ld	a1,200(a2)
 5ce:	616c                	ld	a1,192(a0)
 5d0:	73700067          	jr	1847(zero) # 0 <_tbss_end>
 5d4:	7274                	ld	a3,224(a2)
 5d6:	6d00                	ld	s0,24(a0)
 5d8:	6d65                	lui	s10,0x19
 5da:	00746573          	csrrsi	a0,0x7,8
 5de:	7261                	lui	tp,0xffff8
 5e0:	61003067          	0x61003067
 5e4:	6772                	ld	a4,280(sp)
 5e6:	0031                	c.nop	12
 5e8:	7261                	lui	tp,0xffff8
 5ea:	5f003267          	0x5f003267
 5ee:	6e69                	lui	t3,0x1a
 5f0:	7469                	lui	s0,0xffffa
 5f2:	7300                	ld	s0,32(a4)
 5f4:	7379                	lui	t1,0xffffe
 5f6:	6c6c6163          	bltu	s8,t1,cb8 <_tbss_end+0xcb8>
 5fa:	6700                	ld	s0,8(a4)
 5fc:	7465                	lui	s0,0xffff9
 5fe:	6e69                	lui	t3,0x1a
 600:	0074                	addi	a3,sp,12
 602:	6e75                	lui	t3,0x1d
 604:	6e676973          	csrrsi	s2,0x6e6,14
 608:	6465                	lui	s0,0x19
 60a:	6e5f 6d75 6562      	0x65626d756e5f
 610:	0072                	c.slli	zero,0x1c
 612:	7570                	ld	a2,232(a0)
 614:	6474                	ld	a3,200(s0)
 616:	7461                	lui	s0,0xffff8
 618:	6100                	ld	s0,0(a0)
 61a:	6772                	ld	a4,280(sp)
 61c:	68770063          	beq	a4,t2,c9c <_tbss_end+0xc9c>
 620:	6369                	lui	t1,0x1a
 622:	0068                	addi	a0,sp,12
 624:	7261                	lui	tp,0xffff8
 626:	73007667          	0x73007667
 62a:	7270                	ld	a2,224(a2)
 62c:	6e69                	lui	t3,0x1a
 62e:	6674                	ld	a3,200(a2)
 630:	2e00                	fld	fs0,24(a2)
 632:	6d6f632f          	0x6d6f632f
 636:	6f6d                	lui	t5,0x1b
 638:	2f6e                	fld	ft10,216(sp)
 63a:	63737973          	csrrci	s2,0x637,6
 63e:	6c61                	lui	s8,0x18
 640:	736c                	ld	a1,224(a4)
 642:	632e                	ld	t1,200(sp)
 644:	5f00                	lw	s0,56(a4)
 646:	755f 6e69 7074      	0x70746e69755f
 64c:	7274                	ld	a3,224(a2)
 64e:	745f 6100 746c      	0x746c6100745f
 654:	6c66                	ld	s8,88(sp)
 656:	6761                	lui	a4,0x18
 658:	6300                	ld	s0,0(a4)
 65a:	746e756f          	jal	a0,e7da0 <_tbss_end+0xe7da0>
 65e:	7265                	lui	tp,0xffff9
 660:	6e5f 6d61 7365      	0x73656d616e5f
 666:	7700                	ld	s0,40(a4)
 668:	0064726f          	jal	tp,4766e <_tbss_end+0x4766e>
 66c:	6964                	ld	s1,208(a0)
 66e:	73007367          	0x73007367
 672:	7270                	ld	a2,224(a2)
 674:	6e69                	lui	t3,0x1a
 676:	6674                	ld	a3,200(a2)
 678:	705f 7475 6863      	0x68637475705f
 67e:	6200                	ld	s0,0(a2)
 680:	7479                	lui	s0,0xffffe
 682:	0065                	c.nop	25
 684:	7270                	ld	a2,224(a2)
 686:	6e69                	lui	t3,0x1a
 688:	6874                	ld	a3,208(s0)
 68a:	7865                	lui	a6,0xffff9
 68c:	7000                	ld	s0,32(s0)
 68e:	7562                	ld	a0,56(sp)
 690:	0066                	c.slli	zero,0x19
 692:	616d                	addi	sp,sp,240
 694:	5f636967          	0x5f636967
 698:	656d                	lui	a0,0x1b
 69a:	006d                	c.nop	27
 69c:	6f74                	ld	a3,216(a4)
 69e:	6f68                	ld	a0,216(a4)
 6a0:	655f7473          	csrrci	s0,0x655,30
 6a4:	6978                	ld	a4,208(a0)
 6a6:	0074                	addi	a3,sp,12
 6a8:	7266                	ld	tp,120(sp)
 6aa:	6f686d6f          	jal	s10,86da0 <_tbss_end+0x86da0>
 6ae:	6d007473          	csrrci	s0,0x6d0,0
 6b2:	6d65                	lui	s10,0x19
 6b4:	00797063          	bgeu	s2,t2,6b4 <_tbss_end+0x6b4>
 6b8:	5f5f 6d74 0070      	0x706d745f5f
 6be:	5f5f 7562 6c69      	0x6c6975625f5f
 6c4:	6974                	ld	a3,208(a0)
 6c6:	5f6e                	lw	t5,248(sp)
 6c8:	6176                	ld	sp,344(sp)
 6ca:	6c5f 7369 0074      	0x7473696c5f
 6d0:	7461                	lui	s0,0xffff8
 6d2:	73006c6f          	jal	s8,6e02 <_tbss_end+0x6e02>
 6d6:	7465                	lui	s0,0xffff9
 6d8:	74617453          	0x74617453
 6dc:	65640073          	0x65640073
 6e0:	76007473          	csrrci	s0,0x760,0
 6e4:	7270                	ld	a2,224(a2)
 6e6:	6e69                	lui	t3,0x1a
 6e8:	6674                	ld	a3,200(a2)
 6ea:	746d                	lui	s0,0xffffb
 6ec:	2e00                	fld	fs0,24(a2)
 6ee:	6d6f632f          	0x6d6f632f
 6f2:	6f6d                	lui	t5,0x1b
 6f4:	2f6e                	fld	ft10,216(sp)
 6f6:	2e747263          	bgeu	s0,t2,9da <_tbss_end+0x9da>
 6fa:	4e470053          	0x4e470053
 6fe:	2055                	0x2055
 700:	5341                	li	t1,-16
 702:	3220                	fld	fs0,96(a2)
 704:	332e                	fld	ft6,232(sp)
 706:	0034                	addi	a3,sp,8

Disassembly of section .comment:

0000000000000000 <.comment>:
   0:	3a434347          	fmsub.d	ft6,ft6,ft4,ft7,rmm
   4:	2820                	fld	fs0,80(s0)
   6:	29554e47          	fmsub.s	ft8,fa0,fs5,ft5,rmm
   a:	3920                	fld	fs0,112(a0)
   c:	322e                	fld	ft4,232(sp)
   e:	302e                	fld	ft0,232(sp)
	...

Disassembly of section .riscv.attributes:

0000000000000000 <.riscv.attributes>:
   0:	3441                	addiw	s0,s0,-16
   2:	0000                	unimp
   4:	7200                	ld	s0,32(a2)
   6:	7369                	lui	t1,0xffffa
   8:	01007663          	bgeu	zero,a6,14 <_tbss_end+0x14>
   c:	002a                	c.slli	zero,0xa
   e:	0000                	unimp
  10:	1004                	addi	s1,sp,32
  12:	7205                	lui	tp,0xfffe1
  14:	3676                	fld	fa2,376(sp)
  16:	6934                	ld	a3,80(a0)
  18:	7032                	0x7032
  1a:	5f30                	lw	a2,120(a4)
  1c:	326d                	addiw	tp,tp,-5
  1e:	3070                	fld	fa2,224(s0)
  20:	615f 7032 5f30      	0x5f307032615f
  26:	3266                	fld	ft4,120(sp)
  28:	3070                	fld	fa2,224(s0)
  2a:	645f 7032 5f30      	0x5f307032645f
  30:	30703263          	0x30703263
	...

Disassembly of section .debug_frame:

0000000000000000 <.debug_frame>:
   0:	000c                	0xc
   2:	0000                	unimp
   4:	ffff                	0xffff
   6:	ffff                	0xffff
   8:	7c010003          	lb	zero,1984(sp)
   c:	0d01                	addi	s10,s10,0
   e:	0002                	c.slli64	zero
  10:	0024                	addi	s1,sp,8
  12:	0000                	unimp
  14:	0000                	unimp
  16:	0000                	unimp
  18:	1048                	addi	a0,sp,36
  1a:	8000                	0x8000
  1c:	0000                	unimp
  1e:	0000                	unimp
  20:	0018                	0x18
  22:	0000                	unimp
  24:	0000                	unimp
  26:	0000                	unimp
  28:	0e42                	slli	t3,t3,0x10
  2a:	4210                	lw	a2,0(a2)
  2c:	0281                	addi	t0,t0,0
  2e:	c150                	sw	a2,4(a0)
  30:	0e42                	slli	t3,t3,0x10
  32:	0000                	unimp
  34:	0000                	unimp
  36:	0000                	unimp
  38:	000c                	0xc
  3a:	0000                	unimp
  3c:	ffff                	0xffff
  3e:	ffff                	0xffff
  40:	7c010003          	lb	zero,1984(sp)
  44:	0d01                	addi	s10,s10,0
  46:	0002                	c.slli64	zero
  48:	0014                	0x14
  4a:	0000                	unimp
  4c:	0038                	addi	a4,sp,8
  4e:	0000                	unimp
  50:	1060                	addi	s0,sp,44
  52:	8000                	0x8000
  54:	0000                	unimp
  56:	0000                	unimp
  58:	0016                	c.slli	zero,0x5
  5a:	0000                	unimp
  5c:	0000                	unimp
  5e:	0000                	unimp
  60:	0014                	0x14
  62:	0000                	unimp
  64:	0038                	addi	a4,sp,8
  66:	0000                	unimp
  68:	1076                	c.slli	zero,0x3d
  6a:	8000                	0x8000
  6c:	0000                	unimp
  6e:	0000                	unimp
  70:	002e                	c.slli	zero,0xb
  72:	0000                	unimp
  74:	0000                	unimp
  76:	0000                	unimp
  78:	0014                	0x14
  7a:	0000                	unimp
  7c:	0038                	addi	a4,sp,8
  7e:	0000                	unimp
  80:	10a4                	addi	s1,sp,104
  82:	8000                	0x8000
  84:	0000                	unimp
  86:	0000                	unimp
  88:	002c                	addi	a1,sp,8
  8a:	0000                	unimp
  8c:	0000                	unimp
  8e:	0000                	unimp
  90:	0014                	0x14
  92:	0000                	unimp
  94:	0038                	addi	a4,sp,8
  96:	0000                	unimp
  98:	10d0                	addi	a2,sp,100
  9a:	8000                	0x8000
  9c:	0000                	unimp
  9e:	0000                	unimp
  a0:	000e                	c.slli	zero,0x3
  a2:	0000                	unimp
  a4:	0000                	unimp
  a6:	0000                	unimp
  a8:	001c                	0x1c
  aa:	0000                	unimp
  ac:	0038                	addi	a4,sp,8
  ae:	0000                	unimp
  b0:	10de                	slli	ra,ra,0x37
  b2:	8000                	0x8000
  b4:	0000                	unimp
  b6:	0000                	unimp
  b8:	003a                	c.slli	zero,0xe
  ba:	0000                	unimp
  bc:	0000                	unimp
  be:	0000                	unimp
  c0:	0e42                	slli	t3,t3,0x10
  c2:	7670                	ld	a2,232(a2)
  c4:	000e                	c.slli	zero,0x3
  c6:	0000                	unimp
  c8:	0014                	0x14
  ca:	0000                	unimp
  cc:	0038                	addi	a4,sp,8
  ce:	0000                	unimp
  d0:	1118                	addi	a4,sp,160
  d2:	8000                	0x8000
  d4:	0000                	unimp
  d6:	0000                	unimp
  d8:	0012                	c.slli	zero,0x4
  da:	0000                	unimp
  dc:	0000                	unimp
  de:	0000                	unimp
  e0:	0014                	0x14
  e2:	0000                	unimp
  e4:	0038                	addi	a4,sp,8
  e6:	0000                	unimp
  e8:	112a                	slli	sp,sp,0x2a
  ea:	8000                	0x8000
  ec:	0000                	unimp
  ee:	0000                	unimp
  f0:	0016                	c.slli	zero,0x5
  f2:	0000                	unimp
  f4:	0000                	unimp
  f6:	0000                	unimp
  f8:	0014                	0x14
  fa:	0000                	unimp
  fc:	0038                	addi	a4,sp,8
  fe:	0000                	unimp
 100:	1140                	addi	s0,sp,164
 102:	8000                	0x8000
 104:	0000                	unimp
 106:	0000                	unimp
 108:	004a                	c.slli	zero,0x12
 10a:	0000                	unimp
 10c:	0000                	unimp
 10e:	0000                	unimp
 110:	001c                	0x1c
 112:	0000                	unimp
 114:	0038                	addi	a4,sp,8
 116:	0000                	unimp
 118:	118a                	slli	gp,gp,0x22
 11a:	8000                	0x8000
 11c:	0000                	unimp
 11e:	0000                	unimp
 120:	0008                	0x8
 122:	0000                	unimp
 124:	0000                	unimp
 126:	0000                	unimp
 128:	0e42                	slli	t3,t3,0x10
 12a:	4210                	lw	a2,0(a2)
 12c:	0281                	addi	t0,t0,0
 12e:	0000                	unimp
 130:	0014                	0x14
 132:	0000                	unimp
 134:	0038                	addi	a4,sp,8
 136:	0000                	unimp
 138:	1192                	slli	gp,gp,0x24
 13a:	8000                	0x8000
 13c:	0000                	unimp
 13e:	0000                	unimp
 140:	0004                	0x4
 142:	0000                	unimp
 144:	0000                	unimp
 146:	0000                	unimp
 148:	0014                	0x14
 14a:	0000                	unimp
 14c:	0038                	addi	a4,sp,8
 14e:	0000                	unimp
 150:	1196                	slli	gp,gp,0x25
 152:	8000                	0x8000
 154:	0000                	unimp
 156:	0000                	unimp
 158:	003a                	c.slli	zero,0xe
 15a:	0000                	unimp
 15c:	0000                	unimp
 15e:	0000                	unimp
 160:	0014                	0x14
 162:	0000                	unimp
 164:	0038                	addi	a4,sp,8
 166:	0000                	unimp
 168:	11d0                	addi	a2,sp,228
 16a:	8000                	0x8000
 16c:	0000                	unimp
 16e:	0000                	unimp
 170:	0044                	addi	s1,sp,4
 172:	0000                	unimp
 174:	0000                	unimp
 176:	0000                	unimp
 178:	0014                	0x14
 17a:	0000                	unimp
 17c:	0038                	addi	a4,sp,8
 17e:	0000                	unimp
 180:	1214                	addi	a3,sp,288
 182:	8000                	0x8000
 184:	0000                	unimp
 186:	0000                	unimp
 188:	0012                	c.slli	zero,0x4
 18a:	0000                	unimp
 18c:	0000                	unimp
 18e:	0000                	unimp
 190:	0024                	addi	s1,sp,8
 192:	0000                	unimp
 194:	0038                	addi	a4,sp,8
 196:	0000                	unimp
 198:	1226                	slli	tp,tp,0x29
 19a:	8000                	0x8000
 19c:	0000                	unimp
 19e:	0000                	unimp
 1a0:	0022                	c.slli	zero,0x8
 1a2:	0000                	unimp
 1a4:	0000                	unimp
 1a6:	0000                	unimp
 1a8:	0e42                	slli	t3,t3,0x10
 1aa:	4410                	lw	a2,8(s0)
 1ac:	0281                	addi	t0,t0,0
 1ae:	0488                	addi	a0,sp,576
 1b0:	c156                	sw	s5,128(sp)
 1b2:	c842                	sw	a6,16(sp)
 1b4:	0e42                	slli	t3,t3,0x10
 1b6:	0000                	unimp
 1b8:	0024                	addi	s1,sp,8
 1ba:	0000                	unimp
 1bc:	0038                	addi	a4,sp,8
 1be:	0000                	unimp
 1c0:	1248                	addi	a0,sp,292
 1c2:	8000                	0x8000
 1c4:	0000                	unimp
 1c6:	0000                	unimp
 1c8:	0018                	0x18
 1ca:	0000                	unimp
 1cc:	0000                	unimp
 1ce:	0000                	unimp
 1d0:	0e42                	slli	t3,t3,0x10
 1d2:	4210                	lw	a2,0(a2)
 1d4:	0281                	addi	t0,t0,0
 1d6:	c150                	sw	a2,4(a0)
 1d8:	0e42                	slli	t3,t3,0x10
 1da:	0000                	unimp
 1dc:	0000                	unimp
 1de:	0000                	unimp
 1e0:	0024                	addi	s1,sp,8
 1e2:	0000                	unimp
 1e4:	0038                	addi	a4,sp,8
 1e6:	0000                	unimp
 1e8:	1260                	addi	s0,sp,300
 1ea:	8000                	0x8000
 1ec:	0000                	unimp
 1ee:	0000                	unimp
 1f0:	0044                	addi	s1,sp,4
 1f2:	0000                	unimp
 1f4:	0000                	unimp
 1f6:	0000                	unimp
 1f8:	0e42                	slli	t3,t3,0x10
 1fa:	4230                	lw	a2,64(a2)
 1fc:	0281                	addi	t0,t0,0
 1fe:	3c02                	fld	fs8,32(sp)
 200:	42c1                	li	t0,16
 202:	000e                	c.slli	zero,0x3
 204:	0000                	unimp
 206:	0000                	unimp
 208:	0014                	0x14
 20a:	0000                	unimp
 20c:	0038                	addi	a4,sp,8
 20e:	0000                	unimp
 210:	12a4                	addi	s1,sp,360
 212:	8000                	0x8000
 214:	0000                	unimp
 216:	0000                	unimp
 218:	001a                	c.slli	zero,0x6
 21a:	0000                	unimp
 21c:	0000                	unimp
 21e:	0000                	unimp
 220:	0044                	addi	s1,sp,4
 222:	0000                	unimp
 224:	0038                	addi	a4,sp,8
 226:	0000                	unimp
 228:	12be                	slli	t0,t0,0x2f
 22a:	8000                	0x8000
 22c:	0000                	unimp
 22e:	0000                	unimp
 230:	0226                	slli	tp,tp,0x9
 232:	0000                	unimp
 234:	0000                	unimp
 236:	0000                	unimp
 238:	0e42                	slli	t3,t3,0x10
 23a:	02d0                	addi	a2,sp,324
 23c:	8150                	0x8150
 23e:	8802                	jr	a6
 240:	8904                	0x8904
 242:	9206                	add	tp,tp,ra
 244:	9308                	0x9308
 246:	940a                	add	s0,s0,sp
 248:	950c                	0x950c
 24a:	960e                	add	a2,a2,gp
 24c:	0310                	addi	a2,sp,384
 24e:	0202                	c.slli64	tp
 250:	42c1                	li	t0,16
 252:	42c8                	lw	a0,4(a3)
 254:	42c9                	li	t0,18
 256:	42d2                	lw	t0,20(sp)
 258:	42d442d3          	0x42d442d3
 25c:	42d5                	li	t0,21
 25e:	42d6                	lw	t0,84(sp)
 260:	000e                	c.slli	zero,0x3
 262:	0000                	unimp
 264:	0000                	unimp
 266:	0000                	unimp
 268:	0024                	addi	s1,sp,8
 26a:	0000                	unimp
 26c:	0038                	addi	a4,sp,8
 26e:	0000                	unimp
 270:	14e4                	addi	s1,sp,620
 272:	8000                	0x8000
 274:	0000                	unimp
 276:	0000                	unimp
 278:	002e                	c.slli	zero,0xb
 27a:	0000                	unimp
 27c:	0000                	unimp
 27e:	0000                	unimp
 280:	0e42                	slli	t3,t3,0x10
 282:	4260                	lw	s0,68(a2)
 284:	1281                	addi	t0,t0,-32
 286:	c166                	sw	s9,128(sp)
 288:	0e42                	slli	t3,t3,0x10
 28a:	0000                	unimp
 28c:	0000                	unimp
 28e:	0000                	unimp
 290:	001c                	0x1c
 292:	0000                	unimp
 294:	0038                	addi	a4,sp,8
 296:	0000                	unimp
 298:	1512                	slli	a0,a0,0x24
 29a:	8000                	0x8000
 29c:	0000                	unimp
 29e:	0000                	unimp
 2a0:	0018                	0x18
 2a2:	0000                	unimp
 2a4:	0000                	unimp
 2a6:	0000                	unimp
 2a8:	0e42                	slli	t3,t3,0x10
 2aa:	4210                	lw	a2,0(a2)
 2ac:	0281                	addi	t0,t0,0
 2ae:	0000                	unimp
 2b0:	0024                	addi	s1,sp,8
 2b2:	0000                	unimp
 2b4:	0038                	addi	a4,sp,8
 2b6:	0000                	unimp
 2b8:	152a                	slli	a0,a0,0x2a
 2ba:	8000                	0x8000
 2bc:	0000                	unimp
 2be:	0000                	unimp
 2c0:	0050                	addi	a2,sp,4
 2c2:	0000                	unimp
 2c4:	0000                	unimp
 2c6:	0000                	unimp
 2c8:	0e42                	slli	t3,t3,0x10
 2ca:	4620                	lw	s0,72(a2)
 2cc:	0281                	addi	t0,t0,0
 2ce:	0488                	addi	a0,sp,576
 2d0:	0689                	addi	a3,a3,2
 2d2:	0000                	unimp
 2d4:	0000                	unimp
 2d6:	0000                	unimp
 2d8:	0024                	addi	s1,sp,8
 2da:	0000                	unimp
 2dc:	0038                	addi	a4,sp,8
 2de:	0000                	unimp
 2e0:	157a                	slli	a0,a0,0x3e
 2e2:	8000                	0x8000
 2e4:	0000                	unimp
 2e6:	0000                	unimp
 2e8:	003c                	addi	a5,sp,8
 2ea:	0000                	unimp
 2ec:	0000                	unimp
 2ee:	0000                	unimp
 2f0:	0e42                	slli	t3,t3,0x10
 2f2:	4460                	lw	s0,76(s0)
 2f4:	0e81                	addi	t4,t4,0
 2f6:	1088                	addi	a0,sp,96
 2f8:	c170                	sw	a2,68(a0)
 2fa:	c842                	sw	a6,16(sp)
 2fc:	0e42                	slli	t3,t3,0x10
 2fe:	0000                	unimp
 300:	0014                	0x14
 302:	0000                	unimp
 304:	0038                	addi	a4,sp,8
 306:	0000                	unimp
 308:	15b6                	slli	a1,a1,0x2d
 30a:	8000                	0x8000
 30c:	0000                	unimp
 30e:	0000                	unimp
 310:	0018                	0x18
 312:	0000                	unimp
 314:	0000                	unimp
 316:	0000                	unimp
 318:	0014                	0x14
 31a:	0000                	unimp
 31c:	0038                	addi	a4,sp,8
 31e:	0000                	unimp
 320:	15ce                	slli	a1,a1,0x33
 322:	8000                	0x8000
 324:	0000                	unimp
 326:	0000                	unimp
 328:	0012                	c.slli	zero,0x4
 32a:	0000                	unimp
 32c:	0000                	unimp
 32e:	0000                	unimp
 330:	0014                	0x14
 332:	0000                	unimp
 334:	0038                	addi	a4,sp,8
 336:	0000                	unimp
 338:	15e0                	addi	s0,sp,748
 33a:	8000                	0x8000
 33c:	0000                	unimp
 33e:	0000                	unimp
 340:	0054                	addi	a3,sp,4
 342:	0000                	unimp
 344:	0000                	unimp
	...

Disassembly of section .debug_loc:

0000000000000000 <.debug_loc>:
       0:	15e0                	addi	s0,sp,748
       2:	8000                	0x8000
       4:	0000                	unimp
       6:	0000                	unimp
       8:	15e2                	slli	a1,a1,0x38
       a:	8000                	0x8000
       c:	0000                	unimp
       e:	0000                	unimp
      10:	0001                	nop
      12:	e25a                	sd	s6,256(sp)
      14:	0015                	c.nop	5
      16:	0080                	addi	s0,sp,64
      18:	0000                	unimp
      1a:	3400                	fld	fs0,40(s0)
      1c:	0016                	c.slli	zero,0x5
      1e:	0080                	addi	s0,sp,64
      20:	0000                	unimp
      22:	0100                	addi	s0,sp,128
      24:	5f00                	lw	s0,56(a4)
	...
      36:	15e2                	slli	a1,a1,0x38
      38:	8000                	0x8000
      3a:	0000                	unimp
      3c:	0000                	unimp
      3e:	1614                	addi	a3,sp,800
      40:	8000                	0x8000
      42:	0000                	unimp
      44:	0000                	unimp
      46:	0002                	c.slli64	zero
      48:	9f30                	0x9f30
      4a:	1614                	addi	a3,sp,800
      4c:	8000                	0x8000
      4e:	0000                	unimp
      50:	0000                	unimp
      52:	161c                	addi	a5,sp,800
      54:	8000                	0x8000
      56:	0000                	unimp
      58:	0000                	unimp
      5a:	0001                	nop
      5c:	1c5a                	slli	s8,s8,0x36
      5e:	0016                	c.slli	zero,0x5
      60:	0080                	addi	s0,sp,64
      62:	0000                	unimp
      64:	2600                	fld	fs0,8(a2)
      66:	0016                	c.slli	zero,0x5
      68:	0080                	addi	s0,sp,64
      6a:	0000                	unimp
      6c:	0100                	addi	s0,sp,128
      6e:	5e00                	lw	s0,56(a2)
      70:	1626                	slli	a2,a2,0x29
      72:	8000                	0x8000
      74:	0000                	unimp
      76:	0000                	unimp
      78:	1632                	slli	a2,a2,0x2c
      7a:	8000                	0x8000
      7c:	0000                	unimp
      7e:	0000                	unimp
      80:	0001                	nop
      82:	005a                	c.slli	zero,0x16
	...
      90:	0000                	unimp
      92:	e200                	sd	s0,0(a2)
      94:	0015                	c.nop	5
      96:	0080                	addi	s0,sp,64
      98:	0000                	unimp
      9a:	0e00                	addi	s0,sp,784
      9c:	0016                	c.slli	zero,0x5
      9e:	0080                	addi	s0,sp,64
      a0:	0000                	unimp
      a2:	0200                	addi	s0,sp,256
      a4:	3000                	fld	fs0,32(s0)
      a6:	0e9f 0016 0080      	0x8000160e9f
      ac:	0000                	unimp
      ae:	1000                	addi	s0,sp,32
      b0:	0016                	c.slli	zero,0x5
      b2:	0080                	addi	s0,sp,64
      b4:	0000                	unimp
      b6:	0100                	addi	s0,sp,128
      b8:	5c00                	lw	s0,56(s0)
      ba:	1614                	addi	a3,sp,800
      bc:	8000                	0x8000
      be:	0000                	unimp
      c0:	0000                	unimp
      c2:	1634                	addi	a3,sp,808
      c4:	8000                	0x8000
      c6:	0000                	unimp
      c8:	0000                	unimp
      ca:	0001                	nop
      cc:	005c                	addi	a5,sp,4
	...
      da:	0000                	unimp
      dc:	ce00                	sw	s0,24(a2)
      de:	0015                	c.nop	5
      e0:	0080                	addi	s0,sp,64
      e2:	0000                	unimp
      e4:	d000                	sw	s0,32(s0)
      e6:	0015                	c.nop	5
      e8:	0080                	addi	s0,sp,64
      ea:	0000                	unimp
      ec:	0100                	addi	s0,sp,128
      ee:	5b00                	lw	s0,48(a4)
      f0:	15d0                	addi	a2,sp,740
      f2:	8000                	0x8000
      f4:	0000                	unimp
      f6:	0000                	unimp
      f8:	15d6                	slli	a1,a1,0x35
      fa:	8000                	0x8000
      fc:	0000                	unimp
      fe:	0000                	unimp
     100:	0001                	nop
     102:	0015d65b          	0x15d65b
     106:	0080                	addi	s0,sp,64
     108:	0000                	unimp
     10a:	e000                	sd	s0,0(s0)
     10c:	0015                	c.nop	5
     10e:	0080                	addi	s0,sp,64
     110:	0000                	unimp
     112:	0300                	addi	s0,sp,384
     114:	7b00                	ld	s0,48(a4)
     116:	9f7f                	0x9f7f
	...
     128:	15ce                	slli	a1,a1,0x33
     12a:	8000                	0x8000
     12c:	0000                	unimp
     12e:	0000                	unimp
     130:	15d0                	addi	a2,sp,740
     132:	8000                	0x8000
     134:	0000                	unimp
     136:	0000                	unimp
     138:	0001                	nop
     13a:	d05a                	sw	s6,32(sp)
     13c:	0015                	c.nop	5
     13e:	0080                	addi	s0,sp,64
     140:	0000                	unimp
     142:	dc00                	sw	s0,56(s0)
     144:	0015                	c.nop	5
     146:	0080                	addi	s0,sp,64
     148:	0000                	unimp
     14a:	0100                	addi	s0,sp,128
     14c:	5d00                	lw	s0,56(a0)
     14e:	15dc                	addi	a5,sp,740
     150:	8000                	0x8000
     152:	0000                	unimp
     154:	0000                	unimp
     156:	15e0                	addi	s0,sp,748
     158:	8000                	0x8000
     15a:	0000                	unimp
     15c:	0000                	unimp
     15e:	7f7d0003          	lb	zero,2039(s10) # 197f7 <_tbss_end+0x197f7>
     162:	009f 0000 0000      	0x9f
	...
     170:	0000                	unimp
     172:	a400                	fsd	fs0,8(s0)
     174:	0012                	c.slli	zero,0x4
     176:	0080                	addi	s0,sp,64
     178:	0000                	unimp
     17a:	bc00                	fsd	fs0,56(s0)
     17c:	0012                	c.slli	zero,0x4
     17e:	0080                	addi	s0,sp,64
     180:	0000                	unimp
     182:	0100                	addi	s0,sp,128
     184:	5a00                	lw	s0,48(a2)
     186:	12bc                	addi	a5,sp,360
     188:	8000                	0x8000
     18a:	0000                	unimp
     18c:	0000                	unimp
     18e:	12be                	slli	t0,t0,0x2f
     190:	8000                	0x8000
     192:	0000                	unimp
     194:	0000                	unimp
     196:	0004                	0x4
     198:	9f5a01f3          	0x9f5a01f3
	...
     1ac:	12a4                	addi	s1,sp,360
     1ae:	8000                	0x8000
     1b0:	0000                	unimp
     1b2:	0000                	unimp
     1b4:	12aa                	slli	t0,t0,0x2a
     1b6:	8000                	0x8000
     1b8:	0000                	unimp
     1ba:	0000                	unimp
     1bc:	0001                	nop
     1be:	0012aa5b          	0x12aa5b
     1c2:	0080                	addi	s0,sp,64
     1c4:	0000                	unimp
     1c6:	be00                	fsd	fs0,56(a2)
     1c8:	0012                	c.slli	zero,0x4
     1ca:	0080                	addi	s0,sp,64
     1cc:	0000                	unimp
     1ce:	0100                	addi	s0,sp,128
     1d0:	5e00                	lw	s0,56(a2)
	...
     1e2:	12a4                	addi	s1,sp,360
     1e4:	8000                	0x8000
     1e6:	0000                	unimp
     1e8:	0000                	unimp
     1ea:	12a6                	slli	t0,t0,0x29
     1ec:	8000                	0x8000
     1ee:	0000                	unimp
     1f0:	0000                	unimp
     1f2:	0001                	nop
     1f4:	a65a                	fsd	fs6,264(sp)
     1f6:	0012                	c.slli	zero,0x4
     1f8:	0080                	addi	s0,sp,64
     1fa:	0000                	unimp
     1fc:	be00                	fsd	fs0,56(a2)
     1fe:	0012                	c.slli	zero,0x4
     200:	0080                	addi	s0,sp,64
     202:	0000                	unimp
     204:	0100                	addi	s0,sp,128
     206:	5f00                	lw	s0,56(a4)
	...
     218:	1214                	addi	a3,sp,288
     21a:	8000                	0x8000
     21c:	0000                	unimp
     21e:	0000                	unimp
     220:	1224                	addi	s1,sp,296
     222:	8000                	0x8000
     224:	0000                	unimp
     226:	0000                	unimp
     228:	0001                	nop
     22a:	245a                	fld	fs0,400(sp)
     22c:	0012                	c.slli	zero,0x4
     22e:	0080                	addi	s0,sp,64
     230:	0000                	unimp
     232:	2600                	fld	fs0,8(a2)
     234:	0012                	c.slli	zero,0x4
     236:	0080                	addi	s0,sp,64
     238:	0000                	unimp
     23a:	0400                	addi	s0,sp,512
     23c:	f300                	sd	s0,32(a4)
     23e:	5a01                	li	s4,-32
     240:	009f 0000 0000      	0x9f
	...
     24e:	0000                	unimp
     250:	1400                	addi	s0,sp,544
     252:	0012                	c.slli	zero,0x4
     254:	0080                	addi	s0,sp,64
     256:	0000                	unimp
     258:	1600                	addi	s0,sp,800
     25a:	0012                	c.slli	zero,0x4
     25c:	0080                	addi	s0,sp,64
     25e:	0000                	unimp
     260:	0100                	addi	s0,sp,128
     262:	5a00                	lw	s0,48(a2)
     264:	1216                	slli	tp,tp,0x25
     266:	8000                	0x8000
     268:	0000                	unimp
     26a:	0000                	unimp
     26c:	1226                	slli	tp,tp,0x29
     26e:	8000                	0x8000
     270:	0000                	unimp
     272:	0000                	unimp
     274:	0001                	nop
     276:	005f 0000 0000      	0x5f
	...
     284:	0000                	unimp
     286:	d000                	sw	s0,32(s0)
     288:	0011                	c.nop	4
     28a:	0080                	addi	s0,sp,64
     28c:	0000                	unimp
     28e:	dc00                	sw	s0,56(s0)
     290:	0011                	c.nop	4
     292:	0080                	addi	s0,sp,64
     294:	0000                	unimp
     296:	0100                	addi	s0,sp,128
     298:	5b00                	lw	s0,48(a4)
     29a:	11dc                	addi	a5,sp,228
     29c:	8000                	0x8000
     29e:	0000                	unimp
     2a0:	0000                	unimp
     2a2:	1200                	addi	s0,sp,288
     2a4:	8000                	0x8000
     2a6:	0000                	unimp
     2a8:	0000                	unimp
     2aa:	0004                	0x4
     2ac:	9f5b01f3          	0x9f5b01f3
     2b0:	1200                	addi	s0,sp,288
     2b2:	8000                	0x8000
     2b4:	0000                	unimp
     2b6:	0000                	unimp
     2b8:	1214                	addi	a3,sp,288
     2ba:	8000                	0x8000
     2bc:	0000                	unimp
     2be:	0000                	unimp
     2c0:	0001                	nop
     2c2:	0000005b          	0x5b
	...
     2d2:	dc00                	sw	s0,56(s0)
     2d4:	0011                	c.nop	4
     2d6:	0080                	addi	s0,sp,64
     2d8:	0000                	unimp
     2da:	e800                	sd	s0,16(s0)
     2dc:	0011                	c.nop	4
     2de:	0080                	addi	s0,sp,64
     2e0:	0000                	unimp
     2e2:	0100                	addi	s0,sp,128
     2e4:	5b00                	lw	s0,48(a4)
     2e6:	11e8                	addi	a0,sp,236
     2e8:	8000                	0x8000
     2ea:	0000                	unimp
     2ec:	0000                	unimp
     2ee:	11ee                	slli	gp,gp,0x3b
     2f0:	8000                	0x8000
     2f2:	0000                	unimp
     2f4:	0000                	unimp
     2f6:	0001                	nop
     2f8:	ee5f 0011 0080      	0x800011ee5f
     2fe:	0000                	unimp
     300:	0000                	unimp
     302:	0012                	c.slli	zero,0x4
     304:	0080                	addi	s0,sp,64
     306:	0000                	unimp
     308:	0100                	addi	s0,sp,128
     30a:	5b00                	lw	s0,48(a4)
	...
     31c:	11ee                	slli	gp,gp,0x3b
     31e:	8000                	0x8000
     320:	0000                	unimp
     322:	0000                	unimp
     324:	11f0                	addi	a2,sp,236
     326:	8000                	0x8000
     328:	0000                	unimp
     32a:	0000                	unimp
     32c:	0001                	nop
     32e:	f05a                	sd	s6,32(sp)
     330:	0011                	c.nop	4
     332:	0080                	addi	s0,sp,64
     334:	0000                	unimp
     336:	f800                	sd	s0,48(s0)
     338:	0011                	c.nop	4
     33a:	0080                	addi	s0,sp,64
     33c:	0000                	unimp
     33e:	0100                	addi	s0,sp,128
     340:	5f00                	lw	s0,56(a4)
     342:	11f8                	addi	a4,sp,236
     344:	8000                	0x8000
     346:	0000                	unimp
     348:	0000                	unimp
     34a:	11fc                	addi	a5,sp,236
     34c:	8000                	0x8000
     34e:	0000                	unimp
     350:	0000                	unimp
     352:	087f0003          	lb	zero,135(t5) # 1b087 <_tbss_end+0x1b087>
     356:	fc9f 0011 0080      	0x800011fc9f
     35c:	0000                	unimp
     35e:	0000                	unimp
     360:	0012                	c.slli	zero,0x4
     362:	0080                	addi	s0,sp,64
     364:	0000                	unimp
     366:	0100                	addi	s0,sp,128
     368:	5f00                	lw	s0,56(a4)
	...
     37a:	1202                	slli	tp,tp,0x20
     37c:	8000                	0x8000
     37e:	0000                	unimp
     380:	0000                	unimp
     382:	120a                	slli	tp,tp,0x22
     384:	8000                	0x8000
     386:	0000                	unimp
     388:	0000                	unimp
     38a:	0001                	nop
     38c:	0a5f 0012 0080      	0x8000120a5f
     392:	0000                	unimp
     394:	1000                	addi	s0,sp,32
     396:	0012                	c.slli	zero,0x4
     398:	0080                	addi	s0,sp,64
     39a:	0000                	unimp
     39c:	0300                	addi	s0,sp,384
     39e:	7f00                	ld	s0,56(a4)
     3a0:	9f01                	subw	a4,a4,s0
     3a2:	1210                	addi	a2,sp,288
     3a4:	8000                	0x8000
     3a6:	0000                	unimp
     3a8:	0000                	unimp
     3aa:	1214                	addi	a3,sp,288
     3ac:	8000                	0x8000
     3ae:	0000                	unimp
     3b0:	0000                	unimp
     3b2:	0001                	nop
     3b4:	005f 0000 0000      	0x5f
	...
     3c2:	0000                	unimp
     3c4:	9600                	0x9600
     3c6:	0011                	c.nop	4
     3c8:	0080                	addi	s0,sp,64
     3ca:	0000                	unimp
     3cc:	a200                	fsd	fs0,0(a2)
     3ce:	0011                	c.nop	4
     3d0:	0080                	addi	s0,sp,64
     3d2:	0000                	unimp
     3d4:	0100                	addi	s0,sp,128
     3d6:	5b00                	lw	s0,48(a4)
     3d8:	11a2                	slli	gp,gp,0x28
     3da:	8000                	0x8000
     3dc:	0000                	unimp
     3de:	0000                	unimp
     3e0:	11b8                	addi	a4,sp,232
     3e2:	8000                	0x8000
     3e4:	0000                	unimp
     3e6:	0000                	unimp
     3e8:	0004                	0x4
     3ea:	9f5b01f3          	0x9f5b01f3
     3ee:	11b8                	addi	a4,sp,232
     3f0:	8000                	0x8000
     3f2:	0000                	unimp
     3f4:	0000                	unimp
     3f6:	11ba                	slli	gp,gp,0x2e
     3f8:	8000                	0x8000
     3fa:	0000                	unimp
     3fc:	0000                	unimp
     3fe:	0001                	nop
     400:	0011ba5b          	0x11ba5b
     404:	0080                	addi	s0,sp,64
     406:	0000                	unimp
     408:	d000                	sw	s0,32(s0)
     40a:	0011                	c.nop	4
     40c:	0080                	addi	s0,sp,64
     40e:	0000                	unimp
     410:	0400                	addi	s0,sp,512
     412:	f300                	sd	s0,32(a4)
     414:	5b01                	li	s6,-32
     416:	009f 0000 0000      	0x9f
	...
     424:	0000                	unimp
     426:	ba00                	fsd	fs0,48(a2)
     428:	0011                	c.nop	4
     42a:	0080                	addi	s0,sp,64
     42c:	0000                	unimp
     42e:	c200                	sw	s0,0(a2)
     430:	0011                	c.nop	4
     432:	0080                	addi	s0,sp,64
     434:	0000                	unimp
     436:	0100                	addi	s0,sp,128
     438:	5b00                	lw	s0,48(a4)
     43a:	11c2                	slli	gp,gp,0x30
     43c:	8000                	0x8000
     43e:	0000                	unimp
     440:	0000                	unimp
     442:	11ca                	slli	gp,gp,0x32
     444:	8000                	0x8000
     446:	0000                	unimp
     448:	0000                	unimp
     44a:	087b0003          	lb	zero,135(s6)
     44e:	ca9f 0011 0080      	0x800011ca9f
     454:	0000                	unimp
     456:	ce00                	sw	s0,24(a2)
     458:	0011                	c.nop	4
     45a:	0080                	addi	s0,sp,64
     45c:	0000                	unimp
     45e:	0100                	addi	s0,sp,128
     460:	5b00                	lw	s0,48(a4)
	...
     472:	11ba                	slli	gp,gp,0x2e
     474:	8000                	0x8000
     476:	0000                	unimp
     478:	0000                	unimp
     47a:	11c2                	slli	gp,gp,0x30
     47c:	8000                	0x8000
     47e:	0000                	unimp
     480:	0000                	unimp
     482:	0001                	nop
     484:	c25f 0011 0080      	0x800011c25f
     48a:	0000                	unimp
     48c:	c800                	sw	s0,16(s0)
     48e:	0011                	c.nop	4
     490:	0080                	addi	s0,sp,64
     492:	0000                	unimp
     494:	0300                	addi	s0,sp,384
     496:	7f00                	ld	s0,56(a4)
     498:	9f08                	0x9f08
     49a:	11c8                	addi	a0,sp,228
     49c:	8000                	0x8000
     49e:	0000                	unimp
     4a0:	0000                	unimp
     4a2:	11ce                	slli	gp,gp,0x33
     4a4:	8000                	0x8000
     4a6:	0000                	unimp
     4a8:	0000                	unimp
     4aa:	0001                	nop
     4ac:	005f 0000 0000      	0x5f
	...
     4ba:	0000                	unimp
     4bc:	a200                	fsd	fs0,0(a2)
     4be:	0011                	c.nop	4
     4c0:	0080                	addi	s0,sp,64
     4c2:	0000                	unimp
     4c4:	aa00                	fsd	fs0,16(a2)
     4c6:	0011                	c.nop	4
     4c8:	0080                	addi	s0,sp,64
     4ca:	0000                	unimp
     4cc:	0100                	addi	s0,sp,128
     4ce:	5b00                	lw	s0,48(a4)
     4d0:	11aa                	slli	gp,gp,0x2a
     4d2:	8000                	0x8000
     4d4:	0000                	unimp
     4d6:	0000                	unimp
     4d8:	11b6                	slli	gp,gp,0x2d
     4da:	8000                	0x8000
     4dc:	0000                	unimp
     4de:	0000                	unimp
     4e0:	017b0003          	lb	zero,23(s6)
     4e4:	b69f 0011 0080      	0x800011b69f
     4ea:	0000                	unimp
     4ec:	b800                	fsd	fs0,48(s0)
     4ee:	0011                	c.nop	4
     4f0:	0080                	addi	s0,sp,64
     4f2:	0000                	unimp
     4f4:	0100                	addi	s0,sp,128
     4f6:	5b00                	lw	s0,48(a4)
     4f8:	11ce                	slli	gp,gp,0x33
     4fa:	8000                	0x8000
     4fc:	0000                	unimp
     4fe:	0000                	unimp
     500:	11d0                	addi	a2,sp,228
     502:	8000                	0x8000
     504:	0000                	unimp
     506:	0000                	unimp
     508:	0001                	nop
     50a:	0000005b          	0x5b
	...
     51a:	a200                	fsd	fs0,0(a2)
     51c:	0011                	c.nop	4
     51e:	0080                	addi	s0,sp,64
     520:	0000                	unimp
     522:	aa00                	fsd	fs0,16(a2)
     524:	0011                	c.nop	4
     526:	0080                	addi	s0,sp,64
     528:	0000                	unimp
     52a:	0100                	addi	s0,sp,128
     52c:	5f00                	lw	s0,56(a4)
     52e:	11aa                	slli	gp,gp,0x2a
     530:	8000                	0x8000
     532:	0000                	unimp
     534:	0000                	unimp
     536:	11b4                	addi	a3,sp,232
     538:	8000                	0x8000
     53a:	0000                	unimp
     53c:	0000                	unimp
     53e:	017f0003          	lb	zero,23(t5)
     542:	b49f 0011 0080      	0x800011b49f
     548:	0000                	unimp
     54a:	b800                	fsd	fs0,48(s0)
     54c:	0011                	c.nop	4
     54e:	0080                	addi	s0,sp,64
     550:	0000                	unimp
     552:	0100                	addi	s0,sp,128
     554:	5f00                	lw	s0,56(a4)
     556:	11ce                	slli	gp,gp,0x33
     558:	8000                	0x8000
     55a:	0000                	unimp
     55c:	0000                	unimp
     55e:	11d0                	addi	a2,sp,228
     560:	8000                	0x8000
     562:	0000                	unimp
     564:	0000                	unimp
     566:	0001                	nop
     568:	005f 0000 0000      	0x5f
	...
     576:	0000                	unimp
     578:	7a00                	ld	s0,48(a2)
     57a:	0015                	c.nop	5
     57c:	0080                	addi	s0,sp,64
     57e:	0000                	unimp
     580:	a000                	fsd	fs0,0(s0)
     582:	0015                	c.nop	5
     584:	0080                	addi	s0,sp,64
     586:	0000                	unimp
     588:	0100                	addi	s0,sp,128
     58a:	5a00                	lw	s0,48(a2)
     58c:	15a0                	addi	s0,sp,744
     58e:	8000                	0x8000
     590:	0000                	unimp
     592:	0000                	unimp
     594:	800015a3          	sh	zero,-2037(zero) # fffffffffffff80b <__global_pointer$+0xffffffff7fffd7ef>
     598:	0000                	unimp
     59a:	0000                	unimp
     59c:	0001                	nop
     59e:	0058                	addi	a4,sp,4
	...
     5ac:	0000                	unimp
     5ae:	7a00                	ld	s0,48(a2)
     5b0:	0015                	c.nop	5
     5b2:	0080                	addi	s0,sp,64
     5b4:	0000                	unimp
     5b6:	9800                	0x9800
     5b8:	0015                	c.nop	5
     5ba:	0080                	addi	s0,sp,64
     5bc:	0000                	unimp
     5be:	0100                	addi	s0,sp,128
     5c0:	5b00                	lw	s0,48(a4)
     5c2:	1598                	addi	a4,sp,736
     5c4:	8000                	0x8000
     5c6:	0000                	unimp
     5c8:	0000                	unimp
     5ca:	800015a3          	sh	zero,-2037(zero) # fffffffffffff80b <__global_pointer$+0xffffffff7fffd7ef>
     5ce:	0000                	unimp
     5d0:	0000                	unimp
     5d2:	0001                	nop
     5d4:	a35c                	fsd	fa5,128(a4)
     5d6:	0015                	c.nop	5
     5d8:	0080                	addi	s0,sp,64
     5da:	0000                	unimp
     5dc:	b600                	fsd	fs0,40(a2)
     5de:	0015                	c.nop	5
     5e0:	0080                	addi	s0,sp,64
     5e2:	0000                	unimp
     5e4:	0400                	addi	s0,sp,512
     5e6:	f300                	sd	s0,32(a4)
     5e8:	5b01                	li	s6,-32
     5ea:	009f 0000 0000      	0x9f
	...
     5f8:	0000                	unimp
     5fa:	9000                	0x9000
     5fc:	0015                	c.nop	5
     5fe:	0080                	addi	s0,sp,64
     600:	0000                	unimp
     602:	a000                	fsd	fs0,0(s0)
     604:	0015                	c.nop	5
     606:	0080                	addi	s0,sp,64
     608:	0000                	unimp
     60a:	0100                	addi	s0,sp,128
     60c:	5a00                	lw	s0,48(a2)
     60e:	15a0                	addi	s0,sp,744
     610:	8000                	0x8000
     612:	0000                	unimp
     614:	0000                	unimp
     616:	15b2                	slli	a1,a1,0x2c
     618:	8000                	0x8000
     61a:	0000                	unimp
     61c:	0000                	unimp
     61e:	0001                	nop
     620:	b258                	fsd	fa4,160(a2)
     622:	0015                	c.nop	5
     624:	0080                	addi	s0,sp,64
     626:	0000                	unimp
     628:	b600                	fsd	fs0,40(a2)
     62a:	0015                	c.nop	5
     62c:	0080                	addi	s0,sp,64
     62e:	0000                	unimp
     630:	0400                	addi	s0,sp,512
     632:	f300                	sd	s0,32(a4)
     634:	5a01                	li	s4,-32
     636:	009f 0000 0000      	0x9f
	...
     644:	0000                	unimp
     646:	e400                	sd	s0,8(s0)
     648:	0014                	0x14
     64a:	0080                	addi	s0,sp,64
     64c:	0000                	unimp
     64e:	0600                	addi	s0,sp,768
     650:	0015                	c.nop	5
     652:	0080                	addi	s0,sp,64
     654:	0000                	unimp
     656:	0100                	addi	s0,sp,128
     658:	5a00                	lw	s0,48(a2)
     65a:	1506                	slli	a0,a0,0x21
     65c:	8000                	0x8000
     65e:	0000                	unimp
     660:	0000                	unimp
     662:	1509                	addi	a0,a0,-30
     664:	8000                	0x8000
     666:	0000                	unimp
     668:	0000                	unimp
     66a:	0001                	nop
     66c:	095c                	addi	a5,sp,148
     66e:	0015                	c.nop	5
     670:	0080                	addi	s0,sp,64
     672:	0000                	unimp
     674:	1200                	addi	s0,sp,288
     676:	0015                	c.nop	5
     678:	0080                	addi	s0,sp,64
     67a:	0000                	unimp
     67c:	0400                	addi	s0,sp,512
     67e:	f300                	sd	s0,32(a4)
     680:	5a01                	li	s4,-32
     682:	009f 0000 0000      	0x9f
	...
     690:	0000                	unimp
     692:	be00                	fsd	fs0,56(a2)
     694:	0012                	c.slli	zero,0x4
     696:	0080                	addi	s0,sp,64
     698:	0000                	unimp
     69a:	d800                	sw	s0,48(s0)
     69c:	0012                	c.slli	zero,0x4
     69e:	0080                	addi	s0,sp,64
     6a0:	0000                	unimp
     6a2:	0100                	addi	s0,sp,128
     6a4:	5a00                	lw	s0,48(a2)
     6a6:	12d8                	addi	a4,sp,356
     6a8:	8000                	0x8000
     6aa:	0000                	unimp
     6ac:	0000                	unimp
     6ae:	14d8                	addi	a4,sp,612
     6b0:	8000                	0x8000
     6b2:	0000                	unimp
     6b4:	0000                	unimp
     6b6:	0001                	nop
     6b8:	d862                	sw	s8,48(sp)
     6ba:	0014                	0x14
     6bc:	0080                	addi	s0,sp,64
     6be:	0000                	unimp
     6c0:	e400                	sd	s0,8(s0)
     6c2:	0014                	0x14
     6c4:	0080                	addi	s0,sp,64
     6c6:	0000                	unimp
     6c8:	0400                	addi	s0,sp,512
     6ca:	f300                	sd	s0,32(a4)
     6cc:	5a01                	li	s4,-32
     6ce:	009f 0000 0000      	0x9f
	...
     6dc:	0000                	unimp
     6de:	be00                	fsd	fs0,56(a2)
     6e0:	0012                	c.slli	zero,0x4
     6e2:	0080                	addi	s0,sp,64
     6e4:	0000                	unimp
     6e6:	d800                	sw	s0,48(s0)
     6e8:	0012                	c.slli	zero,0x4
     6ea:	0080                	addi	s0,sp,64
     6ec:	0000                	unimp
     6ee:	0100                	addi	s0,sp,128
     6f0:	5b00                	lw	s0,48(a4)
     6f2:	12d8                	addi	a4,sp,356
     6f4:	8000                	0x8000
     6f6:	0000                	unimp
     6f8:	0000                	unimp
     6fa:	14d6                	slli	s1,s1,0x35
     6fc:	8000                	0x8000
     6fe:	0000                	unimp
     700:	0000                	unimp
     702:	0001                	nop
     704:	d659                	beqz	a2,692 <_tbss_end+0x692>
     706:	0014                	0x14
     708:	0080                	addi	s0,sp,64
     70a:	0000                	unimp
     70c:	e400                	sd	s0,8(s0)
     70e:	0014                	0x14
     710:	0080                	addi	s0,sp,64
     712:	0000                	unimp
     714:	0400                	addi	s0,sp,512
     716:	f300                	sd	s0,32(a4)
     718:	5b01                	li	s6,-32
     71a:	009f 0000 0000      	0x9f
	...
     728:	0000                	unimp
     72a:	be00                	fsd	fs0,56(a2)
     72c:	0012                	c.slli	zero,0x4
     72e:	0080                	addi	s0,sp,64
     730:	0000                	unimp
     732:	d800                	sw	s0,48(s0)
     734:	0012                	c.slli	zero,0x4
     736:	0080                	addi	s0,sp,64
     738:	0000                	unimp
     73a:	0100                	addi	s0,sp,128
     73c:	5c00                	lw	s0,56(s0)
     73e:	12d8                	addi	a4,sp,356
     740:	8000                	0x8000
     742:	0000                	unimp
     744:	0000                	unimp
     746:	12f4                	addi	a3,sp,364
     748:	8000                	0x8000
     74a:	0000                	unimp
     74c:	0000                	unimp
     74e:	0001                	nop
     750:	f458                	sd	a4,168(s0)
     752:	0012                	c.slli	zero,0x4
     754:	0080                	addi	s0,sp,64
     756:	0000                	unimp
     758:	0000                	unimp
     75a:	00800013          	li	zero,8
     75e:	0000                	unimp
     760:	0100                	addi	s0,sp,128
     762:	6300                	ld	s0,0(a4)
     764:	1300                	addi	s0,sp,416
     766:	8000                	0x8000
     768:	0000                	unimp
     76a:	0000                	unimp
     76c:	1304                	addi	s1,sp,416
     76e:	8000                	0x8000
     770:	0000                	unimp
     772:	0000                	unimp
     774:	0001                	nop
     776:	045f 0013 0080      	0x800013045f
     77c:	0000                	unimp
     77e:	cc00                	sw	s0,24(s0)
     780:	0014                	0x14
     782:	0080                	addi	s0,sp,64
     784:	0000                	unimp
     786:	0100                	addi	s0,sp,128
     788:	5800                	lw	s0,48(s0)
     78a:	14cc                	addi	a1,sp,612
     78c:	8000                	0x8000
     78e:	0000                	unimp
     790:	0000                	unimp
     792:	14d0                	addi	a2,sp,612
     794:	8000                	0x8000
     796:	0000                	unimp
     798:	0000                	unimp
     79a:	0001                	nop
     79c:	0014d063          	bge	s1,ra,79c <_tbss_end+0x79c>
     7a0:	0080                	addi	s0,sp,64
     7a2:	0000                	unimp
     7a4:	d400                	sw	s0,40(s0)
     7a6:	0014                	0x14
     7a8:	0080                	addi	s0,sp,64
     7aa:	0000                	unimp
     7ac:	0100                	addi	s0,sp,128
     7ae:	5800                	lw	s0,48(s0)
	...
     7c0:	12be                	slli	t0,t0,0x2f
     7c2:	8000                	0x8000
     7c4:	0000                	unimp
     7c6:	0000                	unimp
     7c8:	12d8                	addi	a4,sp,356
     7ca:	8000                	0x8000
     7cc:	0000                	unimp
     7ce:	0000                	unimp
     7d0:	0001                	nop
     7d2:	005d                	c.nop	23
	...
     7e0:	0000                	unimp
     7e2:	b600                	fsd	fs0,40(a2)
     7e4:	00800013          	li	zero,8
     7e8:	0000                	unimp
     7ea:	d000                	sw	s0,32(s0)
     7ec:	00800013          	li	zero,8
     7f0:	0000                	unimp
     7f2:	0100                	addi	s0,sp,128
     7f4:	6300                	ld	s0,0(a4)
     7f6:	13da                	slli	t2,t2,0x36
     7f8:	8000                	0x8000
     7fa:	0000                	unimp
     7fc:	0000                	unimp
     7fe:	1414                	addi	a3,sp,544
     800:	8000                	0x8000
     802:	0000                	unimp
     804:	0000                	unimp
     806:	0001                	nop
     808:	00000063          	beqz	zero,808 <_tbss_end+0x808>
	...
     818:	f400                	sd	s0,40(s0)
     81a:	0012                	c.slli	zero,0x4
     81c:	0080                	addi	s0,sp,64
     81e:	0000                	unimp
     820:	3800                	fld	fs0,48(s0)
     822:	00800013          	li	zero,8
     826:	0000                	unimp
     828:	0100                	addi	s0,sp,128
     82a:	6300                	ld	s0,0(a4)
     82c:	133a                	slli	t1,t1,0x2e
     82e:	8000                	0x8000
     830:	0000                	unimp
     832:	0000                	unimp
     834:	13b2                	slli	t2,t2,0x2c
     836:	8000                	0x8000
     838:	0000                	unimp
     83a:	0000                	unimp
     83c:	0001                	nop
     83e:	00141463          	bne	s0,ra,846 <_tbss_end+0x846>
     842:	0080                	addi	s0,sp,64
     844:	0000                	unimp
     846:	1c00                	addi	s0,sp,560
     848:	0014                	0x14
     84a:	0080                	addi	s0,sp,64
     84c:	0000                	unimp
     84e:	0100                	addi	s0,sp,128
     850:	6300                	ld	s0,0(a4)
     852:	1432                	slli	s0,s0,0x2c
     854:	8000                	0x8000
     856:	0000                	unimp
     858:	0000                	unimp
     85a:	1434                	addi	a3,sp,552
     85c:	8000                	0x8000
     85e:	0000                	unimp
     860:	0000                	unimp
     862:	0001                	nop
     864:	00146663          	bltu	s0,ra,870 <_tbss_end+0x870>
     868:	0080                	addi	s0,sp,64
     86a:	0000                	unimp
     86c:	7a00                	ld	s0,48(a2)
     86e:	0014                	0x14
     870:	0080                	addi	s0,sp,64
     872:	0000                	unimp
     874:	0100                	addi	s0,sp,128
     876:	6300                	ld	s0,0(a4)
     878:	147c                	addi	a5,sp,556
     87a:	8000                	0x8000
     87c:	0000                	unimp
     87e:	0000                	unimp
     880:	147e                	slli	s0,s0,0x3f
     882:	8000                	0x8000
     884:	0000                	unimp
     886:	0000                	unimp
     888:	0001                	nop
     88a:	0014be63          	0x14be63
     88e:	0080                	addi	s0,sp,64
     890:	0000                	unimp
     892:	d000                	sw	s0,32(s0)
     894:	0014                	0x14
     896:	0080                	addi	s0,sp,64
     898:	0000                	unimp
     89a:	0100                	addi	s0,sp,128
     89c:	6300                	ld	s0,0(a4)
	...
     8ae:	12dc                	addi	a5,sp,356
     8b0:	8000                	0x8000
     8b2:	0000                	unimp
     8b4:	0000                	unimp
     8b6:	12ed                	addi	t0,t0,-5
     8b8:	8000                	0x8000
     8ba:	0000                	unimp
     8bc:	0000                	unimp
     8be:	0001                	nop
     8c0:	f05a                	sd	s6,32(sp)
     8c2:	0012                	c.slli	zero,0x4
     8c4:	0080                	addi	s0,sp,64
     8c6:	0000                	unimp
     8c8:	a200                	fsd	fs0,0(a2)
     8ca:	00800013          	li	zero,8
     8ce:	0000                	unimp
     8d0:	0100                	addi	s0,sp,128
     8d2:	5a00                	lw	s0,48(a2)
     8d4:	13a6                	slli	t2,t2,0x29
     8d6:	8000                	0x8000
     8d8:	0000                	unimp
     8da:	0000                	unimp
     8dc:	13c6                	slli	t2,t2,0x31
     8de:	8000                	0x8000
     8e0:	0000                	unimp
     8e2:	0000                	unimp
     8e4:	0001                	nop
     8e6:	d05a                	sw	s6,32(sp)
     8e8:	00800013          	li	zero,8
     8ec:	0000                	unimp
     8ee:	da00                	sw	s0,48(a2)
     8f0:	00800013          	li	zero,8
     8f4:	0000                	unimp
     8f6:	0100                	addi	s0,sp,128
     8f8:	5a00                	lw	s0,48(a2)
     8fa:	13ea                	slli	t2,t2,0x3a
     8fc:	8000                	0x8000
     8fe:	0000                	unimp
     900:	0000                	unimp
     902:	13ed                	addi	t2,t2,-5
     904:	8000                	0x8000
     906:	0000                	unimp
     908:	0000                	unimp
     90a:	0001                	nop
     90c:	f65a                	sd	s6,296(sp)
     90e:	00800013          	li	zero,8
     912:	0000                	unimp
     914:	0400                	addi	s0,sp,512
     916:	0014                	0x14
     918:	0080                	addi	s0,sp,64
     91a:	0000                	unimp
     91c:	0100                	addi	s0,sp,128
     91e:	5a00                	lw	s0,48(a2)
     920:	1414                	addi	a3,sp,544
     922:	8000                	0x8000
     924:	0000                	unimp
     926:	0000                	unimp
     928:	1416                	slli	s0,s0,0x25
     92a:	8000                	0x8000
     92c:	0000                	unimp
     92e:	0000                	unimp
     930:	0001                	nop
     932:	165a                	slli	a2,a2,0x36
     934:	0014                	0x14
     936:	0080                	addi	s0,sp,64
     938:	0000                	unimp
     93a:	1900                	addi	s0,sp,176
     93c:	0014                	0x14
     93e:	0080                	addi	s0,sp,64
     940:	0000                	unimp
     942:	0100                	addi	s0,sp,128
     944:	5e00                	lw	s0,56(a2)
     946:	1432                	slli	s0,s0,0x2c
     948:	8000                	0x8000
     94a:	0000                	unimp
     94c:	0000                	unimp
     94e:	1434                	addi	a3,sp,552
     950:	8000                	0x8000
     952:	0000                	unimp
     954:	0000                	unimp
     956:	0001                	nop
     958:	665a                	ld	a2,400(sp)
     95a:	0014                	0x14
     95c:	0080                	addi	s0,sp,64
     95e:	0000                	unimp
     960:	6c00                	ld	s0,24(s0)
     962:	0014                	0x14
     964:	0080                	addi	s0,sp,64
     966:	0000                	unimp
     968:	0100                	addi	s0,sp,128
     96a:	5a00                	lw	s0,48(a2)
     96c:	146c                	addi	a1,sp,556
     96e:	8000                	0x8000
     970:	0000                	unimp
     972:	0000                	unimp
     974:	146d                	addi	s0,s0,-5
     976:	8000                	0x8000
     978:	0000                	unimp
     97a:	0000                	unimp
     97c:	0001                	nop
     97e:	7c5e                	ld	s8,496(sp)
     980:	0014                	0x14
     982:	0080                	addi	s0,sp,64
     984:	0000                	unimp
     986:	8000                	0x8000
     988:	0014                	0x14
     98a:	0080                	addi	s0,sp,64
     98c:	0000                	unimp
     98e:	0100                	addi	s0,sp,128
     990:	5a00                	lw	s0,48(a2)
     992:	14be                	slli	s1,s1,0x2f
     994:	8000                	0x8000
     996:	0000                	unimp
     998:	0000                	unimp
     99a:	14c1                	addi	s1,s1,-16
     99c:	8000                	0x8000
     99e:	0000                	unimp
     9a0:	0000                	unimp
     9a2:	0001                	nop
     9a4:	c45a                	sw	s6,8(sp)
     9a6:	0014                	0x14
     9a8:	0080                	addi	s0,sp,64
     9aa:	0000                	unimp
     9ac:	ca00                	sw	s0,16(a2)
     9ae:	0014                	0x14
     9b0:	0080                	addi	s0,sp,64
     9b2:	0000                	unimp
     9b4:	0100                	addi	s0,sp,128
     9b6:	5a00                	lw	s0,48(a2)
     9b8:	14ca                	slli	s1,s1,0x32
     9ba:	8000                	0x8000
     9bc:	0000                	unimp
     9be:	0000                	unimp
     9c0:	800014cb          	fnmsub.s	fs1,ft0,ft0,fa6,rtz
     9c4:	0000                	unimp
     9c6:	0000                	unimp
     9c8:	0001                	nop
     9ca:	d05e                	sw	s7,32(sp)
     9cc:	0014                	0x14
     9ce:	0080                	addi	s0,sp,64
     9d0:	0000                	unimp
     9d2:	e400                	sd	s0,8(s0)
     9d4:	0014                	0x14
     9d6:	0080                	addi	s0,sp,64
     9d8:	0000                	unimp
     9da:	0100                	addi	s0,sp,128
     9dc:	5a00                	lw	s0,48(a2)
	...
     9ee:	141c                	addi	a5,sp,544
     9f0:	8000                	0x8000
     9f2:	0000                	unimp
     9f4:	0000                	unimp
     9f6:	142a                	slli	s0,s0,0x2a
     9f8:	8000                	0x8000
     9fa:	0000                	unimp
     9fc:	0000                	unimp
     9fe:	0001                	nop
     a00:	2a5a                	fld	fs4,400(sp)
     a02:	0014                	0x14
     a04:	0080                	addi	s0,sp,64
     a06:	0000                	unimp
     a08:	3000                	fld	fs0,32(s0)
     a0a:	0014                	0x14
     a0c:	0080                	addi	s0,sp,64
     a0e:	0000                	unimp
     a10:	0100                	addi	s0,sp,128
     a12:	6300                	ld	s0,0(a4)
     a14:	1430                	addi	a2,sp,552
     a16:	8000                	0x8000
     a18:	0000                	unimp
     a1a:	0000                	unimp
     a1c:	1432                	slli	s0,s0,0x2c
     a1e:	8000                	0x8000
     a20:	0000                	unimp
     a22:	0000                	unimp
     a24:	0001                	nop
     a26:	3a5a                	fld	fs4,432(sp)
     a28:	0014                	0x14
     a2a:	0080                	addi	s0,sp,64
     a2c:	0000                	unimp
     a2e:	4200                	lw	s0,0(a2)
     a30:	0014                	0x14
     a32:	0080                	addi	s0,sp,64
     a34:	0000                	unimp
     a36:	0100                	addi	s0,sp,128
     a38:	5a00                	lw	s0,48(a2)
	...
     a4a:	1420                	addi	s0,sp,552
     a4c:	8000                	0x8000
     a4e:	0000                	unimp
     a50:	0000                	unimp
     a52:	1424                	addi	s1,sp,552
     a54:	8000                	0x8000
     a56:	0000                	unimp
     a58:	0000                	unimp
     a5a:	0002                	c.slli64	zero
     a5c:	9f3a                	add	t5,t5,a4
     a5e:	1432                	slli	s0,s0,0x2c
     a60:	8000                	0x8000
     a62:	0000                	unimp
     a64:	0000                	unimp
     a66:	1434                	addi	a3,sp,552
     a68:	8000                	0x8000
     a6a:	0000                	unimp
     a6c:	0000                	unimp
     a6e:	0002                	c.slli64	zero
     a70:	9f38                	0x9f38
     a72:	1434                	addi	a3,sp,552
     a74:	8000                	0x8000
     a76:	0000                	unimp
     a78:	0000                	unimp
     a7a:	1442                	slli	s0,s0,0x30
     a7c:	8000                	0x8000
     a7e:	0000                	unimp
     a80:	0000                	unimp
     a82:	0001                	nop
     a84:	00144263          	blt	s0,ra,a88 <_tbss_end+0xa88>
     a88:	0080                	addi	s0,sp,64
     a8a:	0000                	unimp
     a8c:	6600                	ld	s0,8(a2)
     a8e:	0014                	0x14
     a90:	0080                	addi	s0,sp,64
     a92:	0000                	unimp
     a94:	0100                	addi	s0,sp,128
     a96:	5c00                	lw	s0,56(s0)
	...
     aa8:	12f4                	addi	a3,sp,364
     aaa:	8000                	0x8000
     aac:	0000                	unimp
     aae:	0000                	unimp
     ab0:	1300                	addi	s0,sp,416
     ab2:	8000                	0x8000
     ab4:	0000                	unimp
     ab6:	0000                	unimp
     ab8:	0002                	c.slli64	zero
     aba:	9f30                	0x9f30
     abc:	1300                	addi	s0,sp,416
     abe:	8000                	0x8000
     ac0:	0000                	unimp
     ac2:	0000                	unimp
     ac4:	1392                	slli	t2,t2,0x24
     ac6:	8000                	0x8000
     ac8:	0000                	unimp
     aca:	0000                	unimp
     acc:	0001                	nop
     ace:	0013965b          	0x13965b
     ad2:	0080                	addi	s0,sp,64
     ad4:	0000                	unimp
     ad6:	a000                	fsd	fs0,0(s0)
     ad8:	00800013          	li	zero,8
     adc:	0000                	unimp
     ade:	0100                	addi	s0,sp,128
     ae0:	5b00                	lw	s0,48(a4)
     ae2:	13a6                	slli	t2,t2,0x29
     ae4:	8000                	0x8000
     ae6:	0000                	unimp
     ae8:	0000                	unimp
     aea:	13c4                	addi	s1,sp,484
     aec:	8000                	0x8000
     aee:	0000                	unimp
     af0:	0000                	unimp
     af2:	0001                	nop
     af4:	0013d05b          	0x13d05b
     af8:	0080                	addi	s0,sp,64
     afa:	0000                	unimp
     afc:	da00                	sw	s0,48(a2)
     afe:	00800013          	li	zero,8
     b02:	0000                	unimp
     b04:	0100                	addi	s0,sp,128
     b06:	5b00                	lw	s0,48(a4)
     b08:	1414                	addi	a3,sp,544
     b0a:	8000                	0x8000
     b0c:	0000                	unimp
     b0e:	0000                	unimp
     b10:	1419                	addi	s0,s0,-26
     b12:	8000                	0x8000
     b14:	0000                	unimp
     b16:	0000                	unimp
     b18:	0001                	nop
     b1a:	0014325b          	0x14325b
     b1e:	0080                	addi	s0,sp,64
     b20:	0000                	unimp
     b22:	3900                	fld	fs0,48(a0)
     b24:	0014                	0x14
     b26:	0080                	addi	s0,sp,64
     b28:	0000                	unimp
     b2a:	0100                	addi	s0,sp,128
     b2c:	5b00                	lw	s0,48(a4)
     b2e:	1466                	slli	s0,s0,0x39
     b30:	8000                	0x8000
     b32:	0000                	unimp
     b34:	0000                	unimp
     b36:	147c                	addi	a5,sp,556
     b38:	8000                	0x8000
     b3a:	0000                	unimp
     b3c:	0000                	unimp
     b3e:	0002                	c.slli64	zero
     b40:	9f31                	addw	a4,a4,a2
     b42:	147c                	addi	a5,sp,556
     b44:	8000                	0x8000
     b46:	0000                	unimp
     b48:	0000                	unimp
     b4a:	1480                	addi	s0,sp,608
     b4c:	8000                	0x8000
     b4e:	0000                	unimp
     b50:	0000                	unimp
     b52:	0001                	nop
     b54:	0014be5b          	0x14be5b
     b58:	0080                	addi	s0,sp,64
     b5a:	0000                	unimp
     b5c:	c000                	sw	s0,0(s0)
     b5e:	0014                	0x14
     b60:	0080                	addi	s0,sp,64
     b62:	0000                	unimp
     b64:	0100                	addi	s0,sp,128
     b66:	5b00                	lw	s0,48(a4)
     b68:	14c4                	addi	s1,sp,612
     b6a:	8000                	0x8000
     b6c:	0000                	unimp
     b6e:	0000                	unimp
     b70:	14c6                	slli	s1,s1,0x31
     b72:	8000                	0x8000
     b74:	0000                	unimp
     b76:	0000                	unimp
     b78:	0001                	nop
     b7a:	0000005b          	0x5b
	...
     b8a:	f400                	sd	s0,40(s0)
     b8c:	0012                	c.slli	zero,0x4
     b8e:	0080                	addi	s0,sp,64
     b90:	0000                	unimp
     b92:	0000                	unimp
     b94:	00800013          	li	zero,8
     b98:	0000                	unimp
     b9a:	0300                	addi	s0,sp,384
     b9c:	0900                	addi	s0,sp,144
     b9e:	9fff                	0x9fff
     ba0:	1300                	addi	s0,sp,416
     ba2:	8000                	0x8000
     ba4:	0000                	unimp
     ba6:	0000                	unimp
     ba8:	1378                	addi	a4,sp,428
     baa:	8000                	0x8000
     bac:	0000                	unimp
     bae:	0000                	unimp
     bb0:	0001                	nop
     bb2:	7a64                	ld	s1,240(a2)
     bb4:	00800013          	li	zero,8
     bb8:	0000                	unimp
     bba:	8600                	0x8600
     bbc:	00800013          	li	zero,8
     bc0:	0000                	unimp
     bc2:	0100                	addi	s0,sp,128
     bc4:	6400                	ld	s0,8(s0)
     bc6:	1388                	addi	a0,sp,480
     bc8:	8000                	0x8000
     bca:	0000                	unimp
     bcc:	0000                	unimp
     bce:	13ce                	slli	t2,t2,0x33
     bd0:	8000                	0x8000
     bd2:	0000                	unimp
     bd4:	0000                	unimp
     bd6:	0001                	nop
     bd8:	d064                	sw	s1,100(s0)
     bda:	00800013          	li	zero,8
     bde:	0000                	unimp
     be0:	8000                	0x8000
     be2:	0014                	0x14
     be4:	0080                	addi	s0,sp,64
     be6:	0000                	unimp
     be8:	0100                	addi	s0,sp,128
     bea:	6400                	ld	s0,8(s0)
     bec:	14be                	slli	s1,s1,0x2f
     bee:	8000                	0x8000
     bf0:	0000                	unimp
     bf2:	0000                	unimp
     bf4:	14d0                	addi	a2,sp,612
     bf6:	8000                	0x8000
     bf8:	0000                	unimp
     bfa:	0000                	unimp
     bfc:	0001                	nop
     bfe:	0064                	addi	s1,sp,12
	...
     c0c:	0000                	unimp
     c0e:	f400                	sd	s0,40(s0)
     c10:	0012                	c.slli	zero,0x4
     c12:	0080                	addi	s0,sp,64
     c14:	0000                	unimp
     c16:	0000                	unimp
     c18:	00800013          	li	zero,8
     c1c:	0000                	unimp
     c1e:	0300                	addi	s0,sp,384
     c20:	0900                	addi	s0,sp,144
     c22:	9fff                	0x9fff
     c24:	1300                	addi	s0,sp,416
     c26:	8000                	0x8000
     c28:	0000                	unimp
     c2a:	0000                	unimp
     c2c:	134e                	slli	t1,t1,0x33
     c2e:	8000                	0x8000
     c30:	0000                	unimp
     c32:	0000                	unimp
     c34:	0001                	nop
     c36:	4e66                	lw	t3,88(sp)
     c38:	00800013          	li	zero,8
     c3c:	0000                	unimp
     c3e:	5c00                	lw	s0,56(s0)
     c40:	00800013          	li	zero,8
     c44:	0000                	unimp
     c46:	0300                	addi	s0,sp,384
     c48:	7f00                	ld	s0,56(a4)
     c4a:	9f50                	0x9f50
     c4c:	1364                	addi	s1,sp,428
     c4e:	8000                	0x8000
     c50:	0000                	unimp
     c52:	0000                	unimp
     c54:	1370                	addi	a2,sp,428
     c56:	8000                	0x8000
     c58:	0000                	unimp
     c5a:	0000                	unimp
     c5c:	0001                	nop
     c5e:	7266                	ld	tp,120(sp)
     c60:	00800013          	li	zero,8
     c64:	0000                	unimp
     c66:	7a00                	ld	s0,48(a2)
     c68:	00800013          	li	zero,8
     c6c:	0000                	unimp
     c6e:	0100                	addi	s0,sp,128
     c70:	6600                	ld	s0,8(a2)
     c72:	137a                	slli	t1,t1,0x3e
     c74:	8000                	0x8000
     c76:	0000                	unimp
     c78:	0000                	unimp
     c7a:	137c                	addi	a5,sp,428
     c7c:	8000                	0x8000
     c7e:	0000                	unimp
     c80:	0000                	unimp
     c82:	ff090003          	lb	zero,-16(s2) # 1cff0 <_tbss_end+0x1cff0>
     c86:	7c9f 0013 0080      	0x8000137c9f
     c8c:	0000                	unimp
     c8e:	8c00                	0x8c00
     c90:	00800013          	li	zero,8
     c94:	0000                	unimp
     c96:	0100                	addi	s0,sp,128
     c98:	6600                	ld	s0,8(a2)
     c9a:	1390                	addi	a2,sp,480
     c9c:	8000                	0x8000
     c9e:	0000                	unimp
     ca0:	0000                	unimp
     ca2:	13fe                	slli	t2,t2,0x3f
     ca4:	8000                	0x8000
     ca6:	0000                	unimp
     ca8:	0000                	unimp
     caa:	0001                	nop
     cac:	1466                	slli	s0,s0,0x39
     cae:	0014                	0x14
     cb0:	0080                	addi	s0,sp,64
     cb2:	0000                	unimp
     cb4:	8000                	0x8000
     cb6:	0014                	0x14
     cb8:	0080                	addi	s0,sp,64
     cba:	0000                	unimp
     cbc:	0100                	addi	s0,sp,128
     cbe:	6600                	ld	s0,8(a2)
     cc0:	14be                	slli	s1,s1,0x2f
     cc2:	8000                	0x8000
     cc4:	0000                	unimp
     cc6:	0000                	unimp
     cc8:	14d0                	addi	a2,sp,612
     cca:	8000                	0x8000
     ccc:	0000                	unimp
     cce:	0000                	unimp
     cd0:	0001                	nop
     cd2:	0066                	c.slli	zero,0x19
	...
     ce0:	0000                	unimp
     ce2:	f400                	sd	s0,40(s0)
     ce4:	0012                	c.slli	zero,0x4
     ce6:	0080                	addi	s0,sp,64
     ce8:	0000                	unimp
     cea:	0000                	unimp
     cec:	00800013          	li	zero,8
     cf0:	0000                	unimp
     cf2:	0200                	addi	s0,sp,256
     cf4:	3000                	fld	fs0,32(s0)
     cf6:	889f 0013 0080      	0x800013889f
     cfc:	0000                	unimp
     cfe:	8c00                	0x8c00
     d00:	00800013          	li	zero,8
     d04:	0000                	unimp
     d06:	0200                	addi	s0,sp,256
     d08:	3100                	fld	fs0,32(a0)
     d0a:	009f 0000 0000      	0x9f
	...
     d18:	0000                	unimp
     d1a:	f400                	sd	s0,40(s0)
     d1c:	0012                	c.slli	zero,0x4
     d1e:	0080                	addi	s0,sp,64
     d20:	0000                	unimp
     d22:	0000                	unimp
     d24:	00800013          	li	zero,8
     d28:	0000                	unimp
     d2a:	0300                	addi	s0,sp,384
     d2c:	0800                	addi	s0,sp,16
     d2e:	9f20                	0x9f20
     d30:	1300                	addi	s0,sp,416
     d32:	8000                	0x8000
     d34:	0000                	unimp
     d36:	0000                	unimp
     d38:	1332                	slli	t1,t1,0x2c
     d3a:	8000                	0x8000
     d3c:	0000                	unimp
     d3e:	0000                	unimp
     d40:	0001                	nop
     d42:	3665                	addiw	a2,a2,-7
     d44:	00800013          	li	zero,8
     d48:	0000                	unimp
     d4a:	9400                	0x9400
     d4c:	00800013          	li	zero,8
     d50:	0000                	unimp
     d52:	0100                	addi	s0,sp,128
     d54:	6500                	ld	s0,8(a0)
     d56:	1396                	slli	t2,t2,0x25
     d58:	8000                	0x8000
     d5a:	0000                	unimp
     d5c:	0000                	unimp
     d5e:	1440                	addi	s0,sp,548
     d60:	8000                	0x8000
     d62:	0000                	unimp
     d64:	0000                	unimp
     d66:	0001                	nop
     d68:	6665                	lui	a2,0x19
     d6a:	0014                	0x14
     d6c:	0080                	addi	s0,sp,64
     d6e:	0000                	unimp
     d70:	8000                	0x8000
     d72:	0014                	0x14
     d74:	0080                	addi	s0,sp,64
     d76:	0000                	unimp
     d78:	0100                	addi	s0,sp,128
     d7a:	6500                	ld	s0,8(a0)
     d7c:	14be                	slli	s1,s1,0x2f
     d7e:	8000                	0x8000
     d80:	0000                	unimp
     d82:	0000                	unimp
     d84:	14d0                	addi	a2,sp,612
     d86:	8000                	0x8000
     d88:	0000                	unimp
     d8a:	0000                	unimp
     d8c:	0001                	nop
     d8e:	0065                	c.nop	25
	...
     d9c:	0000                	unimp
     d9e:	4000                	lw	s0,0(s0)
     da0:	0014                	0x14
     da2:	0080                	addi	s0,sp,64
     da4:	0000                	unimp
     da6:	6600                	ld	s0,8(a2)
     da8:	0014                	0x14
     daa:	0080                	addi	s0,sp,64
     dac:	0000                	unimp
     dae:	0100                	addi	s0,sp,128
     db0:	6500                	ld	s0,8(a0)
     db2:	1480                	addi	s0,sp,608
     db4:	8000                	0x8000
     db6:	0000                	unimp
     db8:	0000                	unimp
     dba:	14be                	slli	s1,s1,0x2f
     dbc:	8000                	0x8000
     dbe:	0000                	unimp
     dc0:	0000                	unimp
     dc2:	0001                	nop
     dc4:	0065                	c.nop	25
	...
     dd2:	0000                	unimp
     dd4:	4000                	lw	s0,0(s0)
     dd6:	0014                	0x14
     dd8:	0080                	addi	s0,sp,64
     dda:	0000                	unimp
     ddc:	6600                	ld	s0,8(a2)
     dde:	0014                	0x14
     de0:	0080                	addi	s0,sp,64
     de2:	0000                	unimp
     de4:	0100                	addi	s0,sp,128
     de6:	6400                	ld	s0,8(s0)
     de8:	1480                	addi	s0,sp,608
     dea:	8000                	0x8000
     dec:	0000                	unimp
     dee:	0000                	unimp
     df0:	1484                	addi	s1,sp,608
     df2:	8000                	0x8000
     df4:	0000                	unimp
     df6:	0000                	unimp
     df8:	0001                	nop
     dfa:	8464                	0x8464
     dfc:	0014                	0x14
     dfe:	0080                	addi	s0,sp,64
     e00:	0000                	unimp
     e02:	9000                	0x9000
     e04:	0014                	0x14
     e06:	0080                	addi	s0,sp,64
     e08:	0000                	unimp
     e0a:	0300                	addi	s0,sp,384
     e0c:	8400                	0x8400
     e0e:	9f7f                	0x9f7f
	...
     e20:	1440                	addi	s0,sp,548
     e22:	8000                	0x8000
     e24:	0000                	unimp
     e26:	0000                	unimp
     e28:	1466                	slli	s0,s0,0x39
     e2a:	8000                	0x8000
     e2c:	0000                	unimp
     e2e:	0000                	unimp
     e30:	0001                	nop
     e32:	005c                	addi	a5,sp,4
	...
     e40:	0000                	unimp
     e42:	4000                	lw	s0,0(s0)
     e44:	0014                	0x14
     e46:	0080                	addi	s0,sp,64
     e48:	0000                	unimp
     e4a:	6600                	ld	s0,8(a2)
     e4c:	0014                	0x14
     e4e:	0080                	addi	s0,sp,64
     e50:	0000                	unimp
     e52:	0100                	addi	s0,sp,128
     e54:	5a00                	lw	s0,48(a2)
	...
     e66:	1440                	addi	s0,sp,548
     e68:	8000                	0x8000
     e6a:	0000                	unimp
     e6c:	0000                	unimp
     e6e:	1466                	slli	s0,s0,0x39
     e70:	8000                	0x8000
     e72:	0000                	unimp
     e74:	0000                	unimp
     e76:	0001                	nop
     e78:	8059                	srli	s0,s0,0x16
     e7a:	0014                	0x14
     e7c:	0080                	addi	s0,sp,64
     e7e:	0000                	unimp
     e80:	be00                	fsd	fs0,56(a2)
     e82:	0014                	0x14
     e84:	0080                	addi	s0,sp,64
     e86:	0000                	unimp
     e88:	0100                	addi	s0,sp,128
     e8a:	5900                	lw	s0,48(a0)
	...
     e9c:	1440                	addi	s0,sp,548
     e9e:	8000                	0x8000
     ea0:	0000                	unimp
     ea2:	0000                	unimp
     ea4:	1466                	slli	s0,s0,0x39
     ea6:	8000                	0x8000
     ea8:	0000                	unimp
     eaa:	0000                	unimp
     eac:	0001                	nop
     eae:	8062                	c.mv	zero,s8
     eb0:	0014                	0x14
     eb2:	0080                	addi	s0,sp,64
     eb4:	0000                	unimp
     eb6:	be00                	fsd	fs0,56(a2)
     eb8:	0014                	0x14
     eba:	0080                	addi	s0,sp,64
     ebc:	0000                	unimp
     ebe:	0100                	addi	s0,sp,128
     ec0:	6200                	ld	s0,0(a2)
	...
     ed2:	1440                	addi	s0,sp,548
     ed4:	8000                	0x8000
     ed6:	0000                	unimp
     ed8:	0000                	unimp
     eda:	1442                	slli	s0,s0,0x30
     edc:	8000                	0x8000
     ede:	0000                	unimp
     ee0:	0000                	unimp
     ee2:	0002                	c.slli64	zero
     ee4:	9f30                	0x9f30
     ee6:	1442                	slli	s0,s0,0x30
     ee8:	8000                	0x8000
     eea:	0000                	unimp
     eec:	0000                	unimp
     eee:	1450                	addi	a2,sp,548
     ef0:	8000                	0x8000
     ef2:	0000                	unimp
     ef4:	0000                	unimp
     ef6:	0001                	nop
     ef8:	505f 0014 0080      	0x800014505f
     efe:	0000                	unimp
     f00:	5200                	lw	s0,32(a2)
     f02:	0014                	0x14
     f04:	0080                	addi	s0,sp,64
     f06:	0000                	unimp
     f08:	0300                	addi	s0,sp,384
     f0a:	7f00                	ld	s0,56(a4)
     f0c:	9f01                	subw	a4,a4,s0
     f0e:	1492                	slli	s1,s1,0x24
     f10:	8000                	0x8000
     f12:	0000                	unimp
     f14:	0000                	unimp
     f16:	149e                	slli	s1,s1,0x27
     f18:	8000                	0x8000
     f1a:	0000                	unimp
     f1c:	0000                	unimp
     f1e:	7f830003          	lb	zero,2040(t1) # ffffffffffffa7f8 <__global_pointer$+0xffffffff7fff87dc>
     f22:	9e9f 0014 0080      	0x8000149e9f
     f28:	0000                	unimp
     f2a:	a200                	fsd	fs0,0(a2)
     f2c:	0014                	0x14
     f2e:	0080                	addi	s0,sp,64
     f30:	0000                	unimp
     f32:	0100                	addi	s0,sp,128
     f34:	6300                	ld	s0,0(a4)
     f36:	14a2                	slli	s1,s1,0x28
     f38:	8000                	0x8000
     f3a:	0000                	unimp
     f3c:	0000                	unimp
     f3e:	14be                	slli	s1,s1,0x2f
     f40:	8000                	0x8000
     f42:	0000                	unimp
     f44:	0000                	unimp
     f46:	7f830003          	lb	zero,2040(t1)
     f4a:	009f 0000 0000      	0x9f
	...
     f58:	0000                	unimp
     f5a:	a400                	fsd	fs0,8(s0)
     f5c:	0010                	0x10
     f5e:	0080                	addi	s0,sp,64
     f60:	0000                	unimp
     f62:	b600                	fsd	fs0,40(a2)
     f64:	0010                	0x10
     f66:	0080                	addi	s0,sp,64
     f68:	0000                	unimp
     f6a:	0100                	addi	s0,sp,128
     f6c:	5a00                	lw	s0,48(a2)
     f6e:	10b6                	slli	ra,ra,0x2d
     f70:	8000                	0x8000
     f72:	0000                	unimp
     f74:	0000                	unimp
     f76:	10b8                	addi	a4,sp,104
     f78:	8000                	0x8000
     f7a:	0000                	unimp
     f7c:	0000                	unimp
     f7e:	0004                	0x4
     f80:	9f5a01f3          	0x9f5a01f3
     f84:	10b8                	addi	a4,sp,104
     f86:	8000                	0x8000
     f88:	0000                	unimp
     f8a:	0000                	unimp
     f8c:	10c2                	slli	ra,ra,0x30
     f8e:	8000                	0x8000
     f90:	0000                	unimp
     f92:	0000                	unimp
     f94:	0001                	nop
     f96:	c25a                	sw	s6,4(sp)
     f98:	0010                	0x10
     f9a:	0080                	addi	s0,sp,64
     f9c:	0000                	unimp
     f9e:	c400                	sw	s0,8(s0)
     fa0:	0010                	0x10
     fa2:	0080                	addi	s0,sp,64
     fa4:	0000                	unimp
     fa6:	0400                	addi	s0,sp,512
     fa8:	f300                	sd	s0,32(a4)
     faa:	5a01                	li	s4,-32
     fac:	c49f 0010 0080      	0x800010c49f
     fb2:	0000                	unimp
     fb4:	ce00                	sw	s0,24(a2)
     fb6:	0010                	0x10
     fb8:	0080                	addi	s0,sp,64
     fba:	0000                	unimp
     fbc:	0100                	addi	s0,sp,128
     fbe:	5a00                	lw	s0,48(a2)
     fc0:	10ce                	slli	ra,ra,0x33
     fc2:	8000                	0x8000
     fc4:	0000                	unimp
     fc6:	0000                	unimp
     fc8:	10d0                	addi	a2,sp,100
     fca:	8000                	0x8000
     fcc:	0000                	unimp
     fce:	0000                	unimp
     fd0:	0004                	0x4
     fd2:	9f5a01f3          	0x9f5a01f3
	...
     fe6:	1076                	c.slli	zero,0x3d
     fe8:	8000                	0x8000
     fea:	0000                	unimp
     fec:	0000                	unimp
     fee:	1088                	addi	a0,sp,96
     ff0:	8000                	0x8000
     ff2:	0000                	unimp
     ff4:	0000                	unimp
     ff6:	0001                	nop
     ff8:	885a                	mv	a6,s6
     ffa:	0010                	0x10
     ffc:	0080                	addi	s0,sp,64
     ffe:	0000                	unimp
    1000:	8a00                	0x8a00
    1002:	0010                	0x10
    1004:	0080                	addi	s0,sp,64
    1006:	0000                	unimp
    1008:	0400                	addi	s0,sp,512
    100a:	f300                	sd	s0,32(a4)
    100c:	5a01                	li	s4,-32
    100e:	8a9f 0010 0080      	0x8000108a9f
    1014:	0000                	unimp
    1016:	9400                	0x9400
    1018:	0010                	0x10
    101a:	0080                	addi	s0,sp,64
    101c:	0000                	unimp
    101e:	0100                	addi	s0,sp,128
    1020:	5a00                	lw	s0,48(a2)
    1022:	1094                	addi	a3,sp,96
    1024:	8000                	0x8000
    1026:	0000                	unimp
    1028:	0000                	unimp
    102a:	1096                	slli	ra,ra,0x25
    102c:	8000                	0x8000
    102e:	0000                	unimp
    1030:	0000                	unimp
    1032:	0004                	0x4
    1034:	9f5a01f3          	0x9f5a01f3
    1038:	1096                	slli	ra,ra,0x25
    103a:	8000                	0x8000
    103c:	0000                	unimp
    103e:	0000                	unimp
    1040:	10a2                	slli	ra,ra,0x28
    1042:	8000                	0x8000
    1044:	0000                	unimp
    1046:	0000                	unimp
    1048:	0001                	nop
    104a:	a25a                	fsd	fs6,256(sp)
    104c:	0010                	0x10
    104e:	0080                	addi	s0,sp,64
    1050:	0000                	unimp
    1052:	a400                	fsd	fs0,8(s0)
    1054:	0010                	0x10
    1056:	0080                	addi	s0,sp,64
    1058:	0000                	unimp
    105a:	0400                	addi	s0,sp,512
    105c:	f300                	sd	s0,32(a4)
    105e:	5a01                	li	s4,-32
    1060:	009f 0000 0000      	0x9f
	...
    106e:	0000                	unimp
    1070:	6000                	ld	s0,0(s0)
    1072:	0012                	c.slli	zero,0x4
    1074:	0080                	addi	s0,sp,64
    1076:	0000                	unimp
    1078:	7c00                	ld	s0,56(s0)
    107a:	0012                	c.slli	zero,0x4
    107c:	0080                	addi	s0,sp,64
    107e:	0000                	unimp
    1080:	0100                	addi	s0,sp,128
    1082:	5a00                	lw	s0,48(a2)
    1084:	127c                	addi	a5,sp,300
    1086:	8000                	0x8000
    1088:	0000                	unimp
    108a:	0000                	unimp
    108c:	129a                	slli	t0,t0,0x26
    108e:	8000                	0x8000
    1090:	0000                	unimp
    1092:	0000                	unimp
    1094:	0001                	nop
    1096:	005a                	c.slli	zero,0x16
	...
    10a4:	0000                	unimp
    10a6:	6400                	ld	s0,8(s0)
    10a8:	0012                	c.slli	zero,0x4
    10aa:	0080                	addi	s0,sp,64
    10ac:	0000                	unimp
    10ae:	6800                	ld	s0,16(s0)
    10b0:	0012                	c.slli	zero,0x4
    10b2:	0080                	addi	s0,sp,64
    10b4:	0000                	unimp
    10b6:	0200                	addi	s0,sp,256
    10b8:	3000                	fld	fs0,32(s0)
    10ba:	689f 0012 0080      	0x800012689f
    10c0:	0000                	unimp
    10c2:	9d00                	0x9d00
    10c4:	0012                	c.slli	zero,0x4
    10c6:	0080                	addi	s0,sp,64
    10c8:	0000                	unimp
    10ca:	0100                	addi	s0,sp,128
    10cc:	5e00                	lw	s0,56(a2)
	...
    10de:	152a                	slli	a0,a0,0x2a
    10e0:	8000                	0x8000
    10e2:	0000                	unimp
    10e4:	0000                	unimp
    10e6:	1536                	slli	a0,a0,0x2d
    10e8:	8000                	0x8000
    10ea:	0000                	unimp
    10ec:	0000                	unimp
    10ee:	0001                	nop
    10f0:	365a                	fld	fa2,432(sp)
    10f2:	0015                	c.nop	5
    10f4:	0080                	addi	s0,sp,64
    10f6:	0000                	unimp
    10f8:	7a00                	ld	s0,48(a2)
    10fa:	0015                	c.nop	5
    10fc:	0080                	addi	s0,sp,64
    10fe:	0000                	unimp
    1100:	0400                	addi	s0,sp,512
    1102:	f300                	sd	s0,32(a4)
    1104:	5a01                	li	s4,-32
    1106:	009f 0000 0000      	0x9f
	...
    1114:	0000                	unimp
    1116:	2a00                	fld	fs0,16(a2)
    1118:	0015                	c.nop	5
    111a:	0080                	addi	s0,sp,64
    111c:	0000                	unimp
    111e:	3400                	fld	fs0,40(s0)
    1120:	0015                	c.nop	5
    1122:	0080                	addi	s0,sp,64
    1124:	0000                	unimp
    1126:	0100                	addi	s0,sp,128
    1128:	5b00                	lw	s0,48(a4)
    112a:	1534                	addi	a3,sp,680
    112c:	8000                	0x8000
    112e:	0000                	unimp
    1130:	0000                	unimp
    1132:	157a                	slli	a0,a0,0x3e
    1134:	8000                	0x8000
    1136:	0000                	unimp
    1138:	0000                	unimp
    113a:	0004                	0x4
    113c:	9f5b01f3          	0x9f5b01f3
	...
    1150:	153c                	addi	a5,sp,680
    1152:	8000                	0x8000
    1154:	0000                	unimp
    1156:	0000                	unimp
    1158:	1540                	addi	s0,sp,676
    115a:	8000                	0x8000
    115c:	0000                	unimp
    115e:	0000                	unimp
    1160:	0002                	c.slli64	zero
    1162:	9f30                	0x9f30
    1164:	1540                	addi	s0,sp,676
    1166:	8000                	0x8000
    1168:	0000                	unimp
    116a:	0000                	unimp
    116c:	157a                	slli	a0,a0,0x3e
    116e:	8000                	0x8000
    1170:	0000                	unimp
    1172:	0000                	unimp
    1174:	0001                	nop
    1176:	0058                	addi	a4,sp,4
	...
    1184:	0000                	unimp
    1186:	6000                	ld	s0,0(s0)
    1188:	0010                	0x10
    118a:	0080                	addi	s0,sp,64
    118c:	0000                	unimp
    118e:	7200                	ld	s0,32(a2)
    1190:	0010                	0x10
    1192:	0080                	addi	s0,sp,64
    1194:	0000                	unimp
    1196:	0100                	addi	s0,sp,128
    1198:	5a00                	lw	s0,48(a2)
    119a:	1072                	c.slli	zero,0x3c
    119c:	8000                	0x8000
    119e:	0000                	unimp
    11a0:	0000                	unimp
    11a2:	1076                	c.slli	zero,0x3d
    11a4:	8000                	0x8000
    11a6:	0000                	unimp
    11a8:	0000                	unimp
    11aa:	0004                	0x4
    11ac:	9f5a01f3          	0x9f5a01f3
	...
    11c0:	1248                	addi	a0,sp,292
    11c2:	8000                	0x8000
    11c4:	0000                	unimp
    11c6:	0000                	unimp
    11c8:	1254                	addi	a3,sp,292
    11ca:	8000                	0x8000
    11cc:	0000                	unimp
    11ce:	0000                	unimp
    11d0:	0001                	nop
    11d2:	545a                	lw	s0,180(sp)
    11d4:	0012                	c.slli	zero,0x4
    11d6:	0080                	addi	s0,sp,64
    11d8:	0000                	unimp
    11da:	6000                	ld	s0,0(s0)
    11dc:	0012                	c.slli	zero,0x4
    11de:	0080                	addi	s0,sp,64
    11e0:	0000                	unimp
    11e2:	0400                	addi	s0,sp,512
    11e4:	f300                	sd	s0,32(a4)
    11e6:	5a01                	li	s4,-32
    11e8:	009f 0000 0000      	0x9f
	...
    11f6:	0000                	unimp
    11f8:	4800                	lw	s0,16(s0)
    11fa:	0012                	c.slli	zero,0x4
    11fc:	0080                	addi	s0,sp,64
    11fe:	0000                	unimp
    1200:	5700                	lw	s0,40(a4)
    1202:	0012                	c.slli	zero,0x4
    1204:	0080                	addi	s0,sp,64
    1206:	0000                	unimp
    1208:	0100                	addi	s0,sp,128
    120a:	5b00                	lw	s0,48(a4)
    120c:	80001257          	0x80001257
    1210:	0000                	unimp
    1212:	0000                	unimp
    1214:	1260                	addi	s0,sp,300
    1216:	8000                	0x8000
    1218:	0000                	unimp
    121a:	0000                	unimp
    121c:	0004                	0x4
    121e:	9f5b01f3          	0x9f5b01f3
	...
    1232:	1226                	slli	tp,tp,0x29
    1234:	8000                	0x8000
    1236:	0000                	unimp
    1238:	0000                	unimp
    123a:	1231                	addi	tp,tp,-20
    123c:	8000                	0x8000
    123e:	0000                	unimp
    1240:	0000                	unimp
    1242:	0001                	nop
    1244:	315a                	fld	ft2,432(sp)
    1246:	0012                	c.slli	zero,0x4
    1248:	0080                	addi	s0,sp,64
    124a:	0000                	unimp
    124c:	4400                	lw	s0,8(s0)
    124e:	0012                	c.slli	zero,0x4
    1250:	0080                	addi	s0,sp,64
    1252:	0000                	unimp
    1254:	0100                	addi	s0,sp,128
    1256:	5800                	lw	s0,48(s0)
    1258:	1244                	addi	s1,sp,292
    125a:	8000                	0x8000
    125c:	0000                	unimp
    125e:	0000                	unimp
    1260:	1248                	addi	a0,sp,292
    1262:	8000                	0x8000
    1264:	0000                	unimp
    1266:	0000                	unimp
    1268:	0004                	0x4
    126a:	9f5a01f3          	0x9f5a01f3
	...
    127e:	1512                	slli	a0,a0,0x24
    1280:	8000                	0x8000
    1282:	0000                	unimp
    1284:	0000                	unimp
    1286:	1522                	slli	a0,a0,0x28
    1288:	8000                	0x8000
    128a:	0000                	unimp
    128c:	0000                	unimp
    128e:	0001                	nop
    1290:	225a                	fld	ft4,400(sp)
    1292:	0015                	c.nop	5
    1294:	0080                	addi	s0,sp,64
    1296:	0000                	unimp
    1298:	2500                	fld	fs0,8(a0)
    129a:	0015                	c.nop	5
    129c:	0080                	addi	s0,sp,64
    129e:	0000                	unimp
    12a0:	0100                	addi	s0,sp,128
    12a2:	5b00                	lw	s0,48(a4)
    12a4:	1525                	addi	a0,a0,-23
    12a6:	8000                	0x8000
    12a8:	0000                	unimp
    12aa:	0000                	unimp
    12ac:	152a                	slli	a0,a0,0x2a
    12ae:	8000                	0x8000
    12b0:	0000                	unimp
    12b2:	0000                	unimp
    12b4:	0004                	0x4
    12b6:	9f5a01f3          	0x9f5a01f3
	...
    12ca:	1512                	slli	a0,a0,0x24
    12cc:	8000                	0x8000
    12ce:	0000                	unimp
    12d0:	0000                	unimp
    12d2:	151a                	slli	a0,a0,0x26
    12d4:	8000                	0x8000
    12d6:	0000                	unimp
    12d8:	0000                	unimp
    12da:	0001                	nop
    12dc:	00151a5b          	0x151a5b
    12e0:	0080                	addi	s0,sp,64
    12e2:	0000                	unimp
    12e4:	2500                	fld	fs0,8(a0)
    12e6:	0015                	c.nop	5
    12e8:	0080                	addi	s0,sp,64
    12ea:	0000                	unimp
    12ec:	0100                	addi	s0,sp,128
    12ee:	5c00                	lw	s0,56(s0)
    12f0:	1525                	addi	a0,a0,-23
    12f2:	8000                	0x8000
    12f4:	0000                	unimp
    12f6:	0000                	unimp
    12f8:	152a                	slli	a0,a0,0x2a
    12fa:	8000                	0x8000
    12fc:	0000                	unimp
    12fe:	0000                	unimp
    1300:	0004                	0x4
    1302:	9f5b01f3          	0x9f5b01f3
	...
    1316:	1512                	slli	a0,a0,0x24
    1318:	8000                	0x8000
    131a:	0000                	unimp
    131c:	0000                	unimp
    131e:	1518                	addi	a4,sp,672
    1320:	8000                	0x8000
    1322:	0000                	unimp
    1324:	0000                	unimp
    1326:	0001                	nop
    1328:	185c                	addi	a5,sp,52
    132a:	0015                	c.nop	5
    132c:	0080                	addi	s0,sp,64
    132e:	0000                	unimp
    1330:	2a00                	fld	fs0,16(a2)
    1332:	0015                	c.nop	5
    1334:	0080                	addi	s0,sp,64
    1336:	0000                	unimp
    1338:	0400                	addi	s0,sp,512
    133a:	f300                	sd	s0,32(a4)
    133c:	5c01                	li	s8,-32
    133e:	009f 0000 0000      	0x9f
	...
    134c:	0000                	unimp
    134e:	4000                	lw	s0,0(s0)
    1350:	0011                	c.nop	4
    1352:	0080                	addi	s0,sp,64
    1354:	0000                	unimp
    1356:	5c00                	lw	s0,56(s0)
    1358:	0011                	c.nop	4
    135a:	0080                	addi	s0,sp,64
    135c:	0000                	unimp
    135e:	0200                	addi	s0,sp,256
    1360:	3000                	fld	fs0,32(s0)
    1362:	5c9f 0011 0080      	0x8000115c9f
    1368:	0000                	unimp
    136a:	8000                	0x8000
    136c:	0011                	c.nop	4
    136e:	0080                	addi	s0,sp,64
    1370:	0000                	unimp
    1372:	0200                	addi	s0,sp,256
    1374:	3100                	fld	fs0,32(a0)
    1376:	809f 0011 0080      	0x800011809f
    137c:	0000                	unimp
    137e:	8a00                	0x8a00
    1380:	0011                	c.nop	4
    1382:	0080                	addi	s0,sp,64
    1384:	0000                	unimp
    1386:	0200                	addi	s0,sp,256
    1388:	3200                	fld	fs0,32(a2)
    138a:	009f 0000 0000      	0x9f
	...
    1398:	0000                	unimp
    139a:	4400                	lw	s0,8(s0)
    139c:	0011                	c.nop	4
    139e:	0080                	addi	s0,sp,64
    13a0:	0000                	unimp
    13a2:	6800                	ld	s0,16(s0)
    13a4:	0011                	c.nop	4
    13a6:	0080                	addi	s0,sp,64
    13a8:	0000                	unimp
    13aa:	0100                	addi	s0,sp,128
    13ac:	5f00                	lw	s0,56(a4)
    13ae:	1168                	addi	a0,sp,172
    13b0:	8000                	0x8000
    13b2:	0000                	unimp
    13b4:	0000                	unimp
    13b6:	118a                	slli	gp,gp,0x22
    13b8:	8000                	0x8000
    13ba:	0000                	unimp
    13bc:	0000                	unimp
    13be:	0009                	c.nop	2
    13c0:	00182003          	lw	zero,1(a6) # ffffffffffff9001 <__global_pointer$+0xffffffff7fff6fe5>
    13c4:	0080                	addi	s0,sp,64
	...
    13d6:	0000                	unimp
    13d8:	4400                	lw	s0,8(s0)
    13da:	0011                	c.nop	4
    13dc:	0080                	addi	s0,sp,64
    13de:	0000                	unimp
    13e0:	5200                	lw	s0,32(a2)
    13e2:	0011                	c.nop	4
    13e4:	0080                	addi	s0,sp,64
    13e6:	0000                	unimp
    13e8:	0100                	addi	s0,sp,128
    13ea:	5f00                	lw	s0,56(a4)
	...
    13fc:	1168                	addi	a0,sp,172
    13fe:	8000                	0x8000
    1400:	0000                	unimp
    1402:	0000                	unimp
    1404:	1176                	slli	sp,sp,0x3d
    1406:	8000                	0x8000
    1408:	0000                	unimp
    140a:	0000                	unimp
    140c:	0001                	nop
    140e:	005f 0000 0000      	0x5f
	...
    141c:	0000                	unimp
    141e:	de00                	sw	s0,56(a2)
    1420:	0010                	0x10
    1422:	0080                	addi	s0,sp,64
    1424:	0000                	unimp
    1426:	1400                	addi	s0,sp,544
    1428:	0011                	c.nop	4
    142a:	0080                	addi	s0,sp,64
    142c:	0000                	unimp
    142e:	0100                	addi	s0,sp,128
    1430:	5a00                	lw	s0,48(a2)
    1432:	1114                	addi	a3,sp,160
    1434:	8000                	0x8000
    1436:	0000                	unimp
    1438:	0000                	unimp
    143a:	1118                	addi	a4,sp,160
    143c:	8000                	0x8000
    143e:	0000                	unimp
    1440:	0000                	unimp
    1442:	0004                	0x4
    1444:	9f5a01f3          	0x9f5a01f3
	...

Disassembly of section .debug_ranges:

0000000000000000 <.debug_ranges>:
   0:	1440                	addi	s0,sp,548
   2:	8000                	0x8000
   4:	0000                	unimp
   6:	0000                	unimp
   8:	1466                	slli	s0,s0,0x39
   a:	8000                	0x8000
   c:	0000                	unimp
   e:	0000                	unimp
  10:	1480                	addi	s0,sp,608
  12:	8000                	0x8000
  14:	0000                	unimp
  16:	0000                	unimp
  18:	14be                	slli	s1,s1,0x2f
  1a:	8000                	0x8000
	...
  30:	1060                	addi	s0,sp,44
  32:	8000                	0x8000
  34:	0000                	unimp
  36:	0000                	unimp
  38:	1634                	addi	a3,sp,808
  3a:	8000                	0x8000
	...
