
output/rom.riscv:     file format elf64-littleriscv


Disassembly of section .tohost:

0000000080000000 <tohost>:
	...

0000000080000040 <fromhost>:
	...

Disassembly of section .text.init:

0000000001000000 <_start>:
 1000000:	62f9                	lui	t0,0x1e
 1000002:	3002a073          	csrs	mstatus,t0
 1000006:	4285                	li	t0,1
 1000008:	02fe                	slli	t0,t0,0x1f
 100000a:	0002d563          	bgez	t0,1000014 <_start+0x14>
 100000e:	4505                	li	a0,1
 1000010:	7610206f          	j	1002f70 <exit>
 1000014:	00000297          	auipc	t0,0x0
 1000018:	01028293          	addi	t0,t0,16 # 1000024 <_start+0x24>
 100001c:	30529073          	csrw	mtvec,t0
 1000020:	00301073          	fscsr	zero
 1000024:	00000297          	auipc	t0,0x0
 1000028:	03428293          	addi	t0,t0,52 # 1000058 <trap_entry>
 100002c:	30529073          	csrw	mtvec,t0
 1000030:	00004197          	auipc	gp,0x4
 1000034:	cc818193          	addi	gp,gp,-824 # 1003cf8 <__global_pointer$>
 1000038:	faf18213          	addi	tp,gp,-81 # 1003ca7 <_end+0x3f>
 100003c:	fc027213          	andi	tp,tp,-64
 1000040:	f1402573          	csrr	a0,mhartid
 1000044:	4585                	li	a1,1
 1000046:	00b57063          	bgeu	a0,a1,1000046 <_start+0x46>
 100004a:	00010137          	lui	sp,0x10
 100004e:	2105                	addiw	sp,sp,1
 1000050:	013e                	slli	sp,sp,0xf
 1000052:	30a0306f          	j	100335c <_init>
 1000056:	0001                	nop

0000000001000058 <trap_entry>:
 1000058:	716d                	addi	sp,sp,-272
 100005a:	e406                	sd	ra,8(sp)
 100005c:	e80a                	sd	sp,16(sp)
 100005e:	ec0e                	sd	gp,24(sp)
 1000060:	f012                	sd	tp,32(sp)
 1000062:	f416                	sd	t0,40(sp)
 1000064:	f81a                	sd	t1,48(sp)
 1000066:	fc1e                	sd	t2,56(sp)
 1000068:	e0a2                	sd	s0,64(sp)
 100006a:	e4a6                	sd	s1,72(sp)
 100006c:	e8aa                	sd	a0,80(sp)
 100006e:	ecae                	sd	a1,88(sp)
 1000070:	f0b2                	sd	a2,96(sp)
 1000072:	f4b6                	sd	a3,104(sp)
 1000074:	f8ba                	sd	a4,112(sp)
 1000076:	fcbe                	sd	a5,120(sp)
 1000078:	e142                	sd	a6,128(sp)
 100007a:	e546                	sd	a7,136(sp)
 100007c:	e94a                	sd	s2,144(sp)
 100007e:	ed4e                	sd	s3,152(sp)
 1000080:	f152                	sd	s4,160(sp)
 1000082:	f556                	sd	s5,168(sp)
 1000084:	f95a                	sd	s6,176(sp)
 1000086:	fd5e                	sd	s7,184(sp)
 1000088:	e1e2                	sd	s8,192(sp)
 100008a:	e5e6                	sd	s9,200(sp)
 100008c:	e9ea                	sd	s10,208(sp)
 100008e:	edee                	sd	s11,216(sp)
 1000090:	f1f2                	sd	t3,224(sp)
 1000092:	f5f6                	sd	t4,232(sp)
 1000094:	f9fa                	sd	t5,240(sp)
 1000096:	fdfe                	sd	t6,248(sp)
 1000098:	34202573          	csrr	a0,mcause
 100009c:	341025f3          	csrr	a1,mepc
 10000a0:	860a                	mv	a2,sp
 10000a2:	2a2030ef          	jal	ra,1003344 <handle_trap>
 10000a6:	34151073          	csrw	mepc,a0
 10000aa:	6289                	lui	t0,0x2
 10000ac:	8002829b          	addiw	t0,t0,-2048
 10000b0:	3002a073          	csrs	mstatus,t0
 10000b4:	60a2                	ld	ra,8(sp)
 10000b6:	6142                	ld	sp,16(sp)
 10000b8:	61e2                	ld	gp,24(sp)
 10000ba:	7202                	ld	tp,32(sp)
 10000bc:	72a2                	ld	t0,40(sp)
 10000be:	7342                	ld	t1,48(sp)
 10000c0:	73e2                	ld	t2,56(sp)
 10000c2:	6406                	ld	s0,64(sp)
 10000c4:	64a6                	ld	s1,72(sp)
 10000c6:	6546                	ld	a0,80(sp)
 10000c8:	65e6                	ld	a1,88(sp)
 10000ca:	7606                	ld	a2,96(sp)
 10000cc:	76a6                	ld	a3,104(sp)
 10000ce:	7746                	ld	a4,112(sp)
 10000d0:	77e6                	ld	a5,120(sp)
 10000d2:	680a                	ld	a6,128(sp)
 10000d4:	68aa                	ld	a7,136(sp)
 10000d6:	694a                	ld	s2,144(sp)
 10000d8:	69ea                	ld	s3,152(sp)
 10000da:	7a0a                	ld	s4,160(sp)
 10000dc:	7aaa                	ld	s5,168(sp)
 10000de:	7b4a                	ld	s6,176(sp)
 10000e0:	7bea                	ld	s7,184(sp)
 10000e2:	6c0e                	ld	s8,192(sp)
 10000e4:	6cae                	ld	s9,200(sp)
 10000e6:	6d4e                	ld	s10,208(sp)
 10000e8:	6dee                	ld	s11,216(sp)
 10000ea:	7e0e                	ld	t3,224(sp)
 10000ec:	7eae                	ld	t4,232(sp)
 10000ee:	7f4e                	ld	t5,240(sp)
 10000f0:	7fee                	ld	t6,248(sp)
 10000f2:	6151                	addi	sp,sp,272
 10000f4:	30200073          	mret

Disassembly of section .text:

00000000010000f8 <digest_message>:
 10000f8:	7175                	addi	sp,sp,-144
 10000fa:	e506                	sd	ra,136(sp)
 10000fc:	e122                	sd	s0,128(sp)
 10000fe:	fca6                	sd	s1,120(sp)
 1000100:	f8ca                	sd	s2,112(sp)
 1000102:	84aa                	mv	s1,a0
 1000104:	892e                	mv	s2,a1
 1000106:	8432                	mv	s0,a2
 1000108:	850a                	mv	a0,sp
 100010a:	4bd000ef          	jal	ra,1000dc6 <sha256_init>
 100010e:	864a                	mv	a2,s2
 1000110:	85a6                	mv	a1,s1
 1000112:	850a                	mv	a0,sp
 1000114:	50d000ef          	jal	ra,1000e20 <sha256_update>
 1000118:	85a2                	mv	a1,s0
 100011a:	850a                	mv	a0,sp
 100011c:	573000ef          	jal	ra,1000e8e <sha256_final>
 1000120:	60aa                	ld	ra,136(sp)
 1000122:	640a                	ld	s0,128(sp)
 1000124:	74e6                	ld	s1,120(sp)
 1000126:	7946                	ld	s2,112(sp)
 1000128:	6149                	addi	sp,sp,144
 100012a:	8082                	ret

000000000100012c <init_fuse>:
 100012c:	fa900793          	li	a5,-87
 1000130:	00f50023          	sb	a5,0(a0)
 1000134:	fcf00713          	li	a4,-49
 1000138:	00e500a3          	sb	a4,1(a0)
 100013c:	5715                	li	a4,-27
 100013e:	00e50123          	sb	a4,2(a0)
 1000142:	f9d00713          	li	a4,-99
 1000146:	00e501a3          	sb	a4,3(a0)
 100014a:	05e00713          	li	a4,94
 100014e:	00e50223          	sb	a4,4(a0)
 1000152:	fde00713          	li	a4,-34
 1000156:	00e502a3          	sb	a4,5(a0)
 100015a:	fb000693          	li	a3,-80
 100015e:	00d50323          	sb	a3,6(a0)
 1000162:	04200693          	li	a3,66
 1000166:	00d503a3          	sb	a3,7(a0)
 100016a:	fcb00693          	li	a3,-53
 100016e:	00d50423          	sb	a3,8(a0)
 1000172:	f9100693          	li	a3,-111
 1000176:	00d504a3          	sb	a3,9(a0)
 100017a:	07300693          	li	a3,115
 100017e:	00d50523          	sb	a3,10(a0)
 1000182:	02800693          	li	a3,40
 1000186:	00d505a3          	sb	a3,11(a0)
 100018a:	fca00693          	li	a3,-54
 100018e:	00d50623          	sb	a3,12(a0)
 1000192:	07000693          	li	a3,112
 1000196:	00d506a3          	sb	a3,13(a0)
 100019a:	fa700693          	li	a3,-89
 100019e:	00d50723          	sb	a3,14(a0)
 10001a2:	02400693          	li	a3,36
 10001a6:	00d507a3          	sb	a3,15(a0)
 10001aa:	fc600693          	li	a3,-58
 10001ae:	00d50823          	sb	a3,16(a0)
 10001b2:	02300693          	li	a3,35
 10001b6:	00d508a3          	sb	a3,17(a0)
 10001ba:	f9500693          	li	a3,-107
 10001be:	00d50923          	sb	a3,18(a0)
 10001c2:	f8f00693          	li	a3,-113
 10001c6:	00d509a3          	sb	a3,19(a0)
 10001ca:	00e50a23          	sb	a4,20(a0)
 10001ce:	fc200713          	li	a4,-62
 10001d2:	00e50aa3          	sb	a4,21(a0)
 10001d6:	5755                	li	a4,-11
 10001d8:	00e50b23          	sb	a4,22(a0)
 10001dc:	faf00713          	li	a4,-81
 10001e0:	00e50ba3          	sb	a4,23(a0)
 10001e4:	04000713          	li	a4,64
 10001e8:	00e50c23          	sb	a4,24(a0)
 10001ec:	07100713          	li	a4,113
 10001f0:	00e50ca3          	sb	a4,25(a0)
 10001f4:	fcd00713          	li	a4,-51
 10001f8:	00e50d23          	sb	a4,26(a0)
 10001fc:	fd100713          	li	a4,-47
 1000200:	00e50da3          	sb	a4,27(a0)
 1000204:	00f50e23          	sb	a5,28(a0)
 1000208:	04f00793          	li	a5,79
 100020c:	00f50ea3          	sb	a5,29(a0)
 1000210:	fc500793          	li	a5,-59
 1000214:	00f50f23          	sb	a5,30(a0)
 1000218:	03300793          	li	a5,51
 100021c:	00f50fa3          	sb	a5,31(a0)
 1000220:	8082                	ret

0000000001000222 <verify_srk>:
 1000222:	7111                	addi	sp,sp,-256
 1000224:	fd86                	sd	ra,248(sp)
 1000226:	f9a2                	sd	s0,240(sp)
 1000228:	f5a6                	sd	s1,232(sp)
 100022a:	f1ca                	sd	s2,224(sp)
 100022c:	edce                	sd	s3,216(sp)
 100022e:	e9d2                	sd	s4,208(sp)
 1000230:	e5d6                	sd	s5,200(sp)
 1000232:	e1da                	sd	s6,192(sp)
 1000234:	892a                	mv	s2,a0
 1000236:	00450493          	addi	s1,a0,4
 100023a:	1108                	addi	a0,sp,160
 100023c:	ef1ff0ef          	jal	ra,100012c <init_fuse>
 1000240:	00394b03          	lbu	s6,3(s2)
 1000244:	00194a03          	lbu	s4,1(s2)
 1000248:	008a1a1b          	slliw	s4,s4,0x8
 100024c:	00294783          	lbu	a5,2(s2)
 1000250:	00fa6a33          	or	s4,s4,a5
 1000254:	2a01                	sext.w	s4,s4
 1000256:	85da                	mv	a1,s6
 1000258:	00003517          	auipc	a0,0x3
 100025c:	2b050513          	addi	a0,a0,688 # 1003508 <strncmp+0x96>
 1000260:	0b6030ef          	jal	ra,1003316 <printf>
 1000264:	9a4a                	add	s4,s4,s2
 1000266:	00094703          	lbu	a4,0(s2)
 100026a:	4785                	li	a5,1
 100026c:	08f70a63          	beq	a4,a5,1000300 <verify_srk+0xde>
 1000270:	4501                	li	a0,0
 1000272:	70ee                	ld	ra,248(sp)
 1000274:	744e                	ld	s0,240(sp)
 1000276:	74ae                	ld	s1,232(sp)
 1000278:	790e                	ld	s2,224(sp)
 100027a:	69ee                	ld	s3,216(sp)
 100027c:	6a4e                	ld	s4,208(sp)
 100027e:	6aae                	ld	s5,200(sp)
 1000280:	6b0e                	ld	s6,192(sp)
 1000282:	6111                	addi	sp,sp,256
 1000284:	8082                	ret
 1000286:	0014c403          	lbu	s0,1(s1)
 100028a:	0084141b          	slliw	s0,s0,0x8
 100028e:	0024c783          	lbu	a5,2(s1)
 1000292:	8c5d                	or	s0,s0,a5
 1000294:	2401                	sext.w	s0,s0
 1000296:	8822                	mv	a6,s0
 1000298:	87a6                	mv	a5,s1
 100029a:	874a                	mv	a4,s2
 100029c:	86ce                	mv	a3,s3
 100029e:	0004c603          	lbu	a2,0(s1)
 10002a2:	00094583          	lbu	a1,0(s2)
 10002a6:	00003517          	auipc	a0,0x3
 10002aa:	27a50513          	addi	a0,a0,634 # 1003520 <strncmp+0xae>
 10002ae:	068030ef          	jal	ra,1003316 <printf>
 10002b2:	0110                	addi	a2,sp,128
 10002b4:	85a2                	mv	a1,s0
 10002b6:	8526                	mv	a0,s1
 10002b8:	e41ff0ef          	jal	ra,10000f8 <digest_message>
 10002bc:	020a9513          	slli	a0,s5,0x20
 10002c0:	9101                	srli	a0,a0,0x20
 10002c2:	019c                	addi	a5,sp,192
 10002c4:	953e                	add	a0,a0,a5
 10002c6:	02000613          	li	a2,32
 10002ca:	010c                	addi	a1,sp,128
 10002cc:	f4050513          	addi	a0,a0,-192
 10002d0:	4fd020ef          	jal	ra,1002fcc <memcpy>
 10002d4:	020a8a9b          	addiw	s5,s5,32
 10002d8:	94a2                	add	s1,s1,s0
 10002da:	2985                	addiw	s3,s3,1
 10002dc:	0169d463          	bge	s3,s6,10002e4 <verify_srk+0xc2>
 10002e0:	fa9a73e3          	bgeu	s4,s1,1000286 <verify_srk+0x64>
 10002e4:	0110                	addi	a2,sp,128
 10002e6:	85d6                	mv	a1,s5
 10002e8:	850a                	mv	a0,sp
 10002ea:	e0fff0ef          	jal	ra,10000f8 <digest_message>
 10002ee:	02000613          	li	a2,32
 10002f2:	110c                	addi	a1,sp,160
 10002f4:	0108                	addi	a0,sp,128
 10002f6:	17c030ef          	jal	ra,1003472 <strncmp>
 10002fa:	c511                	beqz	a0,1000306 <verify_srk+0xe4>
 10002fc:	4501                	li	a0,0
 10002fe:	bf95                	j	1000272 <verify_srk+0x50>
 1000300:	4981                	li	s3,0
 1000302:	4a81                	li	s5,0
 1000304:	bfe1                	j	10002dc <verify_srk+0xba>
 1000306:	00003517          	auipc	a0,0x3
 100030a:	23250513          	addi	a0,a0,562 # 1003538 <strncmp+0xc6>
 100030e:	008030ef          	jal	ra,1003316 <printf>
 1000312:	4505                	li	a0,1
 1000314:	bfb9                	j	1000272 <verify_srk+0x50>

0000000001000316 <load_key>:
 1000316:	bd010113          	addi	sp,sp,-1072 # fbd0 <_tbss_end+0xfbd0>
 100031a:	42113423          	sd	ra,1064(sp)
 100031e:	42813023          	sd	s0,1056(sp)
 1000322:	40913c23          	sd	s1,1048(sp)
 1000326:	41213823          	sd	s2,1040(sp)
 100032a:	41313423          	sd	s3,1032(sp)
 100032e:	41413023          	sd	s4,1024(sp)
 1000332:	3f513c23          	sd	s5,1016(sp)
 1000336:	3f613823          	sd	s6,1008(sp)
 100033a:	8a2a                	mv	s4,a0
 100033c:	89ae                	mv	s3,a1
 100033e:	8932                	mv	s2,a2
 1000340:	8436                	mv	s0,a3
 1000342:	0016c483          	lbu	s1,1(a3)
 1000346:	0084949b          	slliw	s1,s1,0x8
 100034a:	0026c783          	lbu	a5,2(a3)
 100034e:	8cdd                	or	s1,s1,a5
 1000350:	2481                	sext.w	s1,s1
 1000352:	0006c583          	lbu	a1,0(a3)
 1000356:	00003517          	auipc	a0,0x3
 100035a:	1fa50513          	addi	a0,a0,506 # 1003550 <strncmp+0xde>
 100035e:	7b9020ef          	jal	ra,1003316 <printf>
 1000362:	85a6                	mv	a1,s1
 1000364:	00003517          	auipc	a0,0x3
 1000368:	20450513          	addi	a0,a0,516 # 1003568 <strncmp+0xf6>
 100036c:	7ab020ef          	jal	ra,1003316 <printf>
 1000370:	00044703          	lbu	a4,0(s0)
 1000374:	4791                	li	a5,4
 1000376:	02f70663          	beq	a4,a5,10003a2 <load_key+0x8c>
 100037a:	4501                	li	a0,0
 100037c:	42813083          	ld	ra,1064(sp)
 1000380:	42013403          	ld	s0,1056(sp)
 1000384:	41813483          	ld	s1,1048(sp)
 1000388:	41013903          	ld	s2,1040(sp)
 100038c:	40813983          	ld	s3,1032(sp)
 1000390:	40013a03          	ld	s4,1024(sp)
 1000394:	3f813a83          	ld	s5,1016(sp)
 1000398:	3f013b03          	ld	s6,1008(sp)
 100039c:	43010113          	addi	sp,sp,1072
 10003a0:	8082                	ret
 10003a2:	00744583          	lbu	a1,7(s0)
 10003a6:	0085959b          	slliw	a1,a1,0x8
 10003aa:	00844a83          	lbu	s5,8(s0)
 10003ae:	0155e5b3          	or	a1,a1,s5
 10003b2:	00058a9b          	sext.w	s5,a1
 10003b6:	00944483          	lbu	s1,9(s0)
 10003ba:	0084949b          	slliw	s1,s1,0x8
 10003be:	00a44583          	lbu	a1,10(s0)
 10003c2:	8ccd                	or	s1,s1,a1
 10003c4:	2481                	sext.w	s1,s1
 10003c6:	00b44b03          	lbu	s6,11(s0)
 10003ca:	008b1b1b          	slliw	s6,s6,0x8
 10003ce:	00c44783          	lbu	a5,12(s0)
 10003d2:	00fb6b33          	or	s6,s6,a5
 10003d6:	2b01                	sext.w	s6,s6
 10003d8:	85d6                	mv	a1,s5
 10003da:	00003517          	auipc	a0,0x3
 10003de:	18e50513          	addi	a0,a0,398 # 1003568 <strncmp+0xf6>
 10003e2:	735020ef          	jal	ra,1003316 <printf>
 10003e6:	85a6                	mv	a1,s1
 10003e8:	00003517          	auipc	a0,0x3
 10003ec:	18050513          	addi	a0,a0,384 # 1003568 <strncmp+0xf6>
 10003f0:	727020ef          	jal	ra,1003316 <printf>
 10003f4:	85da                	mv	a1,s6
 10003f6:	00003517          	auipc	a0,0x3
 10003fa:	1d250513          	addi	a0,a0,466 # 10035c8 <strncmp+0x156>
 10003fe:	719020ef          	jal	ra,1003316 <printf>
 1000402:	0435                	addi	s0,s0,13
 1000404:	8552                	mv	a0,s4
 1000406:	74a010ef          	jal	ra,1001b50 <BN_init>
 100040a:	854e                	mv	a0,s3
 100040c:	744010ef          	jal	ra,1001b50 <BN_init>
 1000410:	854a                	mv	a0,s2
 1000412:	73e010ef          	jal	ra,1001b50 <BN_init>
 1000416:	86d6                	mv	a3,s5
 1000418:	4601                	li	a2,0
 100041a:	85a2                	mv	a1,s0
 100041c:	854e                	mv	a0,s3
 100041e:	081010ef          	jal	ra,1001c9e <BN_bin2bn>
 1000422:	86a6                	mv	a3,s1
 1000424:	4601                	li	a2,0
 1000426:	015405b3          	add	a1,s0,s5
 100042a:	8552                	mv	a0,s4
 100042c:	073010ef          	jal	ra,1001c9e <BN_bin2bn>
 1000430:	015485b3          	add	a1,s1,s5
 1000434:	86da                	mv	a3,s6
 1000436:	4601                	li	a2,0
 1000438:	95a2                	add	a1,a1,s0
 100043a:	854a                	mv	a0,s2
 100043c:	063010ef          	jal	ra,1001c9e <BN_bin2bn>
 1000440:	002c                	addi	a1,sp,8
 1000442:	8552                	mv	a0,s4
 1000444:	1f9010ef          	jal	ra,1001e3c <BN_bn2hex>
 1000448:	002c                	addi	a1,sp,8
 100044a:	00003517          	auipc	a0,0x3
 100044e:	12650513          	addi	a0,a0,294 # 1003570 <strncmp+0xfe>
 1000452:	6c5020ef          	jal	ra,1003316 <printf>
 1000456:	002c                	addi	a1,sp,8
 1000458:	854e                	mv	a0,s3
 100045a:	1e3010ef          	jal	ra,1001e3c <BN_bn2hex>
 100045e:	002c                	addi	a1,sp,8
 1000460:	00003517          	auipc	a0,0x3
 1000464:	11850513          	addi	a0,a0,280 # 1003578 <strncmp+0x106>
 1000468:	6af020ef          	jal	ra,1003316 <printf>
 100046c:	002c                	addi	a1,sp,8
 100046e:	854a                	mv	a0,s2
 1000470:	1cd010ef          	jal	ra,1001e3c <BN_bn2hex>
 1000474:	002c                	addi	a1,sp,8
 1000476:	00003517          	auipc	a0,0x3
 100047a:	10a50513          	addi	a0,a0,266 # 1003580 <strncmp+0x10e>
 100047e:	699020ef          	jal	ra,1003316 <printf>
 1000482:	4505                	li	a0,1
 1000484:	bde5                	j	100037c <load_key+0x66>

0000000001000486 <RSAsignVerify>:
 1000486:	7159                	addi	sp,sp,-112
 1000488:	f486                	sd	ra,104(sp)
 100048a:	f0a2                	sd	s0,96(sp)
 100048c:	eca6                	sd	s1,88(sp)
 100048e:	e8ca                	sd	s2,80(sp)
 1000490:	e4ce                	sd	s3,72(sp)
 1000492:	e0d2                	sd	s4,64(sp)
 1000494:	81010113          	addi	sp,sp,-2032
 1000498:	89aa                	mv	s3,a0
 100049a:	892e                	mv	s2,a1
 100049c:	84b2                	mv	s1,a2
 100049e:	8a36                	mv	s4,a3
 10004a0:	843a                	mv	s0,a4
 10004a2:	62010513          	addi	a0,sp,1568
 10004a6:	6aa010ef          	jal	ra,1001b50 <BN_init>
 10004aa:	51010513          	addi	a0,sp,1296
 10004ae:	6a2010ef          	jal	ra,1001b50 <BN_init>
 10004b2:	86d2                	mv	a3,s4
 10004b4:	4601                	li	a2,0
 10004b6:	85a6                	mv	a1,s1
 10004b8:	62010513          	addi	a0,sp,1568
 10004bc:	7e2010ef          	jal	ra,1001c9e <BN_bin2bn>
 10004c0:	33800613          	li	a2,824
 10004c4:	02c40433          	mul	s0,s0,a2
 10004c8:	f481b603          	ld	a2,-184(gp) # 1003c40 <pk_store>
 10004cc:	9622                	add	a2,a2,s0
 10004ce:	777d                	lui	a4,0xfffff
 10004d0:	22060793          	addi	a5,a2,544
 10004d4:	6685                	lui	a3,0x1
 10004d6:	82068693          	addi	a3,a3,-2016 # 820 <_tbss_end+0x820>
 10004da:	080c                	addi	a1,sp,16
 10004dc:	96ae                	add	a3,a3,a1
 10004de:	9736                	add	a4,a4,a3
 10004e0:	e43a                	sd	a4,8(sp)
 10004e2:	7e070713          	addi	a4,a4,2016 # fffffffffffff7e0 <fromhost+0xffffffff7ffff7a0>
 10004e6:	32060893          	addi	a7,a2,800
 10004ea:	0007b803          	ld	a6,0(a5)
 10004ee:	6788                	ld	a0,8(a5)
 10004f0:	6b8c                	ld	a1,16(a5)
 10004f2:	6f94                	ld	a3,24(a5)
 10004f4:	01073023          	sd	a6,0(a4)
 10004f8:	e708                	sd	a0,8(a4)
 10004fa:	eb0c                	sd	a1,16(a4)
 10004fc:	ef14                	sd	a3,24(a4)
 10004fe:	02078793          	addi	a5,a5,32
 1000502:	02070713          	addi	a4,a4,32
 1000506:	ff1792e3          	bne	a5,a7,10004ea <RSAsignVerify+0x64>
 100050a:	6394                	ld	a3,0(a5)
 100050c:	679c                	ld	a5,8(a5)
 100050e:	e314                	sd	a3,0(a4)
 1000510:	e71c                	sd	a5,8(a4)
 1000512:	777d                	lui	a4,0xfffff
 1000514:	7e070713          	addi	a4,a4,2016 # fffffffffffff7e0 <fromhost+0xffffffff7ffff7a0>
 1000518:	6785                	lui	a5,0x1
 100051a:	82078793          	addi	a5,a5,-2016 # 820 <_tbss_end+0x820>
 100051e:	0814                	addi	a3,sp,16
 1000520:	97b6                	add	a5,a5,a3
 1000522:	973e                	add	a4,a4,a5
 1000524:	11060693          	addi	a3,a2,272
 1000528:	62010593          	addi	a1,sp,1568
 100052c:	51010513          	addi	a0,sp,1296
 1000530:	784020ef          	jal	ra,1002cb4 <rsaDecrypt>
 1000534:	73010593          	addi	a1,sp,1840
 1000538:	51010513          	addi	a0,sp,1296
 100053c:	7e0010ef          	jal	ra,1001d1c <BN_bn2bin>
 1000540:	84aa                	mv	s1,a0
 1000542:	122c                	addi	a1,sp,296
 1000544:	62010513          	addi	a0,sp,1568
 1000548:	0f5010ef          	jal	ra,1001e3c <BN_bn2hex>
 100054c:	122c                	addi	a1,sp,296
 100054e:	00003517          	auipc	a0,0x3
 1000552:	04250513          	addi	a0,a0,66 # 1003590 <strncmp+0x11e>
 1000556:	5c1020ef          	jal	ra,1003316 <printf>
 100055a:	122c                	addi	a1,sp,296
 100055c:	51010513          	addi	a0,sp,1296
 1000560:	0dd010ef          	jal	ra,1001e3c <BN_bn2hex>
 1000564:	122c                	addi	a1,sp,296
 1000566:	00003517          	auipc	a0,0x3
 100056a:	03a50513          	addi	a0,a0,58 # 10035a0 <strncmp+0x12e>
 100056e:	5a9020ef          	jal	ra,1003316 <printf>
 1000572:	4401                	li	s0,0
 1000574:	a005                	j	1000594 <RSAsignVerify+0x10e>
 1000576:	6785                	lui	a5,0x1
 1000578:	82078793          	addi	a5,a5,-2016 # 820 <_tbss_end+0x820>
 100057c:	0818                	addi	a4,sp,16
 100057e:	97ba                	add	a5,a5,a4
 1000580:	97a2                	add	a5,a5,s0
 1000582:	f007c583          	lbu	a1,-256(a5)
 1000586:	00003517          	auipc	a0,0x3
 100058a:	02a50513          	addi	a0,a0,42 # 10035b0 <strncmp+0x13e>
 100058e:	589020ef          	jal	ra,1003316 <printf>
 1000592:	2405                	addiw	s0,s0,1
 1000594:	fe9441e3          	blt	s0,s1,1000576 <RSAsignVerify+0xf0>
 1000598:	00003517          	auipc	a0,0x3
 100059c:	00050513          	mv	a0,a0
 10005a0:	577020ef          	jal	ra,1003316 <printf>
 10005a4:	4401                	li	s0,0
 10005a6:	a03d                	j	10005d4 <RSAsignVerify+0x14e>
 10005a8:	00898733          	add	a4,s3,s0
 10005ac:	412487bb          	subw	a5,s1,s2
 10005b0:	9fa1                	addw	a5,a5,s0
 10005b2:	6685                	lui	a3,0x1
 10005b4:	82068693          	addi	a3,a3,-2016 # 820 <_tbss_end+0x820>
 10005b8:	0810                	addi	a2,sp,16
 10005ba:	96b2                	add	a3,a3,a2
 10005bc:	97b6                	add	a5,a5,a3
 10005be:	f007c603          	lbu	a2,-256(a5)
 10005c2:	00074583          	lbu	a1,0(a4)
 10005c6:	00003517          	auipc	a0,0x3
 10005ca:	0ca50513          	addi	a0,a0,202 # 1003690 <strncmp+0x21e>
 10005ce:	549020ef          	jal	ra,1003316 <printf>
 10005d2:	2405                	addiw	s0,s0,1
 10005d4:	47fd                	li	a5,31
 10005d6:	fc87d9e3          	bge	a5,s0,10005a8 <RSAsignVerify+0x122>
 10005da:	00003517          	auipc	a0,0x3
 10005de:	fbe50513          	addi	a0,a0,-66 # 1003598 <strncmp+0x126>
 10005e2:	535020ef          	jal	ra,1003316 <printf>
 10005e6:	412484b3          	sub	s1,s1,s2
 10005ea:	864a                	mv	a2,s2
 10005ec:	85ce                	mv	a1,s3
 10005ee:	73010793          	addi	a5,sp,1840
 10005f2:	00978533          	add	a0,a5,s1
 10005f6:	67d020ef          	jal	ra,1003472 <strncmp>
 10005fa:	ed01                	bnez	a0,1000612 <RSAsignVerify+0x18c>
 10005fc:	4505                	li	a0,1
 10005fe:	7f010113          	addi	sp,sp,2032
 1000602:	70a6                	ld	ra,104(sp)
 1000604:	7406                	ld	s0,96(sp)
 1000606:	64e6                	ld	s1,88(sp)
 1000608:	6946                	ld	s2,80(sp)
 100060a:	69a6                	ld	s3,72(sp)
 100060c:	6a06                	ld	s4,64(sp)
 100060e:	6165                	addi	sp,sp,112
 1000610:	8082                	ret
 1000612:	4501                	li	a0,0
 1000614:	b7ed                	j	10005fe <RSAsignVerify+0x178>

0000000001000616 <verify_certificate>:
 1000616:	715d                	addi	sp,sp,-80
 1000618:	e486                	sd	ra,72(sp)
 100061a:	e0a2                	sd	s0,64(sp)
 100061c:	fc26                	sd	s1,56(sp)
 100061e:	f84a                	sd	s2,48(sp)
 1000620:	f44e                	sd	s3,40(sp)
 1000622:	f052                	sd	s4,32(sp)
 1000624:	842a                	mv	s0,a0
 1000626:	89ae                	mv	s3,a1
 1000628:	00054583          	lbu	a1,0(a0)
 100062c:	00003517          	auipc	a0,0x3
 1000630:	f8c50513          	addi	a0,a0,-116 # 10035b8 <strncmp+0x146>
 1000634:	4e3020ef          	jal	ra,1003316 <printf>
 1000638:	00144483          	lbu	s1,1(s0)
 100063c:	0084949b          	slliw	s1,s1,0x8
 1000640:	00244783          	lbu	a5,2(s0)
 1000644:	8cdd                	or	s1,s1,a5
 1000646:	2481                	sext.w	s1,s1
 1000648:	85a6                	mv	a1,s1
 100064a:	00003517          	auipc	a0,0x3
 100064e:	f8650513          	addi	a0,a0,-122 # 10035d0 <strncmp+0x15e>
 1000652:	4c5020ef          	jal	ra,1003316 <printf>
 1000656:	00044703          	lbu	a4,0(s0)
 100065a:	4791                	li	a5,4
 100065c:	00f70b63          	beq	a4,a5,1000672 <verify_certificate+0x5c>
 1000660:	4501                	li	a0,0
 1000662:	60a6                	ld	ra,72(sp)
 1000664:	6406                	ld	s0,64(sp)
 1000666:	74e2                	ld	s1,56(sp)
 1000668:	7942                	ld	s2,48(sp)
 100066a:	79a2                	ld	s3,40(sp)
 100066c:	7a02                	ld	s4,32(sp)
 100066e:	6161                	addi	sp,sp,80
 1000670:	8082                	ret
 1000672:	00744783          	lbu	a5,7(s0)
 1000676:	0087979b          	slliw	a5,a5,0x8
 100067a:	00844903          	lbu	s2,8(s0)
 100067e:	0127e7b3          	or	a5,a5,s2
 1000682:	2781                	sext.w	a5,a5
 1000684:	00944703          	lbu	a4,9(s0)
 1000688:	0087171b          	slliw	a4,a4,0x8
 100068c:	00a44903          	lbu	s2,10(s0)
 1000690:	01276733          	or	a4,a4,s2
 1000694:	2701                	sext.w	a4,a4
 1000696:	00b44903          	lbu	s2,11(s0)
 100069a:	0089191b          	slliw	s2,s2,0x8
 100069e:	00c44683          	lbu	a3,12(s0)
 10006a2:	00d96933          	or	s2,s2,a3
 10006a6:	2901                	sext.w	s2,s2
 10006a8:	97ba                	add	a5,a5,a4
 10006aa:	993e                	add	s2,s2,a5
 10006ac:	0935                	addi	s2,s2,13
 10006ae:	9922                	add	s2,s2,s0
 10006b0:	00094703          	lbu	a4,0(s2)
 10006b4:	478d                	li	a5,3
 10006b6:	00f70463          	beq	a4,a5,10006be <verify_certificate+0xa8>
 10006ba:	4501                	li	a0,0
 10006bc:	b75d                	j	1000662 <verify_certificate+0x4c>
 10006be:	00194a03          	lbu	s4,1(s2)
 10006c2:	008a1a1b          	slliw	s4,s4,0x8
 10006c6:	00294783          	lbu	a5,2(s2)
 10006ca:	00fa6a33          	or	s4,s4,a5
 10006ce:	2a01                	sext.w	s4,s4
 10006d0:	85d2                	mv	a1,s4
 10006d2:	00003517          	auipc	a0,0x3
 10006d6:	f0650513          	addi	a0,a0,-250 # 10035d8 <strncmp+0x166>
 10006da:	43d020ef          	jal	ra,1003316 <printf>
 10006de:	860a                	mv	a2,sp
 10006e0:	00348593          	addi	a1,s1,3
 10006e4:	8522                	mv	a0,s0
 10006e6:	a13ff0ef          	jal	ra,10000f8 <digest_message>
 10006ea:	874e                	mv	a4,s3
 10006ec:	86d2                	mv	a3,s4
 10006ee:	00390613          	addi	a2,s2,3
 10006f2:	02000593          	li	a1,32
 10006f6:	850a                	mv	a0,sp
 10006f8:	d8fff0ef          	jal	ra,1000486 <RSAsignVerify>
 10006fc:	b79d                	j	1000662 <verify_certificate+0x4c>

00000000010006fe <install_key>:
 10006fe:	7179                	addi	sp,sp,-48
 1000700:	f406                	sd	ra,40(sp)
 1000702:	f022                	sd	s0,32(sp)
 1000704:	ec26                	sd	s1,24(sp)
 1000706:	e84a                	sd	s2,16(sp)
 1000708:	e44e                	sd	s3,8(sp)
 100070a:	e052                	sd	s4,0(sp)
 100070c:	842a                	mv	s0,a0
 100070e:	84b2                	mv	s1,a2
 1000710:	893a                	mv	s2,a4
 1000712:	33800793          	li	a5,824
 1000716:	02f687b3          	mul	a5,a3,a5
 100071a:	f481b983          	ld	s3,-184(gp) # 1003c40 <pk_store>
 100071e:	99be                	add	s3,s3,a5
 1000720:	00060a1b          	sext.w	s4,a2
 1000724:	8736                	mv	a4,a3
 1000726:	86d2                	mv	a3,s4
 1000728:	862e                	mv	a2,a1
 100072a:	85aa                	mv	a1,a0
 100072c:	00003517          	auipc	a0,0x3
 1000730:	ebc50513          	addi	a0,a0,-324 # 10035e8 <strncmp+0x176>
 1000734:	3e3020ef          	jal	ra,1003316 <printf>
 1000738:	ffe4079b          	addiw	a5,s0,-2
 100073c:	0ff7f793          	andi	a5,a5,255
 1000740:	4705                	li	a4,1
 1000742:	00f77f63          	bgeu	a4,a5,1000760 <install_key+0x62>
 1000746:	4785                	li	a5,1
 1000748:	04f40963          	beq	s0,a5,100079a <install_key+0x9c>
 100074c:	4481                	li	s1,0
 100074e:	8526                	mv	a0,s1
 1000750:	70a2                	ld	ra,40(sp)
 1000752:	7402                	ld	s0,32(sp)
 1000754:	64e2                	ld	s1,24(sp)
 1000756:	6942                	ld	s2,16(sp)
 1000758:	69a2                	ld	s3,8(sp)
 100075a:	6a02                	ld	s4,0(sp)
 100075c:	6145                	addi	sp,sp,48
 100075e:	8082                	ret
 1000760:	090d                	addi	s2,s2,3
 1000762:	85d2                	mv	a1,s4
 1000764:	854a                	mv	a0,s2
 1000766:	eb1ff0ef          	jal	ra,1000616 <verify_certificate>
 100076a:	4785                	li	a5,1
 100076c:	00f50463          	beq	a0,a5,1000774 <install_key+0x76>
 1000770:	4481                	li	s1,0
 1000772:	bff1                	j	100074e <install_key+0x50>
 1000774:	86ca                	mv	a3,s2
 1000776:	22098613          	addi	a2,s3,544
 100077a:	11098593          	addi	a1,s3,272
 100077e:	854e                	mv	a0,s3
 1000780:	b97ff0ef          	jal	ra,1000316 <load_key>
 1000784:	84aa                	mv	s1,a0
 1000786:	85aa                	mv	a1,a0
 1000788:	00003517          	auipc	a0,0x3
 100078c:	e8050513          	addi	a0,a0,-384 # 1003608 <strncmp+0x196>
 1000790:	387020ef          	jal	ra,1003316 <printf>
 1000794:	32898823          	sb	s0,816(s3)
 1000798:	bf5d                	j	100074e <install_key+0x50>
 100079a:	854a                	mv	a0,s2
 100079c:	a87ff0ef          	jal	ra,1000222 <verify_srk>
 10007a0:	4785                	li	a5,1
 10007a2:	00f50463          	beq	a0,a5,10007aa <install_key+0xac>
 10007a6:	4481                	li	s1,0
 10007a8:	b75d                	j	100074e <install_key+0x50>
 10007aa:	00394583          	lbu	a1,3(s2)
 10007ae:	00490693          	addi	a3,s2,4
 10007b2:	4701                	li	a4,0
 10007b4:	04b77163          	bgeu	a4,a1,10007f6 <install_key+0xf8>
 10007b8:	0016c783          	lbu	a5,1(a3)
 10007bc:	0087979b          	slliw	a5,a5,0x8
 10007c0:	0026c603          	lbu	a2,2(a3)
 10007c4:	8fd1                	or	a5,a5,a2
 10007c6:	2781                	sext.w	a5,a5
 10007c8:	0004861b          	sext.w	a2,s1
 10007cc:	00e60563          	beq	a2,a4,10007d6 <install_key+0xd8>
 10007d0:	96be                	add	a3,a3,a5
 10007d2:	2705                	addiw	a4,a4,1
 10007d4:	b7c5                	j	10007b4 <install_key+0xb6>
 10007d6:	22098613          	addi	a2,s3,544
 10007da:	11098593          	addi	a1,s3,272
 10007de:	854e                	mv	a0,s3
 10007e0:	b37ff0ef          	jal	ra,1000316 <load_key>
 10007e4:	84aa                	mv	s1,a0
 10007e6:	85aa                	mv	a1,a0
 10007e8:	00003517          	auipc	a0,0x3
 10007ec:	e3850513          	addi	a0,a0,-456 # 1003620 <strncmp+0x1ae>
 10007f0:	327020ef          	jal	ra,1003316 <printf>
 10007f4:	a011                	j	10007f8 <install_key+0xfa>
 10007f6:	4481                	li	s1,0
 10007f8:	32898823          	sb	s0,816(s3)
 10007fc:	bf89                	j	100074e <install_key+0x50>

00000000010007fe <auth_data>:
 10007fe:	7139                	addi	sp,sp,-64
 1000800:	fc06                	sd	ra,56(sp)
 1000802:	f822                	sd	s0,48(sp)
 1000804:	f426                	sd	s1,40(sp)
 1000806:	8432                	mv	s0,a2
 1000808:	33800613          	li	a2,824
 100080c:	02c40833          	mul	a6,s0,a2
 1000810:	f481b603          	ld	a2,-184(gp) # 1003c40 <pk_store>
 1000814:	9642                	add	a2,a2,a6
 1000816:	33064803          	lbu	a6,816(a2)
 100081a:	3879                	addiw	a6,a6,-2
 100081c:	0ff87813          	andi	a6,a6,255
 1000820:	4605                	li	a2,1
 1000822:	01067863          	bgeu	a2,a6,1000832 <auth_data+0x34>
 1000826:	4501                	li	a0,0
 1000828:	70e2                	ld	ra,56(sp)
 100082a:	7442                	ld	s0,48(sp)
 100082c:	74a2                	ld	s1,40(sp)
 100082e:	6121                	addi	sp,sp,64
 1000830:	8082                	ret
 1000832:	84be                	mv	s1,a5
 1000834:	0007c603          	lbu	a2,0(a5)
 1000838:	478d                	li	a5,3
 100083a:	00f60463          	beq	a2,a5,1000842 <auth_data+0x44>
 100083e:	4501                	li	a0,0
 1000840:	b7e5                	j	1000828 <auth_data+0x2a>
 1000842:	860a                	mv	a2,sp
 1000844:	85ba                	mv	a1,a4
 1000846:	8536                	mv	a0,a3
 1000848:	8b1ff0ef          	jal	ra,10000f8 <digest_message>
 100084c:	0014c683          	lbu	a3,1(s1)
 1000850:	0086969b          	slliw	a3,a3,0x8
 1000854:	0024c783          	lbu	a5,2(s1)
 1000858:	8edd                	or	a3,a3,a5
 100085a:	8722                	mv	a4,s0
 100085c:	2681                	sext.w	a3,a3
 100085e:	00348613          	addi	a2,s1,3
 1000862:	02000593          	li	a1,32
 1000866:	850a                	mv	a0,sp
 1000868:	c1fff0ef          	jal	ra,1000486 <RSAsignVerify>
 100086c:	bf75                	j	1000828 <auth_data+0x2a>

000000000100086e <initialise_lib>:
 100086e:	1101                	addi	sp,sp,-32
 1000870:	ec06                	sd	ra,24(sp)
 1000872:	e822                	sd	s0,16(sp)
 1000874:	e426                	sd	s1,8(sp)
 1000876:	4401                	li	s0,0
 1000878:	a00d                	j	100089a <initialise_lib+0x2c>
 100087a:	33800493          	li	s1,824
 100087e:	029407b3          	mul	a5,s0,s1
 1000882:	f481b483          	ld	s1,-184(gp) # 1003c40 <pk_store>
 1000886:	94be                	add	s1,s1,a5
 1000888:	00003517          	auipc	a0,0x3
 100088c:	db050513          	addi	a0,a0,-592 # 1003638 <strncmp+0x1c6>
 1000890:	287020ef          	jal	ra,1003316 <printf>
 1000894:	32048823          	sb	zero,816(s1)
 1000898:	2405                	addiw	s0,s0,1
 100089a:	4785                	li	a5,1
 100089c:	fc87dfe3          	bge	a5,s0,100087a <initialise_lib+0xc>
 10008a0:	60e2                	ld	ra,24(sp)
 10008a2:	6442                	ld	s0,16(sp)
 10008a4:	64a2                	ld	s1,8(sp)
 10008a6:	6105                	addi	sp,sp,32
 10008a8:	8082                	ret

00000000010008aa <main>:
 10008aa:	711d                	addi	sp,sp,-96
 10008ac:	ec86                	sd	ra,88(sp)
 10008ae:	e8a2                	sd	s0,80(sp)
 10008b0:	e4a6                	sd	s1,72(sp)
 10008b2:	e0ca                	sd	s2,64(sp)
 10008b4:	fc4e                	sd	s3,56(sp)
 10008b6:	f852                	sd	s4,48(sp)
 10008b8:	f456                	sd	s5,40(sp)
 10008ba:	00003517          	auipc	a0,0x3
 10008be:	d8e50513          	addi	a0,a0,-626 # 1003648 <strncmp+0x1d6>
 10008c2:	255020ef          	jal	ra,1003316 <printf>
 10008c6:	100017b7          	lui	a5,0x10001
 10008ca:	078e                	slli	a5,a5,0x3
 10008cc:	07a1                	addi	a5,a5,8
 10008ce:	f4f1b423          	sd	a5,-184(gp) # 1003c40 <pk_store>
 10008d2:	f9dff0ef          	jal	ra,100086e <initialise_lib>
 10008d6:	04100793          	li	a5,65
 10008da:	07e6                	slli	a5,a5,0x19
 10008dc:	ffb7c483          	lbu	s1,-5(a5) # 10000ffb <__global_pointer$+0xeffd303>
 10008e0:	85a6                	mv	a1,s1
 10008e2:	00003517          	auipc	a0,0x3
 10008e6:	ce650513          	addi	a0,a0,-794 # 10035c8 <strncmp+0x156>
 10008ea:	22d020ef          	jal	ra,1003316 <printf>
 10008ee:	8626                	mv	a2,s1
 10008f0:	0004c583          	lbu	a1,0(s1)
 10008f4:	00003517          	auipc	a0,0x3
 10008f8:	d9c50513          	addi	a0,a0,-612 # 1003690 <strncmp+0x21e>
 10008fc:	21b020ef          	jal	ra,1003316 <printf>
 1000900:	0004c703          	lbu	a4,0(s1)
 1000904:	47bd                	li	a5,15
 1000906:	02f70263          	beq	a4,a5,100092a <main+0x80>
 100090a:	00003517          	auipc	a0,0x3
 100090e:	d4e50513          	addi	a0,a0,-690 # 1003658 <strncmp+0x1e6>
 1000912:	205020ef          	jal	ra,1003316 <printf>
 1000916:	4501                	li	a0,0
 1000918:	60e6                	ld	ra,88(sp)
 100091a:	6446                	ld	s0,80(sp)
 100091c:	64a6                	ld	s1,72(sp)
 100091e:	6906                	ld	s2,64(sp)
 1000920:	79e2                	ld	s3,56(sp)
 1000922:	7a42                	ld	s4,48(sp)
 1000924:	7aa2                	ld	s5,40(sp)
 1000926:	6125                	addi	sp,sp,96
 1000928:	8082                	ret
 100092a:	00148593          	addi	a1,s1,1
 100092e:	0074c503          	lbu	a0,7(s1)
 1000932:	0084c303          	lbu	t1,8(s1)
 1000936:	0064c883          	lbu	a7,6(s1)
 100093a:	0054c803          	lbu	a6,5(s1)
 100093e:	0044c783          	lbu	a5,4(s1)
 1000942:	0034c703          	lbu	a4,3(s1)
 1000946:	0024c683          	lbu	a3,2(s1)
 100094a:	0014c603          	lbu	a2,1(s1)
 100094e:	0094ce03          	lbu	t3,9(s1)
 1000952:	e872                	sd	t3,16(sp)
 1000954:	e41a                	sd	t1,8(sp)
 1000956:	e02a                	sd	a0,0(sp)
 1000958:	00003517          	auipc	a0,0x3
 100095c:	d2050513          	addi	a0,a0,-736 # 1003678 <strncmp+0x206>
 1000960:	1b7020ef          	jal	ra,1003316 <printf>
 1000964:	0014c683          	lbu	a3,1(s1)
 1000968:	00869a1b          	slliw	s4,a3,0x8
 100096c:	0024c703          	lbu	a4,2(s1)
 1000970:	00ea0a3b          	addw	s4,s4,a4
 1000974:	00448413          	addi	s0,s1,4
 1000978:	0064c583          	lbu	a1,6(s1)
 100097c:	0074c503          	lbu	a0,7(s1)
 1000980:	0054c883          	lbu	a7,5(s1)
 1000984:	0044c803          	lbu	a6,4(s1)
 1000988:	0034c783          	lbu	a5,3(s1)
 100098c:	0004c603          	lbu	a2,0(s1)
 1000990:	0084c303          	lbu	t1,8(s1)
 1000994:	e81a                	sd	t1,16(sp)
 1000996:	e42a                	sd	a0,8(sp)
 1000998:	e02e                	sd	a1,0(sp)
 100099a:	2701                	sext.w	a4,a4
 100099c:	2681                	sext.w	a3,a3
 100099e:	85a6                	mv	a1,s1
 10009a0:	00003517          	auipc	a0,0x3
 10009a4:	cd850513          	addi	a0,a0,-808 # 1003678 <strncmp+0x206>
 10009a8:	16f020ef          	jal	ra,1003316 <printf>
 10009ac:	4981                	li	s3,0
 10009ae:	4901                	li	s2,0
 10009b0:	4a81                	li	s5,0
 10009b2:	a8b1                	j	1000a0e <main+0x164>
 10009b4:	00003517          	auipc	a0,0x3
 10009b8:	cec50513          	addi	a0,a0,-788 # 10036a0 <strncmp+0x22e>
 10009bc:	15b020ef          	jal	ra,1003316 <printf>
 10009c0:	00644703          	lbu	a4,6(s0)
 10009c4:	0187171b          	slliw	a4,a4,0x18
 10009c8:	00744783          	lbu	a5,7(s0)
 10009cc:	0107979b          	slliw	a5,a5,0x10
 10009d0:	9f3d                	addw	a4,a4,a5
 10009d2:	00844783          	lbu	a5,8(s0)
 10009d6:	0087979b          	slliw	a5,a5,0x8
 10009da:	9f3d                	addw	a4,a4,a5
 10009dc:	00944783          	lbu	a5,9(s0)
 10009e0:	9f3d                	addw	a4,a4,a5
 10009e2:	9726                	add	a4,a4,s1
 10009e4:	00544683          	lbu	a3,5(s0)
 10009e8:	00444603          	lbu	a2,4(s0)
 10009ec:	00344583          	lbu	a1,3(s0)
 10009f0:	00244503          	lbu	a0,2(s0)
 10009f4:	d0bff0ef          	jal	ra,10006fe <install_key>
 10009f8:	89aa                	mv	s3,a0
 10009fa:	0429                	addi	s0,s0,10
 10009fc:	c17d                	beqz	a0,1000ae2 <main+0x238>
 10009fe:	00003517          	auipc	a0,0x3
 1000a02:	cb250513          	addi	a0,a0,-846 # 10036b0 <strncmp+0x23e>
 1000a06:	111020ef          	jal	ra,1003316 <printf>
 1000a0a:	12098963          	beqz	s3,1000b3c <main+0x292>
 1000a0e:	014487b3          	add	a5,s1,s4
 1000a12:	12f47b63          	bgeu	s0,a5,1000b48 <main+0x29e>
 1000a16:	8622                	mv	a2,s0
 1000a18:	85ca                	mv	a1,s2
 1000a1a:	00003517          	auipc	a0,0x3
 1000a1e:	c7e50513          	addi	a0,a0,-898 # 1003698 <strncmp+0x226>
 1000a22:	0f5020ef          	jal	ra,1003316 <printf>
 1000a26:	2905                	addiw	s2,s2,1
 1000a28:	00044783          	lbu	a5,0(s0)
 1000a2c:	4741                	li	a4,16
 1000a2e:	f8e783e3          	beq	a5,a4,10009b4 <main+0x10a>
 1000a32:	4745                	li	a4,17
 1000a34:	fce79be3          	bne	a5,a4,1000a0a <main+0x160>
 1000a38:	00003517          	auipc	a0,0x3
 1000a3c:	ca850513          	addi	a0,a0,-856 # 10036e0 <strncmp+0x26e>
 1000a40:	0d7020ef          	jal	ra,1003316 <printf>
 1000a44:	00144703          	lbu	a4,1(s0)
 1000a48:	47a5                	li	a5,9
 1000a4a:	0af70363          	beq	a4,a5,1000af0 <main+0x246>
 1000a4e:	00544683          	lbu	a3,5(s0)
 1000a52:	0186969b          	slliw	a3,a3,0x18
 1000a56:	00644783          	lbu	a5,6(s0)
 1000a5a:	0107979b          	slliw	a5,a5,0x10
 1000a5e:	9ebd                	addw	a3,a3,a5
 1000a60:	00744783          	lbu	a5,7(s0)
 1000a64:	0087979b          	slliw	a5,a5,0x8
 1000a68:	9ebd                	addw	a3,a3,a5
 1000a6a:	00844783          	lbu	a5,8(s0)
 1000a6e:	9ebd                	addw	a3,a3,a5
 1000a70:	00d44783          	lbu	a5,13(s0)
 1000a74:	0187979b          	slliw	a5,a5,0x18
 1000a78:	00e44703          	lbu	a4,14(s0)
 1000a7c:	0107171b          	slliw	a4,a4,0x10
 1000a80:	9fb9                	addw	a5,a5,a4
 1000a82:	00f44703          	lbu	a4,15(s0)
 1000a86:	0087171b          	slliw	a4,a4,0x8
 1000a8a:	9fb9                	addw	a5,a5,a4
 1000a8c:	01044703          	lbu	a4,16(s0)
 1000a90:	9fb9                	addw	a5,a5,a4
 1000a92:	00944703          	lbu	a4,9(s0)
 1000a96:	0187171b          	slliw	a4,a4,0x18
 1000a9a:	00a44603          	lbu	a2,10(s0)
 1000a9e:	0106161b          	slliw	a2,a2,0x10
 1000aa2:	9f31                	addw	a4,a4,a2
 1000aa4:	00b44603          	lbu	a2,11(s0)
 1000aa8:	0086161b          	slliw	a2,a2,0x8
 1000aac:	9f31                	addw	a4,a4,a2
 1000aae:	00c44603          	lbu	a2,12(s0)
 1000ab2:	97a6                	add	a5,a5,s1
 1000ab4:	9f31                	addw	a4,a4,a2
 1000ab6:	1682                	slli	a3,a3,0x20
 1000ab8:	9281                	srli	a3,a3,0x20
 1000aba:	00444603          	lbu	a2,4(s0)
 1000abe:	00344583          	lbu	a1,3(s0)
 1000ac2:	00244503          	lbu	a0,2(s0)
 1000ac6:	d39ff0ef          	jal	ra,10007fe <auth_data>
 1000aca:	8aaa                	mv	s5,a0
 1000acc:	0445                	addi	s0,s0,17
 1000ace:	89aa                	mv	s3,a0
 1000ad0:	04098f63          	beqz	s3,1000b2e <main+0x284>
 1000ad4:	00003517          	auipc	a0,0x3
 1000ad8:	c1c50513          	addi	a0,a0,-996 # 10036f0 <strncmp+0x27e>
 1000adc:	03b020ef          	jal	ra,1003316 <printf>
 1000ae0:	b72d                	j	1000a0a <main+0x160>
 1000ae2:	00003517          	auipc	a0,0x3
 1000ae6:	be650513          	addi	a0,a0,-1050 # 10036c8 <strncmp+0x256>
 1000aea:	02d020ef          	jal	ra,1003316 <printf>
 1000aee:	bf31                	j	1000a0a <main+0x160>
 1000af0:	00544783          	lbu	a5,5(s0)
 1000af4:	0187979b          	slliw	a5,a5,0x18
 1000af8:	00644703          	lbu	a4,6(s0)
 1000afc:	0107171b          	slliw	a4,a4,0x10
 1000b00:	9fb9                	addw	a5,a5,a4
 1000b02:	00744703          	lbu	a4,7(s0)
 1000b06:	0087171b          	slliw	a4,a4,0x8
 1000b0a:	9fb9                	addw	a5,a5,a4
 1000b0c:	00844703          	lbu	a4,8(s0)
 1000b10:	9fb9                	addw	a5,a5,a4
 1000b12:	97a6                	add	a5,a5,s1
 1000b14:	8752                	mv	a4,s4
 1000b16:	86a6                	mv	a3,s1
 1000b18:	00444603          	lbu	a2,4(s0)
 1000b1c:	00344583          	lbu	a1,3(s0)
 1000b20:	00244503          	lbu	a0,2(s0)
 1000b24:	cdbff0ef          	jal	ra,10007fe <auth_data>
 1000b28:	89aa                	mv	s3,a0
 1000b2a:	0425                	addi	s0,s0,9
 1000b2c:	b755                	j	1000ad0 <main+0x226>
 1000b2e:	00003517          	auipc	a0,0x3
 1000b32:	bda50513          	addi	a0,a0,-1062 # 1003708 <strncmp+0x296>
 1000b36:	7e0020ef          	jal	ra,1003316 <printf>
 1000b3a:	bdc1                	j	1000a0a <main+0x160>
 1000b3c:	00003517          	auipc	a0,0x3
 1000b40:	bdc50513          	addi	a0,a0,-1060 # 1003718 <strncmp+0x2a6>
 1000b44:	7d2020ef          	jal	ra,1003316 <printf>
 1000b48:	4785                	li	a5,1
 1000b4a:	dcfa96e3          	bne	s5,a5,1000916 <main+0x6c>
 1000b4e:	00003517          	auipc	a0,0x3
 1000b52:	bda50513          	addi	a0,a0,-1062 # 1003728 <strncmp+0x2b6>
 1000b56:	7c0020ef          	jal	ra,1003316 <printf>
 1000b5a:	0010051b          	addiw	a0,zero,1
 1000b5e:	057e                	slli	a0,a0,0x1f
 1000b60:	8502                	jr	a0
 1000b62:	bb55                	j	1000916 <main+0x6c>

0000000001000b64 <sha256_transform>:
 1000b64:	7169                	addi	sp,sp,-304
 1000b66:	f622                	sd	s0,296(sp)
 1000b68:	f226                	sd	s1,288(sp)
 1000b6a:	ee4a                	sd	s2,280(sp)
 1000b6c:	ea4e                	sd	s3,272(sp)
 1000b6e:	e652                	sd	s4,264(sp)
 1000b70:	e256                	sd	s5,256(sp)
 1000b72:	4681                	li	a3,0
 1000b74:	4701                	li	a4,0
 1000b76:	47bd                	li	a5,15
 1000b78:	10e7e063          	bltu	a5,a4,1000c78 <sha256_transform+0x114>
 1000b7c:	02069793          	slli	a5,a3,0x20
 1000b80:	9381                	srli	a5,a5,0x20
 1000b82:	97ae                	add	a5,a5,a1
 1000b84:	0007c783          	lbu	a5,0(a5)
 1000b88:	0187979b          	slliw	a5,a5,0x18
 1000b8c:	0016861b          	addiw	a2,a3,1
 1000b90:	1602                	slli	a2,a2,0x20
 1000b92:	9201                	srli	a2,a2,0x20
 1000b94:	962e                	add	a2,a2,a1
 1000b96:	00064603          	lbu	a2,0(a2)
 1000b9a:	0106161b          	slliw	a2,a2,0x10
 1000b9e:	8fd1                	or	a5,a5,a2
 1000ba0:	0026861b          	addiw	a2,a3,2
 1000ba4:	1602                	slli	a2,a2,0x20
 1000ba6:	9201                	srli	a2,a2,0x20
 1000ba8:	962e                	add	a2,a2,a1
 1000baa:	00064603          	lbu	a2,0(a2)
 1000bae:	0086161b          	slliw	a2,a2,0x8
 1000bb2:	8fd1                	or	a5,a5,a2
 1000bb4:	0036861b          	addiw	a2,a3,3
 1000bb8:	1602                	slli	a2,a2,0x20
 1000bba:	9201                	srli	a2,a2,0x20
 1000bbc:	962e                	add	a2,a2,a1
 1000bbe:	00064603          	lbu	a2,0(a2)
 1000bc2:	8fd1                	or	a5,a5,a2
 1000bc4:	02071613          	slli	a2,a4,0x20
 1000bc8:	9201                	srli	a2,a2,0x20
 1000bca:	060a                	slli	a2,a2,0x2
 1000bcc:	0200                	addi	s0,sp,256
 1000bce:	9622                	add	a2,a2,s0
 1000bd0:	f0f62023          	sw	a5,-256(a2)
 1000bd4:	2705                	addiw	a4,a4,1
 1000bd6:	2691                	addiw	a3,a3,4
 1000bd8:	bf79                	j	1000b76 <sha256_transform+0x12>
 1000bda:	ffe7079b          	addiw	a5,a4,-2
 1000bde:	1782                	slli	a5,a5,0x20
 1000be0:	9381                	srli	a5,a5,0x20
 1000be2:	078a                	slli	a5,a5,0x2
 1000be4:	0214                	addi	a3,sp,256
 1000be6:	97b6                	add	a5,a5,a3
 1000be8:	f007a683          	lw	a3,-256(a5)
 1000bec:	00f6979b          	slliw	a5,a3,0xf
 1000bf0:	0116d61b          	srliw	a2,a3,0x11
 1000bf4:	8fd1                	or	a5,a5,a2
 1000bf6:	2781                	sext.w	a5,a5
 1000bf8:	00d6961b          	slliw	a2,a3,0xd
 1000bfc:	0136d59b          	srliw	a1,a3,0x13
 1000c00:	8e4d                	or	a2,a2,a1
 1000c02:	2601                	sext.w	a2,a2
 1000c04:	8fb1                	xor	a5,a5,a2
 1000c06:	00a6d69b          	srliw	a3,a3,0xa
 1000c0a:	8fb5                	xor	a5,a5,a3
 1000c0c:	ff97069b          	addiw	a3,a4,-7
 1000c10:	1682                	slli	a3,a3,0x20
 1000c12:	9281                	srli	a3,a3,0x20
 1000c14:	068a                	slli	a3,a3,0x2
 1000c16:	0210                	addi	a2,sp,256
 1000c18:	96b2                	add	a3,a3,a2
 1000c1a:	f006a683          	lw	a3,-256(a3)
 1000c1e:	9fb5                	addw	a5,a5,a3
 1000c20:	ff17069b          	addiw	a3,a4,-15
 1000c24:	1682                	slli	a3,a3,0x20
 1000c26:	9281                	srli	a3,a3,0x20
 1000c28:	068a                	slli	a3,a3,0x2
 1000c2a:	96b2                	add	a3,a3,a2
 1000c2c:	f006a603          	lw	a2,-256(a3)
 1000c30:	0076569b          	srliw	a3,a2,0x7
 1000c34:	0196159b          	slliw	a1,a2,0x19
 1000c38:	8ecd                	or	a3,a3,a1
 1000c3a:	2681                	sext.w	a3,a3
 1000c3c:	00e6159b          	slliw	a1,a2,0xe
 1000c40:	0126581b          	srliw	a6,a2,0x12
 1000c44:	0105e5b3          	or	a1,a1,a6
 1000c48:	2581                	sext.w	a1,a1
 1000c4a:	8ead                	xor	a3,a3,a1
 1000c4c:	0036561b          	srliw	a2,a2,0x3
 1000c50:	8eb1                	xor	a3,a3,a2
 1000c52:	9fb5                	addw	a5,a5,a3
 1000c54:	ff07069b          	addiw	a3,a4,-16
 1000c58:	1682                	slli	a3,a3,0x20
 1000c5a:	9281                	srli	a3,a3,0x20
 1000c5c:	068a                	slli	a3,a3,0x2
 1000c5e:	0210                	addi	a2,sp,256
 1000c60:	96b2                	add	a3,a3,a2
 1000c62:	f006a683          	lw	a3,-256(a3)
 1000c66:	9fb5                	addw	a5,a5,a3
 1000c68:	02071693          	slli	a3,a4,0x20
 1000c6c:	9281                	srli	a3,a3,0x20
 1000c6e:	068a                	slli	a3,a3,0x2
 1000c70:	96b2                	add	a3,a3,a2
 1000c72:	f0f6a023          	sw	a5,-256(a3)
 1000c76:	2705                	addiw	a4,a4,1
 1000c78:	03f00793          	li	a5,63
 1000c7c:	f4e7ffe3          	bgeu	a5,a4,1000bda <sha256_transform+0x76>
 1000c80:	05052983          	lw	s3,80(a0)
 1000c84:	05452903          	lw	s2,84(a0)
 1000c88:	4d24                	lw	s1,88(a0)
 1000c8a:	4d60                	lw	s0,92(a0)
 1000c8c:	06052383          	lw	t2,96(a0)
 1000c90:	06452283          	lw	t0,100(a0)
 1000c94:	06852f83          	lw	t6,104(a0)
 1000c98:	06c52f03          	lw	t5,108(a0)
 1000c9c:	8a7a                	mv	s4,t5
 1000c9e:	837e                	mv	t1,t6
 1000ca0:	8e16                	mv	t3,t0
 1000ca2:	869e                	mv	a3,t2
 1000ca4:	8ea2                	mv	t4,s0
 1000ca6:	85a6                	mv	a1,s1
 1000ca8:	884a                	mv	a6,s2
 1000caa:	864e                	mv	a2,s3
 1000cac:	4881                	li	a7,0
 1000cae:	a0e9                	j	1000d78 <sha256_transform+0x214>
 1000cb0:	0066d79b          	srliw	a5,a3,0x6
 1000cb4:	01a6971b          	slliw	a4,a3,0x1a
 1000cb8:	8fd9                	or	a5,a5,a4
 1000cba:	2781                	sext.w	a5,a5
 1000cbc:	00b6d71b          	srliw	a4,a3,0xb
 1000cc0:	01569a9b          	slliw	s5,a3,0x15
 1000cc4:	01576733          	or	a4,a4,s5
 1000cc8:	2701                	sext.w	a4,a4
 1000cca:	8fb9                	xor	a5,a5,a4
 1000ccc:	0076971b          	slliw	a4,a3,0x7
 1000cd0:	0196da9b          	srliw	s5,a3,0x19
 1000cd4:	01576733          	or	a4,a4,s5
 1000cd8:	2701                	sext.w	a4,a4
 1000cda:	8fb9                	xor	a5,a5,a4
 1000cdc:	014787bb          	addw	a5,a5,s4
 1000ce0:	01c6f733          	and	a4,a3,t3
 1000ce4:	2701                	sext.w	a4,a4
 1000ce6:	fff6ca13          	not	s4,a3
 1000cea:	006a7a33          	and	s4,s4,t1
 1000cee:	2a01                	sext.w	s4,s4
 1000cf0:	01474733          	xor	a4,a4,s4
 1000cf4:	9fb9                	addw	a5,a5,a4
 1000cf6:	02089713          	slli	a4,a7,0x20
 1000cfa:	9301                	srli	a4,a4,0x20
 1000cfc:	070a                	slli	a4,a4,0x2
 1000cfe:	bd018a13          	addi	s4,gp,-1072 # 10038c8 <k>
 1000d02:	9a3a                	add	s4,s4,a4
 1000d04:	000a2a03          	lw	s4,0(s4)
 1000d08:	014787bb          	addw	a5,a5,s4
 1000d0c:	10010a13          	addi	s4,sp,256
 1000d10:	9752                	add	a4,a4,s4
 1000d12:	f0072703          	lw	a4,-256(a4)
 1000d16:	9fb9                	addw	a5,a5,a4
 1000d18:	0026571b          	srliw	a4,a2,0x2
 1000d1c:	01e61a1b          	slliw	s4,a2,0x1e
 1000d20:	01476733          	or	a4,a4,s4
 1000d24:	2701                	sext.w	a4,a4
 1000d26:	00d65a1b          	srliw	s4,a2,0xd
 1000d2a:	01361a9b          	slliw	s5,a2,0x13
 1000d2e:	015a6a33          	or	s4,s4,s5
 1000d32:	2a01                	sext.w	s4,s4
 1000d34:	01474733          	xor	a4,a4,s4
 1000d38:	00a61a1b          	slliw	s4,a2,0xa
 1000d3c:	01665a9b          	srliw	s5,a2,0x16
 1000d40:	015a6a33          	or	s4,s4,s5
 1000d44:	2a01                	sext.w	s4,s4
 1000d46:	01474733          	xor	a4,a4,s4
 1000d4a:	00b84a33          	xor	s4,a6,a1
 1000d4e:	01467a33          	and	s4,a2,s4
 1000d52:	2a01                	sext.w	s4,s4
 1000d54:	00b87ab3          	and	s5,a6,a1
 1000d58:	2a81                	sext.w	s5,s5
 1000d5a:	015a4a33          	xor	s4,s4,s5
 1000d5e:	0147073b          	addw	a4,a4,s4
 1000d62:	2885                	addiw	a7,a7,1
 1000d64:	8a1a                	mv	s4,t1
 1000d66:	8372                	mv	t1,t3
 1000d68:	8e36                	mv	t3,a3
 1000d6a:	01d786bb          	addw	a3,a5,t4
 1000d6e:	8eae                	mv	t4,a1
 1000d70:	85c2                	mv	a1,a6
 1000d72:	8832                	mv	a6,a2
 1000d74:	00e7863b          	addw	a2,a5,a4
 1000d78:	03f00793          	li	a5,63
 1000d7c:	f317fae3          	bgeu	a5,a7,1000cb0 <sha256_transform+0x14c>
 1000d80:	0136063b          	addw	a2,a2,s3
 1000d84:	c930                	sw	a2,80(a0)
 1000d86:	0128083b          	addw	a6,a6,s2
 1000d8a:	05052a23          	sw	a6,84(a0)
 1000d8e:	9da5                	addw	a1,a1,s1
 1000d90:	cd2c                	sw	a1,88(a0)
 1000d92:	008e8ebb          	addw	t4,t4,s0
 1000d96:	05d52e23          	sw	t4,92(a0)
 1000d9a:	007686bb          	addw	a3,a3,t2
 1000d9e:	d134                	sw	a3,96(a0)
 1000da0:	005e0e3b          	addw	t3,t3,t0
 1000da4:	07c52223          	sw	t3,100(a0)
 1000da8:	01f3033b          	addw	t1,t1,t6
 1000dac:	06652423          	sw	t1,104(a0)
 1000db0:	01ea07bb          	addw	a5,s4,t5
 1000db4:	d57c                	sw	a5,108(a0)
 1000db6:	7432                	ld	s0,296(sp)
 1000db8:	7492                	ld	s1,288(sp)
 1000dba:	6972                	ld	s2,280(sp)
 1000dbc:	69d2                	ld	s3,272(sp)
 1000dbe:	6a32                	ld	s4,264(sp)
 1000dc0:	6a92                	ld	s5,256(sp)
 1000dc2:	6155                	addi	sp,sp,304
 1000dc4:	8082                	ret

0000000001000dc6 <sha256_init>:
 1000dc6:	04052023          	sw	zero,64(a0)
 1000dca:	04053423          	sd	zero,72(a0)
 1000dce:	6a09e7b7          	lui	a5,0x6a09e
 1000dd2:	66778793          	addi	a5,a5,1639 # 6a09e667 <__global_pointer$+0x6909a96f>
 1000dd6:	c93c                	sw	a5,80(a0)
 1000dd8:	bb67b7b7          	lui	a5,0xbb67b
 1000ddc:	e8578793          	addi	a5,a5,-379 # ffffffffbb67ae85 <fromhost+0xffffffff3b67ae45>
 1000de0:	c97c                	sw	a5,84(a0)
 1000de2:	3c6ef7b7          	lui	a5,0x3c6ef
 1000de6:	37278793          	addi	a5,a5,882 # 3c6ef372 <__global_pointer$+0x3b6eb67a>
 1000dea:	cd3c                	sw	a5,88(a0)
 1000dec:	a54ff7b7          	lui	a5,0xa54ff
 1000df0:	53a78793          	addi	a5,a5,1338 # ffffffffa54ff53a <fromhost+0xffffffff254ff4fa>
 1000df4:	cd7c                	sw	a5,92(a0)
 1000df6:	510e57b7          	lui	a5,0x510e5
 1000dfa:	27f78793          	addi	a5,a5,639 # 510e527f <__global_pointer$+0x500e1587>
 1000dfe:	d13c                	sw	a5,96(a0)
 1000e00:	9b0577b7          	lui	a5,0x9b057
 1000e04:	88c78793          	addi	a5,a5,-1908 # ffffffff9b05688c <fromhost+0xffffffff1b05684c>
 1000e08:	d17c                	sw	a5,100(a0)
 1000e0a:	1f83e7b7          	lui	a5,0x1f83e
 1000e0e:	9ab78793          	addi	a5,a5,-1621 # 1f83d9ab <__global_pointer$+0x1e839cb3>
 1000e12:	d53c                	sw	a5,104(a0)
 1000e14:	5be0d7b7          	lui	a5,0x5be0d
 1000e18:	d1978793          	addi	a5,a5,-743 # 5be0cd19 <__global_pointer$+0x5ae09021>
 1000e1c:	d57c                	sw	a5,108(a0)
 1000e1e:	8082                	ret

0000000001000e20 <sha256_update>:
 1000e20:	7179                	addi	sp,sp,-48
 1000e22:	f406                	sd	ra,40(sp)
 1000e24:	f022                	sd	s0,32(sp)
 1000e26:	ec26                	sd	s1,24(sp)
 1000e28:	e84a                	sd	s2,16(sp)
 1000e2a:	e44e                	sd	s3,8(sp)
 1000e2c:	842a                	mv	s0,a0
 1000e2e:	89ae                	mv	s3,a1
 1000e30:	8932                	mv	s2,a2
 1000e32:	4481                	li	s1,0
 1000e34:	a821                	j	1000e4c <sha256_update+0x2c>
 1000e36:	85a2                	mv	a1,s0
 1000e38:	8522                	mv	a0,s0
 1000e3a:	d2bff0ef          	jal	ra,1000b64 <sha256_transform>
 1000e3e:	643c                	ld	a5,72(s0)
 1000e40:	20078793          	addi	a5,a5,512
 1000e44:	e43c                	sd	a5,72(s0)
 1000e46:	04042023          	sw	zero,64(s0)
 1000e4a:	2485                	addiw	s1,s1,1
 1000e4c:	0009079b          	sext.w	a5,s2
 1000e50:	02f4f863          	bgeu	s1,a5,1000e80 <sha256_update+0x60>
 1000e54:	403c                	lw	a5,64(s0)
 1000e56:	02049713          	slli	a4,s1,0x20
 1000e5a:	9301                	srli	a4,a4,0x20
 1000e5c:	974e                	add	a4,a4,s3
 1000e5e:	00074683          	lbu	a3,0(a4)
 1000e62:	02079713          	slli	a4,a5,0x20
 1000e66:	9301                	srli	a4,a4,0x20
 1000e68:	9722                	add	a4,a4,s0
 1000e6a:	00d70023          	sb	a3,0(a4)
 1000e6e:	2785                	addiw	a5,a5,1
 1000e70:	0007871b          	sext.w	a4,a5
 1000e74:	c03c                	sw	a5,64(s0)
 1000e76:	04000793          	li	a5,64
 1000e7a:	fcf718e3          	bne	a4,a5,1000e4a <sha256_update+0x2a>
 1000e7e:	bf65                	j	1000e36 <sha256_update+0x16>
 1000e80:	70a2                	ld	ra,40(sp)
 1000e82:	7402                	ld	s0,32(sp)
 1000e84:	64e2                	ld	s1,24(sp)
 1000e86:	6942                	ld	s2,16(sp)
 1000e88:	69a2                	ld	s3,8(sp)
 1000e8a:	6145                	addi	sp,sp,48
 1000e8c:	8082                	ret

0000000001000e8e <sha256_final>:
 1000e8e:	1101                	addi	sp,sp,-32
 1000e90:	ec06                	sd	ra,24(sp)
 1000e92:	e822                	sd	s0,16(sp)
 1000e94:	e426                	sd	s1,8(sp)
 1000e96:	842a                	mv	s0,a0
 1000e98:	84ae                	mv	s1,a1
 1000e9a:	4138                	lw	a4,64(a0)
 1000e9c:	03700793          	li	a5,55
 1000ea0:	02e7e763          	bltu	a5,a4,1000ece <sha256_final+0x40>
 1000ea4:	0017079b          	addiw	a5,a4,1
 1000ea8:	1702                	slli	a4,a4,0x20
 1000eaa:	9301                	srli	a4,a4,0x20
 1000eac:	972a                	add	a4,a4,a0
 1000eae:	f8000693          	li	a3,-128
 1000eb2:	00d70023          	sb	a3,0(a4)
 1000eb6:	03700713          	li	a4,55
 1000eba:	04f76963          	bltu	a4,a5,1000f0c <sha256_final+0x7e>
 1000ebe:	02079713          	slli	a4,a5,0x20
 1000ec2:	9301                	srli	a4,a4,0x20
 1000ec4:	9722                	add	a4,a4,s0
 1000ec6:	00070023          	sb	zero,0(a4)
 1000eca:	2785                	addiw	a5,a5,1
 1000ecc:	b7ed                	j	1000eb6 <sha256_final+0x28>
 1000ece:	0017079b          	addiw	a5,a4,1
 1000ed2:	1702                	slli	a4,a4,0x20
 1000ed4:	9301                	srli	a4,a4,0x20
 1000ed6:	972a                	add	a4,a4,a0
 1000ed8:	f8000693          	li	a3,-128
 1000edc:	00d70023          	sb	a3,0(a4)
 1000ee0:	03f00713          	li	a4,63
 1000ee4:	00f76a63          	bltu	a4,a5,1000ef8 <sha256_final+0x6a>
 1000ee8:	02079713          	slli	a4,a5,0x20
 1000eec:	9301                	srli	a4,a4,0x20
 1000eee:	9722                	add	a4,a4,s0
 1000ef0:	00070023          	sb	zero,0(a4)
 1000ef4:	2785                	addiw	a5,a5,1
 1000ef6:	b7ed                	j	1000ee0 <sha256_final+0x52>
 1000ef8:	85a2                	mv	a1,s0
 1000efa:	8522                	mv	a0,s0
 1000efc:	c69ff0ef          	jal	ra,1000b64 <sha256_transform>
 1000f00:	03800613          	li	a2,56
 1000f04:	4581                	li	a1,0
 1000f06:	8522                	mv	a0,s0
 1000f08:	0fe020ef          	jal	ra,1003006 <memset>
 1000f0c:	403c                	lw	a5,64(s0)
 1000f0e:	0037979b          	slliw	a5,a5,0x3
 1000f12:	1782                	slli	a5,a5,0x20
 1000f14:	9381                	srli	a5,a5,0x20
 1000f16:	6438                	ld	a4,72(s0)
 1000f18:	97ba                	add	a5,a5,a4
 1000f1a:	e43c                	sd	a5,72(s0)
 1000f1c:	02f40fa3          	sb	a5,63(s0)
 1000f20:	0087d713          	srli	a4,a5,0x8
 1000f24:	02e40f23          	sb	a4,62(s0)
 1000f28:	0107d713          	srli	a4,a5,0x10
 1000f2c:	02e40ea3          	sb	a4,61(s0)
 1000f30:	0187d713          	srli	a4,a5,0x18
 1000f34:	02e40e23          	sb	a4,60(s0)
 1000f38:	0207d713          	srli	a4,a5,0x20
 1000f3c:	02e40da3          	sb	a4,59(s0)
 1000f40:	0287d713          	srli	a4,a5,0x28
 1000f44:	02e40d23          	sb	a4,58(s0)
 1000f48:	0307d713          	srli	a4,a5,0x30
 1000f4c:	02e40ca3          	sb	a4,57(s0)
 1000f50:	93e1                	srli	a5,a5,0x38
 1000f52:	02f40c23          	sb	a5,56(s0)
 1000f56:	85a2                	mv	a1,s0
 1000f58:	8522                	mv	a0,s0
 1000f5a:	c0bff0ef          	jal	ra,1000b64 <sha256_transform>
 1000f5e:	4701                	li	a4,0
 1000f60:	a06d                	j	100100a <sha256_final+0x17c>
 1000f62:	4830                	lw	a2,80(s0)
 1000f64:	478d                	li	a5,3
 1000f66:	9f99                	subw	a5,a5,a4
 1000f68:	0037979b          	slliw	a5,a5,0x3
 1000f6c:	00f6563b          	srlw	a2,a2,a5
 1000f70:	02071693          	slli	a3,a4,0x20
 1000f74:	9281                	srli	a3,a3,0x20
 1000f76:	96a6                	add	a3,a3,s1
 1000f78:	00c68023          	sb	a2,0(a3)
 1000f7c:	4870                	lw	a2,84(s0)
 1000f7e:	00f6563b          	srlw	a2,a2,a5
 1000f82:	0047069b          	addiw	a3,a4,4
 1000f86:	1682                	slli	a3,a3,0x20
 1000f88:	9281                	srli	a3,a3,0x20
 1000f8a:	96a6                	add	a3,a3,s1
 1000f8c:	00c68023          	sb	a2,0(a3)
 1000f90:	4c30                	lw	a2,88(s0)
 1000f92:	00f6563b          	srlw	a2,a2,a5
 1000f96:	0087069b          	addiw	a3,a4,8
 1000f9a:	1682                	slli	a3,a3,0x20
 1000f9c:	9281                	srli	a3,a3,0x20
 1000f9e:	96a6                	add	a3,a3,s1
 1000fa0:	00c68023          	sb	a2,0(a3)
 1000fa4:	4c70                	lw	a2,92(s0)
 1000fa6:	00f6563b          	srlw	a2,a2,a5
 1000faa:	00c7069b          	addiw	a3,a4,12
 1000fae:	1682                	slli	a3,a3,0x20
 1000fb0:	9281                	srli	a3,a3,0x20
 1000fb2:	96a6                	add	a3,a3,s1
 1000fb4:	00c68023          	sb	a2,0(a3)
 1000fb8:	5030                	lw	a2,96(s0)
 1000fba:	00f6563b          	srlw	a2,a2,a5
 1000fbe:	0107069b          	addiw	a3,a4,16
 1000fc2:	1682                	slli	a3,a3,0x20
 1000fc4:	9281                	srli	a3,a3,0x20
 1000fc6:	96a6                	add	a3,a3,s1
 1000fc8:	00c68023          	sb	a2,0(a3)
 1000fcc:	5070                	lw	a2,100(s0)
 1000fce:	00f6563b          	srlw	a2,a2,a5
 1000fd2:	0147069b          	addiw	a3,a4,20
 1000fd6:	1682                	slli	a3,a3,0x20
 1000fd8:	9281                	srli	a3,a3,0x20
 1000fda:	96a6                	add	a3,a3,s1
 1000fdc:	00c68023          	sb	a2,0(a3)
 1000fe0:	5430                	lw	a2,104(s0)
 1000fe2:	00f6563b          	srlw	a2,a2,a5
 1000fe6:	0187069b          	addiw	a3,a4,24
 1000fea:	1682                	slli	a3,a3,0x20
 1000fec:	9281                	srli	a3,a3,0x20
 1000fee:	96a6                	add	a3,a3,s1
 1000ff0:	00c68023          	sb	a2,0(a3)
 1000ff4:	5474                	lw	a3,108(s0)
 1000ff6:	00f6d7bb          	srlw	a5,a3,a5
 1000ffa:	01c7069b          	addiw	a3,a4,28
 1000ffe:	1682                	slli	a3,a3,0x20
 1001000:	9281                	srli	a3,a3,0x20
 1001002:	96a6                	add	a3,a3,s1
 1001004:	00f68023          	sb	a5,0(a3)
 1001008:	2705                	addiw	a4,a4,1
 100100a:	478d                	li	a5,3
 100100c:	f4e7fbe3          	bgeu	a5,a4,1000f62 <sha256_final+0xd4>
 1001010:	60e2                	ld	ra,24(sp)
 1001012:	6442                	ld	s0,16(sp)
 1001014:	64a2                	ld	s1,8(sp)
 1001016:	6105                	addi	sp,sp,32
 1001018:	8082                	ret

000000000100101a <BN_cmp_abs>:
 100101a:	02100793          	li	a5,33
 100101e:	cb91                	beqz	a5,1001032 <BN_cmp_abs+0x18>
 1001020:	fff78693          	addi	a3,a5,-1
 1001024:	00369713          	slli	a4,a3,0x3
 1001028:	972a                	add	a4,a4,a0
 100102a:	6718                	ld	a4,8(a4)
 100102c:	e711                	bnez	a4,1001038 <BN_cmp_abs+0x1e>
 100102e:	87b6                	mv	a5,a3
 1001030:	b7fd                	j	100101e <BN_cmp_abs+0x4>
 1001032:	02100693          	li	a3,33
 1001036:	a019                	j	100103c <BN_cmp_abs+0x22>
 1001038:	02100693          	li	a3,33
 100103c:	ca91                	beqz	a3,1001050 <BN_cmp_abs+0x36>
 100103e:	fff68613          	addi	a2,a3,-1
 1001042:	00361713          	slli	a4,a2,0x3
 1001046:	972e                	add	a4,a4,a1
 1001048:	6718                	ld	a4,8(a4)
 100104a:	e319                	bnez	a4,1001050 <BN_cmp_abs+0x36>
 100104c:	86b2                	mv	a3,a2
 100104e:	b7fd                	j	100103c <BN_cmp_abs+0x22>
 1001050:	00d7e733          	or	a4,a5,a3
 1001054:	c715                	beqz	a4,1001080 <BN_cmp_abs+0x66>
 1001056:	02f6e763          	bltu	a3,a5,1001084 <BN_cmp_abs+0x6a>
 100105a:	02d7e763          	bltu	a5,a3,1001088 <BN_cmp_abs+0x6e>
 100105e:	cf99                	beqz	a5,100107c <BN_cmp_abs+0x62>
 1001060:	17fd                	addi	a5,a5,-1
 1001062:	00379713          	slli	a4,a5,0x3
 1001066:	00e506b3          	add	a3,a0,a4
 100106a:	6694                	ld	a3,8(a3)
 100106c:	972e                	add	a4,a4,a1
 100106e:	6718                	ld	a4,8(a4)
 1001070:	00d76e63          	bltu	a4,a3,100108c <BN_cmp_abs+0x72>
 1001074:	fee6f5e3          	bgeu	a3,a4,100105e <BN_cmp_abs+0x44>
 1001078:	557d                	li	a0,-1
 100107a:	8082                	ret
 100107c:	4501                	li	a0,0
 100107e:	8082                	ret
 1001080:	4501                	li	a0,0
 1001082:	8082                	ret
 1001084:	4505                	li	a0,1
 1001086:	8082                	ret
 1001088:	557d                	li	a0,-1
 100108a:	8082                	ret
 100108c:	4505                	li	a0,1
 100108e:	8082                	ret

0000000001001090 <BN_sub_hlp>:
 1001090:	4781                	li	a5,0
 1001092:	4681                	li	a3,0
 1001094:	02a6fa63          	bgeu	a3,a0,10010c8 <BN_sub_hlp+0x38>
 1001098:	6218                	ld	a4,0(a2)
 100109a:	00f738b3          	sltu	a7,a4,a5
 100109e:	8f1d                	sub	a4,a4,a5
 10010a0:	e218                	sd	a4,0(a2)
 10010a2:	0005b803          	ld	a6,0(a1)
 10010a6:	010737b3          	sltu	a5,a4,a6
 10010aa:	97c6                	add	a5,a5,a7
 10010ac:	41070733          	sub	a4,a4,a6
 10010b0:	e218                	sd	a4,0(a2)
 10010b2:	0685                	addi	a3,a3,1
 10010b4:	05a1                	addi	a1,a1,8
 10010b6:	0621                	addi	a2,a2,8
 10010b8:	bff1                	j	1001094 <BN_sub_hlp+0x4>
 10010ba:	6218                	ld	a4,0(a2)
 10010bc:	40f706b3          	sub	a3,a4,a5
 10010c0:	e214                	sd	a3,0(a2)
 10010c2:	0621                	addi	a2,a2,8
 10010c4:	00f737b3          	sltu	a5,a4,a5
 10010c8:	fbed                	bnez	a5,10010ba <BN_sub_hlp+0x2a>
 10010ca:	8082                	ret

00000000010010cc <BN_lset>:
 10010cc:	41f5d71b          	sraiw	a4,a1,0x1f
 10010d0:	00e5c7b3          	xor	a5,a1,a4
 10010d4:	9f99                	subw	a5,a5,a4
 10010d6:	e51c                	sd	a5,8(a0)
 10010d8:	0005c563          	bltz	a1,10010e2 <BN_lset+0x16>
 10010dc:	4785                	li	a5,1
 10010de:	c11c                	sw	a5,0(a0)
 10010e0:	8082                	ret
 10010e2:	57fd                	li	a5,-1
 10010e4:	bfed                	j	10010de <BN_lset+0x12>

00000000010010e6 <BN_mul_hlp>:
 10010e6:	4881                	li	a7,0
 10010e8:	47bd                	li	a5,15
 10010ea:	00a7f2e3          	bgeu	a5,a0,10018ee <BN_mul_hlp+0x808>
 10010ee:	577d                	li	a4,-1
 10010f0:	9301                	srli	a4,a4,0x20
 10010f2:	00e6f7b3          	and	a5,a3,a4
 10010f6:	0206d813          	srli	a6,a3,0x20
 10010fa:	0005bf03          	ld	t5,0(a1)
 10010fe:	00ef7333          	and	t1,t5,a4
 1001102:	020f5f13          	srli	t5,t5,0x20
 1001106:	02680eb3          	mul	t4,a6,t1
 100110a:	02678333          	mul	t1,a5,t1
 100110e:	03e78e33          	mul	t3,a5,t5
 1001112:	03e80f33          	mul	t5,a6,t5
 1001116:	020edf93          	srli	t6,t4,0x20
 100111a:	9ffa                	add	t6,t6,t5
 100111c:	020e5f13          	srli	t5,t3,0x20
 1001120:	9f7e                	add	t5,t5,t6
 1001122:	1e82                	slli	t4,t4,0x20
 1001124:	1e02                	slli	t3,t3,0x20
 1001126:	9376                	add	t1,t1,t4
 1001128:	01d33eb3          	sltu	t4,t1,t4
 100112c:	9efa                	add	t4,t4,t5
 100112e:	9372                	add	t1,t1,t3
 1001130:	01c33e33          	sltu	t3,t1,t3
 1001134:	9e76                	add	t3,t3,t4
 1001136:	9346                	add	t1,t1,a7
 1001138:	011338b3          	sltu	a7,t1,a7
 100113c:	9e46                	add	t3,t3,a7
 100113e:	00063f03          	ld	t5,0(a2)
 1001142:	937a                	add	t1,t1,t5
 1001144:	01e33f33          	sltu	t5,t1,t5
 1001148:	01cf0eb3          	add	t4,t5,t3
 100114c:	00663023          	sd	t1,0(a2)
 1001150:	0085bf03          	ld	t5,8(a1)
 1001154:	00ef78b3          	and	a7,t5,a4
 1001158:	020f5f13          	srli	t5,t5,0x20
 100115c:	03180e33          	mul	t3,a6,a7
 1001160:	031788b3          	mul	a7,a5,a7
 1001164:	03e78333          	mul	t1,a5,t5
 1001168:	03e80f33          	mul	t5,a6,t5
 100116c:	020e5f93          	srli	t6,t3,0x20
 1001170:	9ffa                	add	t6,t6,t5
 1001172:	02035f13          	srli	t5,t1,0x20
 1001176:	9f7e                	add	t5,t5,t6
 1001178:	1e02                	slli	t3,t3,0x20
 100117a:	1302                	slli	t1,t1,0x20
 100117c:	98f2                	add	a7,a7,t3
 100117e:	01c8be33          	sltu	t3,a7,t3
 1001182:	9e7a                	add	t3,t3,t5
 1001184:	989a                	add	a7,a7,t1
 1001186:	0068b333          	sltu	t1,a7,t1
 100118a:	9372                	add	t1,t1,t3
 100118c:	98f6                	add	a7,a7,t4
 100118e:	01d8be33          	sltu	t3,a7,t4
 1001192:	9372                	add	t1,t1,t3
 1001194:	00863e03          	ld	t3,8(a2)
 1001198:	98f2                	add	a7,a7,t3
 100119a:	01c8be33          	sltu	t3,a7,t3
 100119e:	9e1a                	add	t3,t3,t1
 10011a0:	01163423          	sd	a7,8(a2)
 10011a4:	0105bf03          	ld	t5,16(a1)
 10011a8:	00ef78b3          	and	a7,t5,a4
 10011ac:	020f5f13          	srli	t5,t5,0x20
 10011b0:	03180333          	mul	t1,a6,a7
 10011b4:	031788b3          	mul	a7,a5,a7
 10011b8:	03e78eb3          	mul	t4,a5,t5
 10011bc:	03e80f33          	mul	t5,a6,t5
 10011c0:	02035f93          	srli	t6,t1,0x20
 10011c4:	9ffa                	add	t6,t6,t5
 10011c6:	020edf13          	srli	t5,t4,0x20
 10011ca:	9f7e                	add	t5,t5,t6
 10011cc:	1302                	slli	t1,t1,0x20
 10011ce:	1e82                	slli	t4,t4,0x20
 10011d0:	989a                	add	a7,a7,t1
 10011d2:	0068b333          	sltu	t1,a7,t1
 10011d6:	937a                	add	t1,t1,t5
 10011d8:	98f6                	add	a7,a7,t4
 10011da:	01d8beb3          	sltu	t4,a7,t4
 10011de:	9e9a                	add	t4,t4,t1
 10011e0:	98f2                	add	a7,a7,t3
 10011e2:	01c8b333          	sltu	t1,a7,t3
 10011e6:	9e9a                	add	t4,t4,t1
 10011e8:	01063303          	ld	t1,16(a2)
 10011ec:	989a                	add	a7,a7,t1
 10011ee:	0068b333          	sltu	t1,a7,t1
 10011f2:	9376                	add	t1,t1,t4
 10011f4:	01163823          	sd	a7,16(a2)
 10011f8:	0185bf03          	ld	t5,24(a1)
 10011fc:	00ef78b3          	and	a7,t5,a4
 1001200:	020f5f13          	srli	t5,t5,0x20
 1001204:	03180e33          	mul	t3,a6,a7
 1001208:	031788b3          	mul	a7,a5,a7
 100120c:	03e78eb3          	mul	t4,a5,t5
 1001210:	03e80f33          	mul	t5,a6,t5
 1001214:	020e5f93          	srli	t6,t3,0x20
 1001218:	9ffa                	add	t6,t6,t5
 100121a:	020edf13          	srli	t5,t4,0x20
 100121e:	9f7e                	add	t5,t5,t6
 1001220:	1e02                	slli	t3,t3,0x20
 1001222:	1e82                	slli	t4,t4,0x20
 1001224:	98f2                	add	a7,a7,t3
 1001226:	01c8be33          	sltu	t3,a7,t3
 100122a:	9e7a                	add	t3,t3,t5
 100122c:	98f6                	add	a7,a7,t4
 100122e:	01d8beb3          	sltu	t4,a7,t4
 1001232:	9ef2                	add	t4,t4,t3
 1001234:	989a                	add	a7,a7,t1
 1001236:	0068be33          	sltu	t3,a7,t1
 100123a:	9ef2                	add	t4,t4,t3
 100123c:	01863e03          	ld	t3,24(a2)
 1001240:	98f2                	add	a7,a7,t3
 1001242:	01c8be33          	sltu	t3,a7,t3
 1001246:	9e76                	add	t3,t3,t4
 1001248:	01163c23          	sd	a7,24(a2)
 100124c:	0205bf03          	ld	t5,32(a1)
 1001250:	00ef78b3          	and	a7,t5,a4
 1001254:	020f5f13          	srli	t5,t5,0x20
 1001258:	03180333          	mul	t1,a6,a7
 100125c:	031788b3          	mul	a7,a5,a7
 1001260:	03e78eb3          	mul	t4,a5,t5
 1001264:	03e80f33          	mul	t5,a6,t5
 1001268:	02035f93          	srli	t6,t1,0x20
 100126c:	9ffa                	add	t6,t6,t5
 100126e:	020edf13          	srli	t5,t4,0x20
 1001272:	9f7e                	add	t5,t5,t6
 1001274:	1302                	slli	t1,t1,0x20
 1001276:	1e82                	slli	t4,t4,0x20
 1001278:	989a                	add	a7,a7,t1
 100127a:	0068b333          	sltu	t1,a7,t1
 100127e:	937a                	add	t1,t1,t5
 1001280:	98f6                	add	a7,a7,t4
 1001282:	01d8beb3          	sltu	t4,a7,t4
 1001286:	9e9a                	add	t4,t4,t1
 1001288:	98f2                	add	a7,a7,t3
 100128a:	01c8b333          	sltu	t1,a7,t3
 100128e:	9e9a                	add	t4,t4,t1
 1001290:	02063303          	ld	t1,32(a2)
 1001294:	989a                	add	a7,a7,t1
 1001296:	0068b333          	sltu	t1,a7,t1
 100129a:	9376                	add	t1,t1,t4
 100129c:	03163023          	sd	a7,32(a2)
 10012a0:	0285bf03          	ld	t5,40(a1)
 10012a4:	00ef78b3          	and	a7,t5,a4
 10012a8:	020f5f13          	srli	t5,t5,0x20
 10012ac:	03180e33          	mul	t3,a6,a7
 10012b0:	031788b3          	mul	a7,a5,a7
 10012b4:	03e78eb3          	mul	t4,a5,t5
 10012b8:	03e80f33          	mul	t5,a6,t5
 10012bc:	020e5f93          	srli	t6,t3,0x20
 10012c0:	9ffa                	add	t6,t6,t5
 10012c2:	020edf13          	srli	t5,t4,0x20
 10012c6:	9f7e                	add	t5,t5,t6
 10012c8:	1e02                	slli	t3,t3,0x20
 10012ca:	1e82                	slli	t4,t4,0x20
 10012cc:	98f2                	add	a7,a7,t3
 10012ce:	01c8be33          	sltu	t3,a7,t3
 10012d2:	9e7a                	add	t3,t3,t5
 10012d4:	98f6                	add	a7,a7,t4
 10012d6:	01d8beb3          	sltu	t4,a7,t4
 10012da:	9ef2                	add	t4,t4,t3
 10012dc:	989a                	add	a7,a7,t1
 10012de:	0068be33          	sltu	t3,a7,t1
 10012e2:	9ef2                	add	t4,t4,t3
 10012e4:	02863e03          	ld	t3,40(a2)
 10012e8:	98f2                	add	a7,a7,t3
 10012ea:	01c8be33          	sltu	t3,a7,t3
 10012ee:	9e76                	add	t3,t3,t4
 10012f0:	03163423          	sd	a7,40(a2)
 10012f4:	0305bf03          	ld	t5,48(a1)
 10012f8:	00ef78b3          	and	a7,t5,a4
 10012fc:	020f5f13          	srli	t5,t5,0x20
 1001300:	03180333          	mul	t1,a6,a7
 1001304:	031788b3          	mul	a7,a5,a7
 1001308:	03e78eb3          	mul	t4,a5,t5
 100130c:	03e80f33          	mul	t5,a6,t5
 1001310:	02035f93          	srli	t6,t1,0x20
 1001314:	9ffa                	add	t6,t6,t5
 1001316:	020edf13          	srli	t5,t4,0x20
 100131a:	9f7e                	add	t5,t5,t6
 100131c:	1302                	slli	t1,t1,0x20
 100131e:	1e82                	slli	t4,t4,0x20
 1001320:	989a                	add	a7,a7,t1
 1001322:	0068b333          	sltu	t1,a7,t1
 1001326:	937a                	add	t1,t1,t5
 1001328:	98f6                	add	a7,a7,t4
 100132a:	01d8beb3          	sltu	t4,a7,t4
 100132e:	9e9a                	add	t4,t4,t1
 1001330:	98f2                	add	a7,a7,t3
 1001332:	01c8b333          	sltu	t1,a7,t3
 1001336:	9e9a                	add	t4,t4,t1
 1001338:	03063303          	ld	t1,48(a2)
 100133c:	989a                	add	a7,a7,t1
 100133e:	0068b333          	sltu	t1,a7,t1
 1001342:	9376                	add	t1,t1,t4
 1001344:	03163823          	sd	a7,48(a2)
 1001348:	0385bf03          	ld	t5,56(a1)
 100134c:	00ef78b3          	and	a7,t5,a4
 1001350:	020f5f13          	srli	t5,t5,0x20
 1001354:	03180e33          	mul	t3,a6,a7
 1001358:	031788b3          	mul	a7,a5,a7
 100135c:	03e78eb3          	mul	t4,a5,t5
 1001360:	03e80f33          	mul	t5,a6,t5
 1001364:	020e5f93          	srli	t6,t3,0x20
 1001368:	9ffa                	add	t6,t6,t5
 100136a:	020edf13          	srli	t5,t4,0x20
 100136e:	9f7e                	add	t5,t5,t6
 1001370:	1e02                	slli	t3,t3,0x20
 1001372:	1e82                	slli	t4,t4,0x20
 1001374:	98f2                	add	a7,a7,t3
 1001376:	01c8be33          	sltu	t3,a7,t3
 100137a:	9e7a                	add	t3,t3,t5
 100137c:	98f6                	add	a7,a7,t4
 100137e:	01d8beb3          	sltu	t4,a7,t4
 1001382:	9ef2                	add	t4,t4,t3
 1001384:	989a                	add	a7,a7,t1
 1001386:	0068be33          	sltu	t3,a7,t1
 100138a:	9ef2                	add	t4,t4,t3
 100138c:	03863e03          	ld	t3,56(a2)
 1001390:	98f2                	add	a7,a7,t3
 1001392:	01c8be33          	sltu	t3,a7,t3
 1001396:	9e76                	add	t3,t3,t4
 1001398:	03163c23          	sd	a7,56(a2)
 100139c:	0405bf03          	ld	t5,64(a1)
 10013a0:	00ef78b3          	and	a7,t5,a4
 10013a4:	020f5f13          	srli	t5,t5,0x20
 10013a8:	03180333          	mul	t1,a6,a7
 10013ac:	031788b3          	mul	a7,a5,a7
 10013b0:	03e78eb3          	mul	t4,a5,t5
 10013b4:	03e80f33          	mul	t5,a6,t5
 10013b8:	02035f93          	srli	t6,t1,0x20
 10013bc:	9ffa                	add	t6,t6,t5
 10013be:	020edf13          	srli	t5,t4,0x20
 10013c2:	9f7e                	add	t5,t5,t6
 10013c4:	1302                	slli	t1,t1,0x20
 10013c6:	1e82                	slli	t4,t4,0x20
 10013c8:	989a                	add	a7,a7,t1
 10013ca:	0068b333          	sltu	t1,a7,t1
 10013ce:	937a                	add	t1,t1,t5
 10013d0:	98f6                	add	a7,a7,t4
 10013d2:	01d8beb3          	sltu	t4,a7,t4
 10013d6:	9e9a                	add	t4,t4,t1
 10013d8:	98f2                	add	a7,a7,t3
 10013da:	01c8b333          	sltu	t1,a7,t3
 10013de:	9e9a                	add	t4,t4,t1
 10013e0:	04063303          	ld	t1,64(a2)
 10013e4:	989a                	add	a7,a7,t1
 10013e6:	0068b333          	sltu	t1,a7,t1
 10013ea:	9376                	add	t1,t1,t4
 10013ec:	05163023          	sd	a7,64(a2)
 10013f0:	0485bf03          	ld	t5,72(a1)
 10013f4:	00ef78b3          	and	a7,t5,a4
 10013f8:	020f5f13          	srli	t5,t5,0x20
 10013fc:	03180e33          	mul	t3,a6,a7
 1001400:	031788b3          	mul	a7,a5,a7
 1001404:	03e78eb3          	mul	t4,a5,t5
 1001408:	03e80f33          	mul	t5,a6,t5
 100140c:	020e5f93          	srli	t6,t3,0x20
 1001410:	9ffa                	add	t6,t6,t5
 1001412:	020edf13          	srli	t5,t4,0x20
 1001416:	9f7e                	add	t5,t5,t6
 1001418:	1e02                	slli	t3,t3,0x20
 100141a:	1e82                	slli	t4,t4,0x20
 100141c:	98f2                	add	a7,a7,t3
 100141e:	01c8be33          	sltu	t3,a7,t3
 1001422:	9e7a                	add	t3,t3,t5
 1001424:	98f6                	add	a7,a7,t4
 1001426:	01d8beb3          	sltu	t4,a7,t4
 100142a:	9ef2                	add	t4,t4,t3
 100142c:	989a                	add	a7,a7,t1
 100142e:	0068be33          	sltu	t3,a7,t1
 1001432:	9ef2                	add	t4,t4,t3
 1001434:	04863e03          	ld	t3,72(a2)
 1001438:	98f2                	add	a7,a7,t3
 100143a:	01c8be33          	sltu	t3,a7,t3
 100143e:	9e76                	add	t3,t3,t4
 1001440:	05163423          	sd	a7,72(a2)
 1001444:	0505bf03          	ld	t5,80(a1)
 1001448:	00ef78b3          	and	a7,t5,a4
 100144c:	020f5f13          	srli	t5,t5,0x20
 1001450:	03180333          	mul	t1,a6,a7
 1001454:	031788b3          	mul	a7,a5,a7
 1001458:	03e78eb3          	mul	t4,a5,t5
 100145c:	03e80f33          	mul	t5,a6,t5
 1001460:	02035f93          	srli	t6,t1,0x20
 1001464:	9ffa                	add	t6,t6,t5
 1001466:	020edf13          	srli	t5,t4,0x20
 100146a:	9f7e                	add	t5,t5,t6
 100146c:	1302                	slli	t1,t1,0x20
 100146e:	1e82                	slli	t4,t4,0x20
 1001470:	989a                	add	a7,a7,t1
 1001472:	0068b333          	sltu	t1,a7,t1
 1001476:	937a                	add	t1,t1,t5
 1001478:	98f6                	add	a7,a7,t4
 100147a:	01d8beb3          	sltu	t4,a7,t4
 100147e:	9e9a                	add	t4,t4,t1
 1001480:	98f2                	add	a7,a7,t3
 1001482:	01c8b333          	sltu	t1,a7,t3
 1001486:	9e9a                	add	t4,t4,t1
 1001488:	05063303          	ld	t1,80(a2)
 100148c:	989a                	add	a7,a7,t1
 100148e:	0068b333          	sltu	t1,a7,t1
 1001492:	9376                	add	t1,t1,t4
 1001494:	05163823          	sd	a7,80(a2)
 1001498:	0585bf03          	ld	t5,88(a1)
 100149c:	00ef78b3          	and	a7,t5,a4
 10014a0:	020f5f13          	srli	t5,t5,0x20
 10014a4:	03180e33          	mul	t3,a6,a7
 10014a8:	031788b3          	mul	a7,a5,a7
 10014ac:	03e78eb3          	mul	t4,a5,t5
 10014b0:	03e80f33          	mul	t5,a6,t5
 10014b4:	020e5f93          	srli	t6,t3,0x20
 10014b8:	9ffa                	add	t6,t6,t5
 10014ba:	020edf13          	srli	t5,t4,0x20
 10014be:	9f7e                	add	t5,t5,t6
 10014c0:	1e02                	slli	t3,t3,0x20
 10014c2:	1e82                	slli	t4,t4,0x20
 10014c4:	98f2                	add	a7,a7,t3
 10014c6:	01c8be33          	sltu	t3,a7,t3
 10014ca:	9e7a                	add	t3,t3,t5
 10014cc:	98f6                	add	a7,a7,t4
 10014ce:	01d8beb3          	sltu	t4,a7,t4
 10014d2:	9ef2                	add	t4,t4,t3
 10014d4:	989a                	add	a7,a7,t1
 10014d6:	0068be33          	sltu	t3,a7,t1
 10014da:	9ef2                	add	t4,t4,t3
 10014dc:	05863e03          	ld	t3,88(a2)
 10014e0:	98f2                	add	a7,a7,t3
 10014e2:	01c8be33          	sltu	t3,a7,t3
 10014e6:	9e76                	add	t3,t3,t4
 10014e8:	05163c23          	sd	a7,88(a2)
 10014ec:	0605bf03          	ld	t5,96(a1)
 10014f0:	00ef78b3          	and	a7,t5,a4
 10014f4:	020f5f13          	srli	t5,t5,0x20
 10014f8:	03180333          	mul	t1,a6,a7
 10014fc:	031788b3          	mul	a7,a5,a7
 1001500:	03e78eb3          	mul	t4,a5,t5
 1001504:	03e80f33          	mul	t5,a6,t5
 1001508:	02035f93          	srli	t6,t1,0x20
 100150c:	9ffa                	add	t6,t6,t5
 100150e:	020edf13          	srli	t5,t4,0x20
 1001512:	9f7e                	add	t5,t5,t6
 1001514:	1302                	slli	t1,t1,0x20
 1001516:	1e82                	slli	t4,t4,0x20
 1001518:	989a                	add	a7,a7,t1
 100151a:	0068b333          	sltu	t1,a7,t1
 100151e:	937a                	add	t1,t1,t5
 1001520:	98f6                	add	a7,a7,t4
 1001522:	01d8beb3          	sltu	t4,a7,t4
 1001526:	9e9a                	add	t4,t4,t1
 1001528:	98f2                	add	a7,a7,t3
 100152a:	01c8b333          	sltu	t1,a7,t3
 100152e:	9e9a                	add	t4,t4,t1
 1001530:	06063303          	ld	t1,96(a2)
 1001534:	989a                	add	a7,a7,t1
 1001536:	0068b333          	sltu	t1,a7,t1
 100153a:	9376                	add	t1,t1,t4
 100153c:	07163023          	sd	a7,96(a2)
 1001540:	0685bf03          	ld	t5,104(a1)
 1001544:	00ef78b3          	and	a7,t5,a4
 1001548:	020f5f13          	srli	t5,t5,0x20
 100154c:	03180e33          	mul	t3,a6,a7
 1001550:	031788b3          	mul	a7,a5,a7
 1001554:	03e78eb3          	mul	t4,a5,t5
 1001558:	03e80f33          	mul	t5,a6,t5
 100155c:	020e5f93          	srli	t6,t3,0x20
 1001560:	9ffa                	add	t6,t6,t5
 1001562:	020edf13          	srli	t5,t4,0x20
 1001566:	9f7e                	add	t5,t5,t6
 1001568:	1e02                	slli	t3,t3,0x20
 100156a:	1e82                	slli	t4,t4,0x20
 100156c:	98f2                	add	a7,a7,t3
 100156e:	01c8be33          	sltu	t3,a7,t3
 1001572:	9e7a                	add	t3,t3,t5
 1001574:	98f6                	add	a7,a7,t4
 1001576:	01d8beb3          	sltu	t4,a7,t4
 100157a:	9ef2                	add	t4,t4,t3
 100157c:	989a                	add	a7,a7,t1
 100157e:	0068be33          	sltu	t3,a7,t1
 1001582:	9ef2                	add	t4,t4,t3
 1001584:	06863e03          	ld	t3,104(a2)
 1001588:	98f2                	add	a7,a7,t3
 100158a:	01c8be33          	sltu	t3,a7,t3
 100158e:	9e76                	add	t3,t3,t4
 1001590:	07163423          	sd	a7,104(a2)
 1001594:	0705bf03          	ld	t5,112(a1)
 1001598:	00ef7333          	and	t1,t5,a4
 100159c:	020f5f13          	srli	t5,t5,0x20
 10015a0:	026808b3          	mul	a7,a6,t1
 10015a4:	02678333          	mul	t1,a5,t1
 10015a8:	03e78eb3          	mul	t4,a5,t5
 10015ac:	03e80f33          	mul	t5,a6,t5
 10015b0:	0208df93          	srli	t6,a7,0x20
 10015b4:	9ffa                	add	t6,t6,t5
 10015b6:	020edf13          	srli	t5,t4,0x20
 10015ba:	9f7e                	add	t5,t5,t6
 10015bc:	1882                	slli	a7,a7,0x20
 10015be:	1e82                	slli	t4,t4,0x20
 10015c0:	9346                	add	t1,t1,a7
 10015c2:	011338b3          	sltu	a7,t1,a7
 10015c6:	98fa                	add	a7,a7,t5
 10015c8:	9376                	add	t1,t1,t4
 10015ca:	01d33eb3          	sltu	t4,t1,t4
 10015ce:	9ec6                	add	t4,t4,a7
 10015d0:	9372                	add	t1,t1,t3
 10015d2:	01c338b3          	sltu	a7,t1,t3
 10015d6:	9ec6                	add	t4,t4,a7
 10015d8:	07063883          	ld	a7,112(a2)
 10015dc:	9346                	add	t1,t1,a7
 10015de:	011338b3          	sltu	a7,t1,a7
 10015e2:	98f6                	add	a7,a7,t4
 10015e4:	06663823          	sd	t1,112(a2)
 10015e8:	0785be03          	ld	t3,120(a1)
 10015ec:	00ee7733          	and	a4,t3,a4
 10015f0:	020e5e13          	srli	t3,t3,0x20
 10015f4:	08058593          	addi	a1,a1,128
 10015f8:	02e80333          	mul	t1,a6,a4
 10015fc:	02e78733          	mul	a4,a5,a4
 1001600:	03c787b3          	mul	a5,a5,t3
 1001604:	03c80833          	mul	a6,a6,t3
 1001608:	02035e13          	srli	t3,t1,0x20
 100160c:	9e42                	add	t3,t3,a6
 100160e:	0207d813          	srli	a6,a5,0x20
 1001612:	9872                	add	a6,a6,t3
 1001614:	1302                	slli	t1,t1,0x20
 1001616:	1782                	slli	a5,a5,0x20
 1001618:	971a                	add	a4,a4,t1
 100161a:	00673333          	sltu	t1,a4,t1
 100161e:	9342                	add	t1,t1,a6
 1001620:	973e                	add	a4,a4,a5
 1001622:	00f737b3          	sltu	a5,a4,a5
 1001626:	979a                	add	a5,a5,t1
 1001628:	9746                	add	a4,a4,a7
 100162a:	011738b3          	sltu	a7,a4,a7
 100162e:	97c6                	add	a5,a5,a7
 1001630:	07863883          	ld	a7,120(a2)
 1001634:	9746                	add	a4,a4,a7
 1001636:	011738b3          	sltu	a7,a4,a7
 100163a:	98be                	add	a7,a7,a5
 100163c:	fe38                	sd	a4,120(a2)
 100163e:	1541                	addi	a0,a0,-16
 1001640:	08060613          	addi	a2,a2,128
 1001644:	b455                	j	10010e8 <BN_mul_hlp+0x2>
 1001646:	577d                	li	a4,-1
 1001648:	9301                	srli	a4,a4,0x20
 100164a:	00e6f833          	and	a6,a3,a4
 100164e:	0206d313          	srli	t1,a3,0x20
 1001652:	0005bf03          	ld	t5,0(a1)
 1001656:	00ef7e33          	and	t3,t5,a4
 100165a:	020f5f13          	srli	t5,t5,0x20
 100165e:	03c30eb3          	mul	t4,t1,t3
 1001662:	03c80e33          	mul	t3,a6,t3
 1001666:	03e807b3          	mul	a5,a6,t5
 100166a:	03e30f33          	mul	t5,t1,t5
 100166e:	020edf93          	srli	t6,t4,0x20
 1001672:	9ffa                	add	t6,t6,t5
 1001674:	0207df13          	srli	t5,a5,0x20
 1001678:	9f7e                	add	t5,t5,t6
 100167a:	1e82                	slli	t4,t4,0x20
 100167c:	1782                	slli	a5,a5,0x20
 100167e:	9e76                	add	t3,t3,t4
 1001680:	01de3eb3          	sltu	t4,t3,t4
 1001684:	9efa                	add	t4,t4,t5
 1001686:	9e3e                	add	t3,t3,a5
 1001688:	00fe37b3          	sltu	a5,t3,a5
 100168c:	9ebe                	add	t4,t4,a5
 100168e:	9e46                	add	t3,t3,a7
 1001690:	011e38b3          	sltu	a7,t3,a7
 1001694:	98f6                	add	a7,a7,t4
 1001696:	00063f03          	ld	t5,0(a2)
 100169a:	9e7a                	add	t3,t3,t5
 100169c:	01ee3f33          	sltu	t5,t3,t5
 10016a0:	98fa                	add	a7,a7,t5
 10016a2:	01c63023          	sd	t3,0(a2)
 10016a6:	0085bf03          	ld	t5,8(a1)
 10016aa:	00ef77b3          	and	a5,t5,a4
 10016ae:	020f5f13          	srli	t5,t5,0x20
 10016b2:	02f30eb3          	mul	t4,t1,a5
 10016b6:	02f807b3          	mul	a5,a6,a5
 10016ba:	03e80e33          	mul	t3,a6,t5
 10016be:	03e30f33          	mul	t5,t1,t5
 10016c2:	020edf93          	srli	t6,t4,0x20
 10016c6:	9ffa                	add	t6,t6,t5
 10016c8:	020e5f13          	srli	t5,t3,0x20
 10016cc:	9f7e                	add	t5,t5,t6
 10016ce:	1e82                	slli	t4,t4,0x20
 10016d0:	1e02                	slli	t3,t3,0x20
 10016d2:	97f6                	add	a5,a5,t4
 10016d4:	01d7beb3          	sltu	t4,a5,t4
 10016d8:	9efa                	add	t4,t4,t5
 10016da:	97f2                	add	a5,a5,t3
 10016dc:	01c7be33          	sltu	t3,a5,t3
 10016e0:	9e76                	add	t3,t3,t4
 10016e2:	97c6                	add	a5,a5,a7
 10016e4:	0117b8b3          	sltu	a7,a5,a7
 10016e8:	9e46                	add	t3,t3,a7
 10016ea:	00863883          	ld	a7,8(a2)
 10016ee:	97c6                	add	a5,a5,a7
 10016f0:	0117b8b3          	sltu	a7,a5,a7
 10016f4:	9e46                	add	t3,t3,a7
 10016f6:	e61c                	sd	a5,8(a2)
 10016f8:	0105bf03          	ld	t5,16(a1)
 10016fc:	00ef77b3          	and	a5,t5,a4
 1001700:	020f5f13          	srli	t5,t5,0x20
 1001704:	02f30eb3          	mul	t4,t1,a5
 1001708:	02f807b3          	mul	a5,a6,a5
 100170c:	03e808b3          	mul	a7,a6,t5
 1001710:	03e30f33          	mul	t5,t1,t5
 1001714:	020edf93          	srli	t6,t4,0x20
 1001718:	9ffa                	add	t6,t6,t5
 100171a:	0208df13          	srli	t5,a7,0x20
 100171e:	9f7e                	add	t5,t5,t6
 1001720:	1e82                	slli	t4,t4,0x20
 1001722:	1882                	slli	a7,a7,0x20
 1001724:	97f6                	add	a5,a5,t4
 1001726:	01d7beb3          	sltu	t4,a5,t4
 100172a:	9efa                	add	t4,t4,t5
 100172c:	97c6                	add	a5,a5,a7
 100172e:	0117b8b3          	sltu	a7,a5,a7
 1001732:	98f6                	add	a7,a7,t4
 1001734:	97f2                	add	a5,a5,t3
 1001736:	01c7be33          	sltu	t3,a5,t3
 100173a:	98f2                	add	a7,a7,t3
 100173c:	01063e03          	ld	t3,16(a2)
 1001740:	97f2                	add	a5,a5,t3
 1001742:	01c7be33          	sltu	t3,a5,t3
 1001746:	98f2                	add	a7,a7,t3
 1001748:	ea1c                	sd	a5,16(a2)
 100174a:	0185bf03          	ld	t5,24(a1)
 100174e:	00ef77b3          	and	a5,t5,a4
 1001752:	020f5f13          	srli	t5,t5,0x20
 1001756:	02f30eb3          	mul	t4,t1,a5
 100175a:	02f807b3          	mul	a5,a6,a5
 100175e:	03e80e33          	mul	t3,a6,t5
 1001762:	03e30f33          	mul	t5,t1,t5
 1001766:	020edf93          	srli	t6,t4,0x20
 100176a:	9ffa                	add	t6,t6,t5
 100176c:	020e5f13          	srli	t5,t3,0x20
 1001770:	9f7e                	add	t5,t5,t6
 1001772:	1e82                	slli	t4,t4,0x20
 1001774:	1e02                	slli	t3,t3,0x20
 1001776:	97f6                	add	a5,a5,t4
 1001778:	01d7beb3          	sltu	t4,a5,t4
 100177c:	9efa                	add	t4,t4,t5
 100177e:	97f2                	add	a5,a5,t3
 1001780:	01c7be33          	sltu	t3,a5,t3
 1001784:	9e76                	add	t3,t3,t4
 1001786:	97c6                	add	a5,a5,a7
 1001788:	0117b8b3          	sltu	a7,a5,a7
 100178c:	9e46                	add	t3,t3,a7
 100178e:	01863883          	ld	a7,24(a2)
 1001792:	97c6                	add	a5,a5,a7
 1001794:	0117b8b3          	sltu	a7,a5,a7
 1001798:	9e46                	add	t3,t3,a7
 100179a:	ee1c                	sd	a5,24(a2)
 100179c:	0205bf03          	ld	t5,32(a1)
 10017a0:	00ef77b3          	and	a5,t5,a4
 10017a4:	020f5f13          	srli	t5,t5,0x20
 10017a8:	02f30eb3          	mul	t4,t1,a5
 10017ac:	02f807b3          	mul	a5,a6,a5
 10017b0:	03e808b3          	mul	a7,a6,t5
 10017b4:	03e30f33          	mul	t5,t1,t5
 10017b8:	020edf93          	srli	t6,t4,0x20
 10017bc:	9ffa                	add	t6,t6,t5
 10017be:	0208df13          	srli	t5,a7,0x20
 10017c2:	9f7e                	add	t5,t5,t6
 10017c4:	1e82                	slli	t4,t4,0x20
 10017c6:	1882                	slli	a7,a7,0x20
 10017c8:	97f6                	add	a5,a5,t4
 10017ca:	01d7beb3          	sltu	t4,a5,t4
 10017ce:	9efa                	add	t4,t4,t5
 10017d0:	97c6                	add	a5,a5,a7
 10017d2:	0117b8b3          	sltu	a7,a5,a7
 10017d6:	98f6                	add	a7,a7,t4
 10017d8:	97f2                	add	a5,a5,t3
 10017da:	01c7be33          	sltu	t3,a5,t3
 10017de:	98f2                	add	a7,a7,t3
 10017e0:	02063e03          	ld	t3,32(a2)
 10017e4:	97f2                	add	a5,a5,t3
 10017e6:	01c7be33          	sltu	t3,a5,t3
 10017ea:	98f2                	add	a7,a7,t3
 10017ec:	f21c                	sd	a5,32(a2)
 10017ee:	0285bf03          	ld	t5,40(a1)
 10017f2:	00ef77b3          	and	a5,t5,a4
 10017f6:	020f5f13          	srli	t5,t5,0x20
 10017fa:	02f30eb3          	mul	t4,t1,a5
 10017fe:	02f807b3          	mul	a5,a6,a5
 1001802:	03e80e33          	mul	t3,a6,t5
 1001806:	03e30f33          	mul	t5,t1,t5
 100180a:	020edf93          	srli	t6,t4,0x20
 100180e:	9ffa                	add	t6,t6,t5
 1001810:	020e5f13          	srli	t5,t3,0x20
 1001814:	9f7e                	add	t5,t5,t6
 1001816:	1e82                	slli	t4,t4,0x20
 1001818:	1e02                	slli	t3,t3,0x20
 100181a:	97f6                	add	a5,a5,t4
 100181c:	01d7beb3          	sltu	t4,a5,t4
 1001820:	9efa                	add	t4,t4,t5
 1001822:	97f2                	add	a5,a5,t3
 1001824:	01c7be33          	sltu	t3,a5,t3
 1001828:	9e76                	add	t3,t3,t4
 100182a:	97c6                	add	a5,a5,a7
 100182c:	0117b8b3          	sltu	a7,a5,a7
 1001830:	9e46                	add	t3,t3,a7
 1001832:	02863883          	ld	a7,40(a2)
 1001836:	97c6                	add	a5,a5,a7
 1001838:	0117b8b3          	sltu	a7,a5,a7
 100183c:	9e46                	add	t3,t3,a7
 100183e:	f61c                	sd	a5,40(a2)
 1001840:	0305bf03          	ld	t5,48(a1)
 1001844:	00ef77b3          	and	a5,t5,a4
 1001848:	020f5f13          	srli	t5,t5,0x20
 100184c:	02f30eb3          	mul	t4,t1,a5
 1001850:	02f807b3          	mul	a5,a6,a5
 1001854:	03e808b3          	mul	a7,a6,t5
 1001858:	03e30f33          	mul	t5,t1,t5
 100185c:	020edf93          	srli	t6,t4,0x20
 1001860:	9ffa                	add	t6,t6,t5
 1001862:	0208df13          	srli	t5,a7,0x20
 1001866:	9f7e                	add	t5,t5,t6
 1001868:	1e82                	slli	t4,t4,0x20
 100186a:	1882                	slli	a7,a7,0x20
 100186c:	97f6                	add	a5,a5,t4
 100186e:	01d7beb3          	sltu	t4,a5,t4
 1001872:	9efa                	add	t4,t4,t5
 1001874:	97c6                	add	a5,a5,a7
 1001876:	0117b8b3          	sltu	a7,a5,a7
 100187a:	98f6                	add	a7,a7,t4
 100187c:	97f2                	add	a5,a5,t3
 100187e:	01c7be33          	sltu	t3,a5,t3
 1001882:	98f2                	add	a7,a7,t3
 1001884:	03063e03          	ld	t3,48(a2)
 1001888:	97f2                	add	a5,a5,t3
 100188a:	01c7be33          	sltu	t3,a5,t3
 100188e:	98f2                	add	a7,a7,t3
 1001890:	fa1c                	sd	a5,48(a2)
 1001892:	0385be03          	ld	t3,56(a1)
 1001896:	00ee7733          	and	a4,t3,a4
 100189a:	020e5e13          	srli	t3,t3,0x20
 100189e:	04058593          	addi	a1,a1,64
 10018a2:	02e307b3          	mul	a5,t1,a4
 10018a6:	02e80733          	mul	a4,a6,a4
 10018aa:	03c80833          	mul	a6,a6,t3
 10018ae:	03c30333          	mul	t1,t1,t3
 10018b2:	0207de13          	srli	t3,a5,0x20
 10018b6:	9e1a                	add	t3,t3,t1
 10018b8:	02085313          	srli	t1,a6,0x20
 10018bc:	9372                	add	t1,t1,t3
 10018be:	1782                	slli	a5,a5,0x20
 10018c0:	1802                	slli	a6,a6,0x20
 10018c2:	973e                	add	a4,a4,a5
 10018c4:	00f737b3          	sltu	a5,a4,a5
 10018c8:	979a                	add	a5,a5,t1
 10018ca:	9742                	add	a4,a4,a6
 10018cc:	01073833          	sltu	a6,a4,a6
 10018d0:	983e                	add	a6,a6,a5
 10018d2:	9746                	add	a4,a4,a7
 10018d4:	011738b3          	sltu	a7,a4,a7
 10018d8:	9846                	add	a6,a6,a7
 10018da:	03863883          	ld	a7,56(a2)
 10018de:	9746                	add	a4,a4,a7
 10018e0:	011738b3          	sltu	a7,a4,a7
 10018e4:	98c2                	add	a7,a7,a6
 10018e6:	fe18                	sd	a4,56(a2)
 10018e8:	1561                	addi	a0,a0,-8
 10018ea:	04060613          	addi	a2,a2,64
 10018ee:	479d                	li	a5,7
 10018f0:	d4a7ebe3          	bltu	a5,a0,1001646 <BN_mul_hlp+0x560>
 10018f4:	c525                	beqz	a0,100195c <BN_mul_hlp+0x876>
 10018f6:	577d                	li	a4,-1
 10018f8:	9301                	srli	a4,a4,0x20
 10018fa:	00e6f7b3          	and	a5,a3,a4
 10018fe:	0206d313          	srli	t1,a3,0x20
 1001902:	0005be03          	ld	t3,0(a1)
 1001906:	00ee7733          	and	a4,t3,a4
 100190a:	020e5e13          	srli	t3,t3,0x20
 100190e:	05a1                	addi	a1,a1,8
 1001910:	02e30833          	mul	a6,t1,a4
 1001914:	02e78733          	mul	a4,a5,a4
 1001918:	03c787b3          	mul	a5,a5,t3
 100191c:	03c30333          	mul	t1,t1,t3
 1001920:	02085e13          	srli	t3,a6,0x20
 1001924:	9e1a                	add	t3,t3,t1
 1001926:	0207d313          	srli	t1,a5,0x20
 100192a:	9372                	add	t1,t1,t3
 100192c:	1802                	slli	a6,a6,0x20
 100192e:	1782                	slli	a5,a5,0x20
 1001930:	9742                	add	a4,a4,a6
 1001932:	01073833          	sltu	a6,a4,a6
 1001936:	981a                	add	a6,a6,t1
 1001938:	973e                	add	a4,a4,a5
 100193a:	00f737b3          	sltu	a5,a4,a5
 100193e:	983e                	add	a6,a6,a5
 1001940:	9746                	add	a4,a4,a7
 1001942:	011738b3          	sltu	a7,a4,a7
 1001946:	98c2                	add	a7,a7,a6
 1001948:	00063303          	ld	t1,0(a2)
 100194c:	971a                	add	a4,a4,t1
 100194e:	00673333          	sltu	t1,a4,t1
 1001952:	989a                	add	a7,a7,t1
 1001954:	e218                	sd	a4,0(a2)
 1001956:	157d                	addi	a0,a0,-1
 1001958:	0621                	addi	a2,a2,8
 100195a:	bf69                	j	10018f4 <BN_mul_hlp+0x80e>
 100195c:	621c                	ld	a5,0(a2)
 100195e:	97c6                	add	a5,a5,a7
 1001960:	e21c                	sd	a5,0(a2)
 1001962:	8746                	mv	a4,a7
 1001964:	0117b8b3          	sltu	a7,a5,a7
 1001968:	0621                	addi	a2,a2,8
 100196a:	fee7e9e3          	bltu	a5,a4,100195c <BN_mul_hlp+0x876>
 100196e:	8082                	ret

0000000001001970 <BN_montg_init>:
 1001970:	658c                	ld	a1,8(a1)
 1001972:	00258793          	addi	a5,a1,2
 1001976:	0786                	slli	a5,a5,0x1
 1001978:	8ba1                	andi	a5,a5,8
 100197a:	97ae                	add	a5,a5,a1
 100197c:	04000693          	li	a3,64
 1001980:	a801                	j	1001990 <BN_montg_init+0x20>
 1001982:	02b78633          	mul	a2,a5,a1
 1001986:	4709                	li	a4,2
 1001988:	8f11                	sub	a4,a4,a2
 100198a:	02e787b3          	mul	a5,a5,a4
 100198e:	8285                	srli	a3,a3,0x1
 1001990:	471d                	li	a4,7
 1001992:	fed768e3          	bltu	a4,a3,1001982 <BN_montg_init+0x12>
 1001996:	40f007b3          	neg	a5,a5
 100199a:	e11c                	sd	a5,0(a0)
 100199c:	8082                	ret

000000000100199e <BN_msb>:
 100199e:	477d                	li	a4,31
 10019a0:	cb01                	beqz	a4,10019b0 <BN_msb+0x12>
 10019a2:	00371793          	slli	a5,a4,0x3
 10019a6:	97aa                	add	a5,a5,a0
 10019a8:	679c                	ld	a5,8(a5)
 10019aa:	e791                	bnez	a5,10019b6 <BN_msb+0x18>
 10019ac:	177d                	addi	a4,a4,-1
 10019ae:	bfcd                	j	10019a0 <BN_msb+0x2>
 10019b0:	04000693          	li	a3,64
 10019b4:	a019                	j	10019ba <BN_msb+0x1c>
 10019b6:	04000693          	li	a3,64
 10019ba:	ce89                	beqz	a3,10019d4 <BN_msb+0x36>
 10019bc:	00371793          	slli	a5,a4,0x3
 10019c0:	97aa                	add	a5,a5,a0
 10019c2:	679c                	ld	a5,8(a5)
 10019c4:	fff6861b          	addiw	a2,a3,-1
 10019c8:	00c7d7b3          	srl	a5,a5,a2
 10019cc:	8b85                	andi	a5,a5,1
 10019ce:	e399                	bnez	a5,10019d4 <BN_msb+0x36>
 10019d0:	16fd                	addi	a3,a3,-1
 10019d2:	b7e5                	j	10019ba <BN_msb+0x1c>
 10019d4:	071a                	slli	a4,a4,0x6
 10019d6:	00d70533          	add	a0,a4,a3
 10019da:	8082                	ret

00000000010019dc <BN_shift_left>:
 10019dc:	02000793          	li	a5,32
 10019e0:	0007c963          	bltz	a5,10019f2 <BN_shift_left+0x16>
 10019e4:	00379713          	slli	a4,a5,0x3
 10019e8:	972a                	add	a4,a4,a0
 10019ea:	6718                	ld	a4,8(a4)
 10019ec:	e711                	bnez	a4,10019f8 <BN_shift_left+0x1c>
 10019ee:	37fd                	addiw	a5,a5,-1
 10019f0:	bfc5                	j	10019e0 <BN_shift_left+0x4>
 10019f2:	4801                	li	a6,0
 10019f4:	4681                	li	a3,0
 10019f6:	a019                	j	10019fc <BN_shift_left+0x20>
 10019f8:	4801                	li	a6,0
 10019fa:	4681                	li	a3,0
 10019fc:	00d7cf63          	blt	a5,a3,1001a1a <BN_shift_left+0x3e>
 1001a00:	00369713          	slli	a4,a3,0x3
 1001a04:	972a                	add	a4,a4,a0
 1001a06:	670c                	ld	a1,8(a4)
 1001a08:	00159613          	slli	a2,a1,0x1
 1001a0c:	01066633          	or	a2,a2,a6
 1001a10:	e710                	sd	a2,8(a4)
 1001a12:	2685                	addiw	a3,a3,1
 1001a14:	03f5d813          	srli	a6,a1,0x3f
 1001a18:	b7d5                	j	10019fc <BN_shift_left+0x20>
 1001a1a:	8082                	ret

0000000001001a1c <BN_compare_zero>:
 1001a1c:	4781                	li	a5,0
 1001a1e:	02000713          	li	a4,32
 1001a22:	00f74963          	blt	a4,a5,1001a34 <BN_compare_zero+0x18>
 1001a26:	00379713          	slli	a4,a5,0x3
 1001a2a:	972a                	add	a4,a4,a0
 1001a2c:	6718                	ld	a4,8(a4)
 1001a2e:	e709                	bnez	a4,1001a38 <BN_compare_zero+0x1c>
 1001a30:	2785                	addiw	a5,a5,1
 1001a32:	b7f5                	j	1001a1e <BN_compare_zero+0x2>
 1001a34:	4505                	li	a0,1
 1001a36:	8082                	ret
 1001a38:	4501                	li	a0,0
 1001a3a:	8082                	ret

0000000001001a3c <BN_montmul>:
 1001a3c:	715d                	addi	sp,sp,-80
 1001a3e:	e486                	sd	ra,72(sp)
 1001a40:	e0a2                	sd	s0,64(sp)
 1001a42:	fc26                	sd	s1,56(sp)
 1001a44:	f84a                	sd	s2,48(sp)
 1001a46:	f44e                	sd	s3,40(sp)
 1001a48:	f052                	sd	s4,32(sp)
 1001a4a:	ec56                	sd	s5,24(sp)
 1001a4c:	e85a                	sd	s6,16(sp)
 1001a4e:	e45e                	sd	s7,8(sp)
 1001a50:	e062                	sd	s8,0(sp)
 1001a52:	8aaa                	mv	s5,a0
 1001a54:	8a2e                	mv	s4,a1
 1001a56:	8b32                	mv	s6,a2
 1001a58:	8bb6                	mv	s7,a3
 1001a5a:	00870c13          	addi	s8,a4,8
 1001a5e:	21000613          	li	a2,528
 1001a62:	4581                	li	a1,0
 1001a64:	8562                	mv	a0,s8
 1001a66:	5a0010ef          	jal	ra,1003006 <memset>
 1001a6a:	8462                	mv	s0,s8
 1001a6c:	4901                	li	s2,0
 1001a6e:	47fd                	li	a5,31
 1001a70:	0527e863          	bltu	a5,s2,1001ac0 <BN_montmul+0x84>
 1001a74:	00391793          	slli	a5,s2,0x3
 1001a78:	97d6                	add	a5,a5,s5
 1001a7a:	0087b983          	ld	s3,8(a5)
 1001a7e:	6004                	ld	s1,0(s0)
 1001a80:	008a3783          	ld	a5,8(s4)
 1001a84:	033787b3          	mul	a5,a5,s3
 1001a88:	94be                	add	s1,s1,a5
 1001a8a:	037484b3          	mul	s1,s1,s7
 1001a8e:	86ce                	mv	a3,s3
 1001a90:	8622                	mv	a2,s0
 1001a92:	008a0593          	addi	a1,s4,8
 1001a96:	02000513          	li	a0,32
 1001a9a:	e4cff0ef          	jal	ra,10010e6 <BN_mul_hlp>
 1001a9e:	86a6                	mv	a3,s1
 1001aa0:	8622                	mv	a2,s0
 1001aa2:	008b0593          	addi	a1,s6,8
 1001aa6:	02000513          	li	a0,32
 1001aaa:	e3cff0ef          	jal	ra,10010e6 <BN_mul_hlp>
 1001aae:	00840793          	addi	a5,s0,8
 1001ab2:	01343023          	sd	s3,0(s0)
 1001ab6:	10043823          	sd	zero,272(s0)
 1001aba:	0905                	addi	s2,s2,1
 1001abc:	843e                	mv	s0,a5
 1001abe:	bf45                	j	1001a6e <BN_montmul+0x32>
 1001ac0:	008a8493          	addi	s1,s5,8
 1001ac4:	10800613          	li	a2,264
 1001ac8:	85a2                	mv	a1,s0
 1001aca:	8526                	mv	a0,s1
 1001acc:	500010ef          	jal	ra,1002fcc <memcpy>
 1001ad0:	85da                	mv	a1,s6
 1001ad2:	8556                	mv	a0,s5
 1001ad4:	d46ff0ef          	jal	ra,100101a <BN_cmp_abs>
 1001ad8:	02054563          	bltz	a0,1001b02 <BN_montmul+0xc6>
 1001adc:	8626                	mv	a2,s1
 1001ade:	008b0593          	addi	a1,s6,8
 1001ae2:	02000513          	li	a0,32
 1001ae6:	daaff0ef          	jal	ra,1001090 <BN_sub_hlp>
 1001aea:	60a6                	ld	ra,72(sp)
 1001aec:	6406                	ld	s0,64(sp)
 1001aee:	74e2                	ld	s1,56(sp)
 1001af0:	7942                	ld	s2,48(sp)
 1001af2:	79a2                	ld	s3,40(sp)
 1001af4:	7a02                	ld	s4,32(sp)
 1001af6:	6ae2                	ld	s5,24(sp)
 1001af8:	6b42                	ld	s6,16(sp)
 1001afa:	6ba2                	ld	s7,8(sp)
 1001afc:	6c02                	ld	s8,0(sp)
 1001afe:	6161                	addi	sp,sp,80
 1001b00:	8082                	ret
 1001b02:	8662                	mv	a2,s8
 1001b04:	85a6                	mv	a1,s1
 1001b06:	02000513          	li	a0,32
 1001b0a:	d86ff0ef          	jal	ra,1001090 <BN_sub_hlp>
 1001b0e:	bff1                	j	1001aea <BN_montmul+0xae>

0000000001001b10 <BN_montred>:
 1001b10:	7129                	addi	sp,sp,-320
 1001b12:	fe06                	sd	ra,312(sp)
 1001b14:	fa22                	sd	s0,304(sp)
 1001b16:	f626                	sd	s1,296(sp)
 1001b18:	f24a                	sd	s2,288(sp)
 1001b1a:	ee4e                	sd	s3,280(sp)
 1001b1c:	842a                	mv	s0,a0
 1001b1e:	84ae                	mv	s1,a1
 1001b20:	8932                	mv	s2,a2
 1001b22:	89b6                	mv	s3,a3
 1001b24:	10800613          	li	a2,264
 1001b28:	4581                	li	a1,0
 1001b2a:	0028                	addi	a0,sp,8
 1001b2c:	4da010ef          	jal	ra,1003006 <memset>
 1001b30:	4785                	li	a5,1
 1001b32:	e43e                	sd	a5,8(sp)
 1001b34:	874e                	mv	a4,s3
 1001b36:	86ca                	mv	a3,s2
 1001b38:	8626                	mv	a2,s1
 1001b3a:	858a                	mv	a1,sp
 1001b3c:	8522                	mv	a0,s0
 1001b3e:	effff0ef          	jal	ra,1001a3c <BN_montmul>
 1001b42:	70f2                	ld	ra,312(sp)
 1001b44:	7452                	ld	s0,304(sp)
 1001b46:	74b2                	ld	s1,296(sp)
 1001b48:	7912                	ld	s2,288(sp)
 1001b4a:	69f2                	ld	s3,280(sp)
 1001b4c:	6131                	addi	sp,sp,320
 1001b4e:	8082                	ret

0000000001001b50 <BN_init>:
 1001b50:	cd19                	beqz	a0,1001b6e <BN_init+0x1e>
 1001b52:	4785                	li	a5,1
 1001b54:	c11c                	sw	a5,0(a0)
 1001b56:	4781                	li	a5,0
 1001b58:	a039                	j	1001b66 <BN_init+0x16>
 1001b5a:	00379713          	slli	a4,a5,0x3
 1001b5e:	972a                	add	a4,a4,a0
 1001b60:	00073423          	sd	zero,8(a4)
 1001b64:	2785                	addiw	a5,a5,1
 1001b66:	02000713          	li	a4,32
 1001b6a:	fef758e3          	bge	a4,a5,1001b5a <BN_init+0xa>
 1001b6e:	8082                	ret

0000000001001b70 <BN_copy>:
 1001b70:	1101                	addi	sp,sp,-32
 1001b72:	ec06                	sd	ra,24(sp)
 1001b74:	e822                	sd	s0,16(sp)
 1001b76:	e426                	sd	s1,8(sp)
 1001b78:	842a                	mv	s0,a0
 1001b7a:	84ae                	mv	s1,a1
 1001b7c:	fd5ff0ef          	jal	ra,1001b50 <BN_init>
 1001b80:	4701                	li	a4,0
 1001b82:	02000793          	li	a5,32
 1001b86:	00e7eb63          	bltu	a5,a4,1001b9c <BN_copy+0x2c>
 1001b8a:	00371793          	slli	a5,a4,0x3
 1001b8e:	00f486b3          	add	a3,s1,a5
 1001b92:	6694                	ld	a3,8(a3)
 1001b94:	97a2                	add	a5,a5,s0
 1001b96:	e794                	sd	a3,8(a5)
 1001b98:	0705                	addi	a4,a4,1
 1001b9a:	b7e5                	j	1001b82 <BN_copy+0x12>
 1001b9c:	409c                	lw	a5,0(s1)
 1001b9e:	c01c                	sw	a5,0(s0)
 1001ba0:	60e2                	ld	ra,24(sp)
 1001ba2:	6442                	ld	s0,16(sp)
 1001ba4:	64a2                	ld	s1,8(sp)
 1001ba6:	6105                	addi	sp,sp,32
 1001ba8:	8082                	ret

0000000001001baa <BN_add_abs>:
 1001baa:	1101                	addi	sp,sp,-32
 1001bac:	ec06                	sd	ra,24(sp)
 1001bae:	e822                	sd	s0,16(sp)
 1001bb0:	e426                	sd	s1,8(sp)
 1001bb2:	84aa                	mv	s1,a0
 1001bb4:	8432                	mv	s0,a2
 1001bb6:	00b50463          	beq	a0,a1,1001bbe <BN_add_abs+0x14>
 1001bba:	fb7ff0ef          	jal	ra,1001b70 <BN_copy>
 1001bbe:	4785                	li	a5,1
 1001bc0:	c09c                	sw	a5,0(s1)
 1001bc2:	02100813          	li	a6,33
 1001bc6:	00080b63          	beqz	a6,1001bdc <BN_add_abs+0x32>
 1001bca:	fff80713          	addi	a4,a6,-1
 1001bce:	00371793          	slli	a5,a4,0x3
 1001bd2:	97a2                	add	a5,a5,s0
 1001bd4:	679c                	ld	a5,8(a5)
 1001bd6:	e399                	bnez	a5,1001bdc <BN_add_abs+0x32>
 1001bd8:	883a                	mv	a6,a4
 1001bda:	b7f5                	j	1001bc6 <BN_add_abs+0x1c>
 1001bdc:	00840593          	addi	a1,s0,8
 1001be0:	00848893          	addi	a7,s1,8
 1001be4:	8746                	mv	a4,a7
 1001be6:	4681                	li	a3,0
 1001be8:	4601                	li	a2,0
 1001bea:	03067963          	bgeu	a2,a6,1001c1c <BN_add_abs+0x72>
 1001bee:	631c                	ld	a5,0(a4)
 1001bf0:	97b6                	add	a5,a5,a3
 1001bf2:	e31c                	sd	a5,0(a4)
 1001bf4:	00d7b6b3          	sltu	a3,a5,a3
 1001bf8:	6188                	ld	a0,0(a1)
 1001bfa:	97aa                	add	a5,a5,a0
 1001bfc:	e31c                	sd	a5,0(a4)
 1001bfe:	6188                	ld	a0,0(a1)
 1001c00:	00a7b7b3          	sltu	a5,a5,a0
 1001c04:	96be                	add	a3,a3,a5
 1001c06:	0605                	addi	a2,a2,1
 1001c08:	05a1                	addi	a1,a1,8
 1001c0a:	0721                	addi	a4,a4,8
 1001c0c:	bff9                	j	1001bea <BN_add_abs+0x40>
 1001c0e:	631c                	ld	a5,0(a4)
 1001c10:	97b6                	add	a5,a5,a3
 1001c12:	e31c                	sd	a5,0(a4)
 1001c14:	00d7b6b3          	sltu	a3,a5,a3
 1001c18:	0605                	addi	a2,a2,1
 1001c1a:	0721                	addi	a4,a4,8
 1001c1c:	ca89                	beqz	a3,1001c2e <BN_add_abs+0x84>
 1001c1e:	02000793          	li	a5,32
 1001c22:	fec7f6e3          	bgeu	a5,a2,1001c0e <BN_add_abs+0x64>
 1001c26:	00361713          	slli	a4,a2,0x3
 1001c2a:	9746                	add	a4,a4,a7
 1001c2c:	b7cd                	j	1001c0e <BN_add_abs+0x64>
 1001c2e:	60e2                	ld	ra,24(sp)
 1001c30:	6442                	ld	s0,16(sp)
 1001c32:	64a2                	ld	s1,8(sp)
 1001c34:	6105                	addi	sp,sp,32
 1001c36:	8082                	ret

0000000001001c38 <BN_sub_abs>:
 1001c38:	7169                	addi	sp,sp,-304
 1001c3a:	f606                	sd	ra,296(sp)
 1001c3c:	f222                	sd	s0,288(sp)
 1001c3e:	ee26                	sd	s1,280(sp)
 1001c40:	ea4a                	sd	s2,272(sp)
 1001c42:	84aa                	mv	s1,a0
 1001c44:	892e                	mv	s2,a1
 1001c46:	8432                	mv	s0,a2
 1001c48:	850a                	mv	a0,sp
 1001c4a:	f07ff0ef          	jal	ra,1001b50 <BN_init>
 1001c4e:	02848663          	beq	s1,s0,1001c7a <BN_sub_abs+0x42>
 1001c52:	01248663          	beq	s1,s2,1001c5e <BN_sub_abs+0x26>
 1001c56:	85ca                	mv	a1,s2
 1001c58:	8526                	mv	a0,s1
 1001c5a:	f17ff0ef          	jal	ra,1001b70 <BN_copy>
 1001c5e:	4785                	li	a5,1
 1001c60:	c09c                	sw	a5,0(s1)
 1001c62:	02100513          	li	a0,33
 1001c66:	c105                	beqz	a0,1001c86 <BN_sub_abs+0x4e>
 1001c68:	fff50713          	addi	a4,a0,-1
 1001c6c:	00371793          	slli	a5,a4,0x3
 1001c70:	97a2                	add	a5,a5,s0
 1001c72:	679c                	ld	a5,8(a5)
 1001c74:	eb89                	bnez	a5,1001c86 <BN_sub_abs+0x4e>
 1001c76:	853a                	mv	a0,a4
 1001c78:	b7fd                	j	1001c66 <BN_sub_abs+0x2e>
 1001c7a:	85a2                	mv	a1,s0
 1001c7c:	850a                	mv	a0,sp
 1001c7e:	ef3ff0ef          	jal	ra,1001b70 <BN_copy>
 1001c82:	840a                	mv	s0,sp
 1001c84:	b7f9                	j	1001c52 <BN_sub_abs+0x1a>
 1001c86:	00848613          	addi	a2,s1,8
 1001c8a:	00840593          	addi	a1,s0,8
 1001c8e:	c02ff0ef          	jal	ra,1001090 <BN_sub_hlp>
 1001c92:	70b2                	ld	ra,296(sp)
 1001c94:	7412                	ld	s0,288(sp)
 1001c96:	64f2                	ld	s1,280(sp)
 1001c98:	6952                	ld	s2,272(sp)
 1001c9a:	6155                	addi	sp,sp,304
 1001c9c:	8082                	ret

0000000001001c9e <BN_bin2bn>:
 1001c9e:	fff68793          	addi	a5,a3,-1
 1001ca2:	95be                	add	a1,a1,a5
 1001ca4:	c110                	sw	a2,0(a0)
 1001ca6:	4881                	li	a7,0
 1001ca8:	a015                	j	1001ccc <BN_bin2bn+0x2e>
 1001caa:	0005c703          	lbu	a4,0(a1)
 1001cae:	0037981b          	slliw	a6,a5,0x3
 1001cb2:	01071733          	sll	a4,a4,a6
 1001cb6:	8e59                	or	a2,a2,a4
 1001cb8:	2785                	addiw	a5,a5,1
 1001cba:	15fd                	addi	a1,a1,-1
 1001cbc:	471d                	li	a4,7
 1001cbe:	fef756e3          	bge	a4,a5,1001caa <BN_bin2bn+0xc>
 1001cc2:	00389793          	slli	a5,a7,0x3
 1001cc6:	97aa                	add	a5,a5,a0
 1001cc8:	e790                	sd	a2,8(a5)
 1001cca:	2885                	addiw	a7,a7,1
 1001ccc:	41f6d79b          	sraiw	a5,a3,0x1f
 1001cd0:	01d7d79b          	srliw	a5,a5,0x1d
 1001cd4:	9fb5                	addw	a5,a5,a3
 1001cd6:	4037d79b          	sraiw	a5,a5,0x3
 1001cda:	00f8d563          	bge	a7,a5,1001ce4 <BN_bin2bn+0x46>
 1001cde:	4601                	li	a2,0
 1001ce0:	4781                	li	a5,0
 1001ce2:	bfe9                	j	1001cbc <BN_bin2bn+0x1e>
 1001ce4:	4801                	li	a6,0
 1001ce6:	4601                	li	a2,0
 1001ce8:	a819                	j	1001cfe <BN_bin2bn+0x60>
 1001cea:	0005c783          	lbu	a5,0(a1)
 1001cee:	0036171b          	slliw	a4,a2,0x3
 1001cf2:	00e797b3          	sll	a5,a5,a4
 1001cf6:	00f86833          	or	a6,a6,a5
 1001cfa:	2605                	addiw	a2,a2,1
 1001cfc:	15fd                	addi	a1,a1,-1
 1001cfe:	41f6d79b          	sraiw	a5,a3,0x1f
 1001d02:	01d7d71b          	srliw	a4,a5,0x1d
 1001d06:	00d707bb          	addw	a5,a4,a3
 1001d0a:	8b9d                	andi	a5,a5,7
 1001d0c:	9f99                	subw	a5,a5,a4
 1001d0e:	fcf64ee3          	blt	a2,a5,1001cea <BN_bin2bn+0x4c>
 1001d12:	088e                	slli	a7,a7,0x3
 1001d14:	98aa                	add	a7,a7,a0
 1001d16:	0108b423          	sd	a6,8(a7)
 1001d1a:	8082                	ret

0000000001001d1c <BN_bn2bin>:
 1001d1c:	882a                	mv	a6,a0
 1001d1e:	4118                	lw	a4,0(a0)
 1001d20:	57fd                	li	a5,-1
 1001d22:	00f70763          	beq	a4,a5,1001d30 <BN_bn2bin+0x14>
 1001d26:	4501                	li	a0,0
 1001d28:	4681                	li	a3,0
 1001d2a:	02000613          	li	a2,32
 1001d2e:	a81d                	j	1001d64 <BN_bn2bin+0x48>
 1001d30:	02d00793          	li	a5,45
 1001d34:	00f58023          	sb	a5,0(a1)
 1001d38:	0585                	addi	a1,a1,1
 1001d3a:	b7f5                	j	1001d26 <BN_bn2bin+0xa>
 1001d3c:	00f58023          	sb	a5,0(a1)
 1001d40:	2505                	addiw	a0,a0,1
 1001d42:	0585                	addi	a1,a1,1
 1001d44:	4685                	li	a3,1
 1001d46:	3761                	addiw	a4,a4,-8
 1001d48:	00074d63          	bltz	a4,1001d62 <BN_bn2bin+0x46>
 1001d4c:	00361793          	slli	a5,a2,0x3
 1001d50:	97c2                	add	a5,a5,a6
 1001d52:	679c                	ld	a5,8(a5)
 1001d54:	00e7d7b3          	srl	a5,a5,a4
 1001d58:	0ff7f793          	andi	a5,a5,255
 1001d5c:	f2e5                	bnez	a3,1001d3c <BN_bn2bin+0x20>
 1001d5e:	d7e5                	beqz	a5,1001d46 <BN_bn2bin+0x2a>
 1001d60:	bff1                	j	1001d3c <BN_bn2bin+0x20>
 1001d62:	367d                	addiw	a2,a2,-1
 1001d64:	00064563          	bltz	a2,1001d6e <BN_bn2bin+0x52>
 1001d68:	03800713          	li	a4,56
 1001d6c:	bff1                	j	1001d48 <BN_bn2bin+0x2c>
 1001d6e:	8082                	ret

0000000001001d70 <BN_hex2bn>:
 1001d70:	7179                	addi	sp,sp,-48
 1001d72:	f406                	sd	ra,40(sp)
 1001d74:	f022                	sd	s0,32(sp)
 1001d76:	ec26                	sd	s1,24(sp)
 1001d78:	e84a                	sd	s2,16(sp)
 1001d7a:	e44e                	sd	s3,8(sp)
 1001d7c:	892a                	mv	s2,a0
 1001d7e:	84ae                	mv	s1,a1
 1001d80:	dd1ff0ef          	jal	ra,1001b50 <BN_init>
 1001d84:	c0cd                	beqz	s1,1001e26 <BN_hex2bn+0xb6>
 1001d86:	0004c783          	lbu	a5,0(s1)
 1001d8a:	c3c5                	beqz	a5,1001e2a <BN_hex2bn+0xba>
 1001d8c:	02d00713          	li	a4,45
 1001d90:	00e78563          	beq	a5,a4,1001d9a <BN_hex2bn+0x2a>
 1001d94:	4981                	li	s3,0
 1001d96:	4401                	li	s0,0
 1001d98:	a801                	j	1001da8 <BN_hex2bn+0x38>
 1001d9a:	0485                	addi	s1,s1,1
 1001d9c:	57fd                	li	a5,-1
 1001d9e:	00f92023          	sw	a5,0(s2)
 1001da2:	4985                	li	s3,1
 1001da4:	bfcd                	j	1001d96 <BN_hex2bn+0x26>
 1001da6:	2405                	addiw	s0,s0,1
 1001da8:	008487b3          	add	a5,s1,s0
 1001dac:	0007c503          	lbu	a0,0(a5)
 1001db0:	6ae010ef          	jal	ra,100345e <isxdigit>
 1001db4:	f96d                	bnez	a0,1001da6 <BN_hex2bn+0x36>
 1001db6:	008989bb          	addw	s3,s3,s0
 1001dba:	06090963          	beqz	s2,1001e2c <BN_hex2bn+0xbc>
 1001dbe:	882a                	mv	a6,a0
 1001dc0:	a889                	j	1001e12 <BN_hex2bn+0xa2>
 1001dc2:	f9f7861b          	addiw	a2,a5,-97
 1001dc6:	4595                	li	a1,5
 1001dc8:	02c5e563          	bltu	a1,a2,1001df2 <BN_hex2bn+0x82>
 1001dcc:	fa97879b          	addiw	a5,a5,-87
 1001dd0:	0692                	slli	a3,a3,0x4
 1001dd2:	8edd                	or	a3,a3,a5
 1001dd4:	377d                	addiw	a4,a4,-1
 1001dd6:	02e05863          	blez	a4,1001e06 <BN_hex2bn+0x96>
 1001dda:	40e407bb          	subw	a5,s0,a4
 1001dde:	97a6                	add	a5,a5,s1
 1001de0:	0007c783          	lbu	a5,0(a5)
 1001de4:	fd07859b          	addiw	a1,a5,-48
 1001de8:	4625                	li	a2,9
 1001dea:	fcb66ce3          	bltu	a2,a1,1001dc2 <BN_hex2bn+0x52>
 1001dee:	87ae                	mv	a5,a1
 1001df0:	b7c5                	j	1001dd0 <BN_hex2bn+0x60>
 1001df2:	fbf7861b          	addiw	a2,a5,-65
 1001df6:	4595                	li	a1,5
 1001df8:	00c5e563          	bltu	a1,a2,1001e02 <BN_hex2bn+0x92>
 1001dfc:	fc97879b          	addiw	a5,a5,-55
 1001e00:	bfc1                	j	1001dd0 <BN_hex2bn+0x60>
 1001e02:	87aa                	mv	a5,a0
 1001e04:	b7f1                	j	1001dd0 <BN_hex2bn+0x60>
 1001e06:	00381793          	slli	a5,a6,0x3
 1001e0a:	97ca                	add	a5,a5,s2
 1001e0c:	e794                	sd	a3,8(a5)
 1001e0e:	3441                	addiw	s0,s0,-16
 1001e10:	2805                	addiw	a6,a6,1
 1001e12:	00805d63          	blez	s0,1001e2c <BN_hex2bn+0xbc>
 1001e16:	8722                	mv	a4,s0
 1001e18:	47c1                	li	a5,16
 1001e1a:	0087d363          	bge	a5,s0,1001e20 <BN_hex2bn+0xb0>
 1001e1e:	4741                	li	a4,16
 1001e20:	2701                	sext.w	a4,a4
 1001e22:	4681                	li	a3,0
 1001e24:	bf5d                	j	1001dda <BN_hex2bn+0x6a>
 1001e26:	4981                	li	s3,0
 1001e28:	a011                	j	1001e2c <BN_hex2bn+0xbc>
 1001e2a:	4981                	li	s3,0
 1001e2c:	854e                	mv	a0,s3
 1001e2e:	70a2                	ld	ra,40(sp)
 1001e30:	7402                	ld	s0,32(sp)
 1001e32:	64e2                	ld	s1,24(sp)
 1001e34:	6942                	ld	s2,16(sp)
 1001e36:	69a2                	ld	s3,8(sp)
 1001e38:	6145                	addi	sp,sp,48
 1001e3a:	8082                	ret

0000000001001e3c <BN_bn2hex>:
 1001e3c:	4118                	lw	a4,0(a0)
 1001e3e:	57fd                	li	a5,-1
 1001e40:	00f70663          	beq	a4,a5,1001e4c <BN_bn2hex+0x10>
 1001e44:	4801                	li	a6,0
 1001e46:	02000893          	li	a7,32
 1001e4a:	a889                	j	1001e9c <BN_bn2hex+0x60>
 1001e4c:	02d00793          	li	a5,45
 1001e50:	00f58023          	sb	a5,0(a1)
 1001e54:	0585                	addi	a1,a1,1
 1001e56:	b7fd                	j	1001e44 <BN_bn2hex+0x8>
 1001e58:	3761                	addiw	a4,a4,-8
 1001e5a:	04074063          	bltz	a4,1001e9a <BN_bn2hex+0x5e>
 1001e5e:	00389793          	slli	a5,a7,0x3
 1001e62:	97aa                	add	a5,a5,a0
 1001e64:	679c                	ld	a5,8(a5)
 1001e66:	00e7d7b3          	srl	a5,a5,a4
 1001e6a:	0007861b          	sext.w	a2,a5
 1001e6e:	0ff7f793          	andi	a5,a5,255
 1001e72:	00f866b3          	or	a3,a6,a5
 1001e76:	d2ed                	beqz	a3,1001e58 <BN_bn2hex+0x1c>
 1001e78:	8391                	srli	a5,a5,0x4
 1001e7a:	cd018693          	addi	a3,gp,-816 # 10039c8 <Hex>
 1001e7e:	97b6                	add	a5,a5,a3
 1001e80:	0007c783          	lbu	a5,0(a5)
 1001e84:	00f58023          	sb	a5,0(a1)
 1001e88:	8a3d                	andi	a2,a2,15
 1001e8a:	96b2                	add	a3,a3,a2
 1001e8c:	0006c783          	lbu	a5,0(a3)
 1001e90:	00f580a3          	sb	a5,1(a1)
 1001e94:	0589                	addi	a1,a1,2
 1001e96:	4805                	li	a6,1
 1001e98:	b7c1                	j	1001e58 <BN_bn2hex+0x1c>
 1001e9a:	38fd                	addiw	a7,a7,-1
 1001e9c:	0008c563          	bltz	a7,1001ea6 <BN_bn2hex+0x6a>
 1001ea0:	03800713          	li	a4,56
 1001ea4:	bf5d                	j	1001e5a <BN_bn2hex+0x1e>
 1001ea6:	00058023          	sb	zero,0(a1)
 1001eaa:	8082                	ret

0000000001001eac <BN_bn2hex2>:
 1001eac:	88aa                	mv	a7,a0
 1001eae:	4118                	lw	a4,0(a0)
 1001eb0:	57fd                	li	a5,-1
 1001eb2:	00f70663          	beq	a4,a5,1001ebe <BN_bn2hex2+0x12>
 1001eb6:	4501                	li	a0,0
 1001eb8:	04100813          	li	a6,65
 1001ebc:	a889                	j	1001f0e <BN_bn2hex2+0x62>
 1001ebe:	02d00793          	li	a5,45
 1001ec2:	00f58023          	sb	a5,0(a1)
 1001ec6:	0585                	addi	a1,a1,1
 1001ec8:	b7fd                	j	1001eb6 <BN_bn2hex2+0xa>
 1001eca:	3761                	addiw	a4,a4,-8
 1001ecc:	04074063          	bltz	a4,1001f0c <BN_bn2hex2+0x60>
 1001ed0:	00381793          	slli	a5,a6,0x3
 1001ed4:	97c6                	add	a5,a5,a7
 1001ed6:	679c                	ld	a5,8(a5)
 1001ed8:	00e7d7b3          	srl	a5,a5,a4
 1001edc:	0007861b          	sext.w	a2,a5
 1001ee0:	0ff7f793          	andi	a5,a5,255
 1001ee4:	00f566b3          	or	a3,a0,a5
 1001ee8:	d2ed                	beqz	a3,1001eca <BN_bn2hex2+0x1e>
 1001eea:	8391                	srli	a5,a5,0x4
 1001eec:	cd018693          	addi	a3,gp,-816 # 10039c8 <Hex>
 1001ef0:	97b6                	add	a5,a5,a3
 1001ef2:	0007c783          	lbu	a5,0(a5)
 1001ef6:	00f58023          	sb	a5,0(a1)
 1001efa:	8a3d                	andi	a2,a2,15
 1001efc:	96b2                	add	a3,a3,a2
 1001efe:	0006c783          	lbu	a5,0(a3)
 1001f02:	00f580a3          	sb	a5,1(a1)
 1001f06:	0589                	addi	a1,a1,2
 1001f08:	4505                	li	a0,1
 1001f0a:	b7c1                	j	1001eca <BN_bn2hex2+0x1e>
 1001f0c:	387d                	addiw	a6,a6,-1
 1001f0e:	00084563          	bltz	a6,1001f18 <BN_bn2hex2+0x6c>
 1001f12:	03800713          	li	a4,56
 1001f16:	bf5d                	j	1001ecc <BN_bn2hex2+0x20>
 1001f18:	00058023          	sb	zero,0(a1)
 1001f1c:	8082                	ret

0000000001001f1e <BN_compare>:
 1001f1e:	882a                	mv	a6,a0
 1001f20:	02100713          	li	a4,33
 1001f24:	cb11                	beqz	a4,1001f38 <BN_compare+0x1a>
 1001f26:	fff70693          	addi	a3,a4,-1
 1001f2a:	00369793          	slli	a5,a3,0x3
 1001f2e:	97c2                	add	a5,a5,a6
 1001f30:	679c                	ld	a5,8(a5)
 1001f32:	e791                	bnez	a5,1001f3e <BN_compare+0x20>
 1001f34:	8736                	mv	a4,a3
 1001f36:	b7fd                	j	1001f24 <BN_compare+0x6>
 1001f38:	02100693          	li	a3,33
 1001f3c:	a019                	j	1001f42 <BN_compare+0x24>
 1001f3e:	02100693          	li	a3,33
 1001f42:	ca91                	beqz	a3,1001f56 <BN_compare+0x38>
 1001f44:	fff68613          	addi	a2,a3,-1
 1001f48:	00361793          	slli	a5,a2,0x3
 1001f4c:	97ae                	add	a5,a5,a1
 1001f4e:	679c                	ld	a5,8(a5)
 1001f50:	e399                	bnez	a5,1001f56 <BN_compare+0x38>
 1001f52:	86b2                	mv	a3,a2
 1001f54:	b7fd                	j	1001f42 <BN_compare+0x24>
 1001f56:	00d767b3          	or	a5,a4,a3
 1001f5a:	cbb1                	beqz	a5,1001fae <BN_compare+0x90>
 1001f5c:	04e6e063          	bltu	a3,a4,1001f9c <BN_compare+0x7e>
 1001f60:	04d76163          	bltu	a4,a3,1001fa2 <BN_compare+0x84>
 1001f64:	00082503          	lw	a0,0(a6)
 1001f68:	00a05563          	blez	a0,1001f72 <BN_compare+0x54>
 1001f6c:	419c                	lw	a5,0(a1)
 1001f6e:	0407c263          	bltz	a5,1001fb2 <BN_compare+0x94>
 1001f72:	419c                	lw	a5,0(a1)
 1001f74:	00f05463          	blez	a5,1001f7c <BN_compare+0x5e>
 1001f78:	02054f63          	bltz	a0,1001fb6 <BN_compare+0x98>
 1001f7c:	c71d                	beqz	a4,1001faa <BN_compare+0x8c>
 1001f7e:	177d                	addi	a4,a4,-1
 1001f80:	00371793          	slli	a5,a4,0x3
 1001f84:	00f806b3          	add	a3,a6,a5
 1001f88:	6694                	ld	a3,8(a3)
 1001f8a:	97ae                	add	a5,a5,a1
 1001f8c:	679c                	ld	a5,8(a5)
 1001f8e:	02d7e563          	bltu	a5,a3,1001fb8 <BN_compare+0x9a>
 1001f92:	fef6f5e3          	bgeu	a3,a5,1001f7c <BN_compare+0x5e>
 1001f96:	40a0053b          	negw	a0,a0
 1001f9a:	8082                	ret
 1001f9c:	00082503          	lw	a0,0(a6)
 1001fa0:	8082                	ret
 1001fa2:	4188                	lw	a0,0(a1)
 1001fa4:	40a0053b          	negw	a0,a0
 1001fa8:	8082                	ret
 1001faa:	4501                	li	a0,0
 1001fac:	8082                	ret
 1001fae:	4501                	li	a0,0
 1001fb0:	8082                	ret
 1001fb2:	4505                	li	a0,1
 1001fb4:	8082                	ret
 1001fb6:	557d                	li	a0,-1
 1001fb8:	8082                	ret

0000000001001fba <BN_cmp_int>:
 1001fba:	7169                	addi	sp,sp,-304
 1001fbc:	f606                	sd	ra,296(sp)
 1001fbe:	f222                	sd	s0,288(sp)
 1001fc0:	ee26                	sd	s1,280(sp)
 1001fc2:	84aa                	mv	s1,a0
 1001fc4:	842e                	mv	s0,a1
 1001fc6:	850a                	mv	a0,sp
 1001fc8:	b89ff0ef          	jal	ra,1001b50 <BN_init>
 1001fcc:	41f4571b          	sraiw	a4,s0,0x1f
 1001fd0:	00e447b3          	xor	a5,s0,a4
 1001fd4:	9f99                	subw	a5,a5,a4
 1001fd6:	e43e                	sd	a5,8(sp)
 1001fd8:	00044d63          	bltz	s0,1001ff2 <BN_cmp_int+0x38>
 1001fdc:	4785                	li	a5,1
 1001fde:	c03e                	sw	a5,0(sp)
 1001fe0:	858a                	mv	a1,sp
 1001fe2:	8526                	mv	a0,s1
 1001fe4:	f3bff0ef          	jal	ra,1001f1e <BN_compare>
 1001fe8:	70b2                	ld	ra,296(sp)
 1001fea:	7412                	ld	s0,288(sp)
 1001fec:	64f2                	ld	s1,280(sp)
 1001fee:	6155                	addi	sp,sp,304
 1001ff0:	8082                	ret
 1001ff2:	57fd                	li	a5,-1
 1001ff4:	b7ed                	j	1001fde <BN_cmp_int+0x24>

0000000001001ff6 <BN_sub>:
 1001ff6:	7179                	addi	sp,sp,-48
 1001ff8:	f406                	sd	ra,40(sp)
 1001ffa:	f022                	sd	s0,32(sp)
 1001ffc:	ec26                	sd	s1,24(sp)
 1001ffe:	e84a                	sd	s2,16(sp)
 1002000:	e44e                	sd	s3,8(sp)
 1002002:	892a                	mv	s2,a0
 1002004:	842e                	mv	s0,a1
 1002006:	84b2                	mv	s1,a2
 1002008:	0005a983          	lw	s3,0(a1)
 100200c:	421c                	lw	a5,0(a2)
 100200e:	033787bb          	mulw	a5,a5,s3
 1002012:	04f05063          	blez	a5,1002052 <BN_sub+0x5c>
 1002016:	85b2                	mv	a1,a2
 1002018:	8522                	mv	a0,s0
 100201a:	800ff0ef          	jal	ra,100101a <BN_cmp_abs>
 100201e:	02054063          	bltz	a0,100203e <BN_sub+0x48>
 1002022:	8626                	mv	a2,s1
 1002024:	85a2                	mv	a1,s0
 1002026:	854a                	mv	a0,s2
 1002028:	c11ff0ef          	jal	ra,1001c38 <BN_sub_abs>
 100202c:	01392023          	sw	s3,0(s2)
 1002030:	70a2                	ld	ra,40(sp)
 1002032:	7402                	ld	s0,32(sp)
 1002034:	64e2                	ld	s1,24(sp)
 1002036:	6942                	ld	s2,16(sp)
 1002038:	69a2                	ld	s3,8(sp)
 100203a:	6145                	addi	sp,sp,48
 100203c:	8082                	ret
 100203e:	8622                	mv	a2,s0
 1002040:	85a6                	mv	a1,s1
 1002042:	854a                	mv	a0,s2
 1002044:	bf5ff0ef          	jal	ra,1001c38 <BN_sub_abs>
 1002048:	413009bb          	negw	s3,s3
 100204c:	01392023          	sw	s3,0(s2)
 1002050:	b7c5                	j	1002030 <BN_sub+0x3a>
 1002052:	b59ff0ef          	jal	ra,1001baa <BN_add_abs>
 1002056:	01392023          	sw	s3,0(s2)
 100205a:	bfd9                	j	1002030 <BN_sub+0x3a>

000000000100205c <BN_add>:
 100205c:	7179                	addi	sp,sp,-48
 100205e:	f406                	sd	ra,40(sp)
 1002060:	f022                	sd	s0,32(sp)
 1002062:	ec26                	sd	s1,24(sp)
 1002064:	e84a                	sd	s2,16(sp)
 1002066:	e44e                	sd	s3,8(sp)
 1002068:	892a                	mv	s2,a0
 100206a:	842e                	mv	s0,a1
 100206c:	84b2                	mv	s1,a2
 100206e:	0005a983          	lw	s3,0(a1)
 1002072:	421c                	lw	a5,0(a2)
 1002074:	033787bb          	mulw	a5,a5,s3
 1002078:	0207da63          	bgez	a5,10020ac <BN_add+0x50>
 100207c:	85b2                	mv	a1,a2
 100207e:	8522                	mv	a0,s0
 1002080:	f9bfe0ef          	jal	ra,100101a <BN_cmp_abs>
 1002084:	00054a63          	bltz	a0,1002098 <BN_add+0x3c>
 1002088:	8626                	mv	a2,s1
 100208a:	85a2                	mv	a1,s0
 100208c:	854a                	mv	a0,s2
 100208e:	babff0ef          	jal	ra,1001c38 <BN_sub_abs>
 1002092:	01392023          	sw	s3,0(s2)
 1002096:	a839                	j	10020b4 <BN_add+0x58>
 1002098:	8622                	mv	a2,s0
 100209a:	85a6                	mv	a1,s1
 100209c:	854a                	mv	a0,s2
 100209e:	b9bff0ef          	jal	ra,1001c38 <BN_sub_abs>
 10020a2:	413009bb          	negw	s3,s3
 10020a6:	01392023          	sw	s3,0(s2)
 10020aa:	a029                	j	10020b4 <BN_add+0x58>
 10020ac:	affff0ef          	jal	ra,1001baa <BN_add_abs>
 10020b0:	01392023          	sw	s3,0(s2)
 10020b4:	70a2                	ld	ra,40(sp)
 10020b6:	7402                	ld	s0,32(sp)
 10020b8:	64e2                	ld	s1,24(sp)
 10020ba:	6942                	ld	s2,16(sp)
 10020bc:	69a2                	ld	s3,8(sp)
 10020be:	6145                	addi	sp,sp,48
 10020c0:	8082                	ret

00000000010020c2 <BN_mont_mul>:
 10020c2:	db010113          	addi	sp,sp,-592
 10020c6:	24113423          	sd	ra,584(sp)
 10020ca:	24813023          	sd	s0,576(sp)
 10020ce:	22913c23          	sd	s1,568(sp)
 10020d2:	23213823          	sd	s2,560(sp)
 10020d6:	23313423          	sd	s3,552(sp)
 10020da:	842a                	mv	s0,a0
 10020dc:	89ae                	mv	s3,a1
 10020de:	84b2                	mv	s1,a2
 10020e0:	8936                	mv	s2,a3
 10020e2:	85b2                	mv	a1,a2
 10020e4:	0c28                	addi	a0,sp,536
 10020e6:	88bff0ef          	jal	ra,1001970 <BN_montg_init>
 10020ea:	870a                	mv	a4,sp
 10020ec:	21813683          	ld	a3,536(sp)
 10020f0:	8626                	mv	a2,s1
 10020f2:	85ce                	mv	a1,s3
 10020f4:	8522                	mv	a0,s0
 10020f6:	947ff0ef          	jal	ra,1001a3c <BN_montmul>
 10020fa:	870a                	mv	a4,sp
 10020fc:	21813683          	ld	a3,536(sp)
 1002100:	8626                	mv	a2,s1
 1002102:	85ca                	mv	a1,s2
 1002104:	8522                	mv	a0,s0
 1002106:	937ff0ef          	jal	ra,1001a3c <BN_montmul>
 100210a:	4785                	li	a5,1
 100210c:	c01c                	sw	a5,0(s0)
 100210e:	24813083          	ld	ra,584(sp)
 1002112:	24013403          	ld	s0,576(sp)
 1002116:	23813483          	ld	s1,568(sp)
 100211a:	23013903          	ld	s2,560(sp)
 100211e:	22813983          	ld	s3,552(sp)
 1002122:	25010113          	addi	sp,sp,592
 1002126:	8082                	ret

0000000001002128 <BN_shift_right>:
 1002128:	6785                	lui	a5,0x1
 100212a:	87f78793          	addi	a5,a5,-1921 # 87f <_tbss_end+0x87f>
 100212e:	02b7e463          	bltu	a5,a1,1002156 <BN_shift_right+0x2e>
 1002132:	0065d693          	srli	a3,a1,0x6
 1002136:	03f5f813          	andi	a6,a1,63
 100213a:	02100793          	li	a5,33
 100213e:	00f68a63          	beq	a3,a5,1002152 <BN_shift_right+0x2a>
 1002142:	03f00793          	li	a5,63
 1002146:	04b7e063          	bltu	a5,a1,1002186 <BN_shift_right+0x5e>
 100214a:	04081b63          	bnez	a6,10021a0 <BN_shift_right+0x78>
 100214e:	4501                	li	a0,0
 1002150:	8082                	ret
 1002152:	fe0808e3          	beqz	a6,1002142 <BN_shift_right+0x1a>
 1002156:	1141                	addi	sp,sp,-16
 1002158:	e406                	sd	ra,8(sp)
 100215a:	4581                	li	a1,0
 100215c:	f71fe0ef          	jal	ra,10010cc <BN_lset>
 1002160:	60a2                	ld	ra,8(sp)
 1002162:	0141                	addi	sp,sp,16
 1002164:	8082                	ret
 1002166:	00d78733          	add	a4,a5,a3
 100216a:	070e                	slli	a4,a4,0x3
 100216c:	972a                	add	a4,a4,a0
 100216e:	6710                	ld	a2,8(a4)
 1002170:	00379713          	slli	a4,a5,0x3
 1002174:	972a                	add	a4,a4,a0
 1002176:	e710                	sd	a2,8(a4)
 1002178:	0785                	addi	a5,a5,1
 100217a:	02100713          	li	a4,33
 100217e:	8f15                	sub	a4,a4,a3
 1002180:	fee7e3e3          	bltu	a5,a4,1002166 <BN_shift_right+0x3e>
 1002184:	a809                	j	1002196 <BN_shift_right+0x6e>
 1002186:	4781                	li	a5,0
 1002188:	bfcd                	j	100217a <BN_shift_right+0x52>
 100218a:	00379713          	slli	a4,a5,0x3
 100218e:	972a                	add	a4,a4,a0
 1002190:	00073423          	sd	zero,8(a4)
 1002194:	0785                	addi	a5,a5,1
 1002196:	02000713          	li	a4,32
 100219a:	fef778e3          	bgeu	a4,a5,100218a <BN_shift_right+0x62>
 100219e:	b775                	j	100214a <BN_shift_right+0x22>
 10021a0:	4881                	li	a7,0
 10021a2:	02100713          	li	a4,33
 10021a6:	c315                	beqz	a4,10021ca <BN_shift_right+0xa2>
 10021a8:	177d                	addi	a4,a4,-1
 10021aa:	00371793          	slli	a5,a4,0x3
 10021ae:	97aa                	add	a5,a5,a0
 10021b0:	678c                	ld	a1,8(a5)
 10021b2:	04000693          	li	a3,64
 10021b6:	410686bb          	subw	a3,a3,a6
 10021ba:	0105d633          	srl	a2,a1,a6
 10021be:	01166633          	or	a2,a2,a7
 10021c2:	e790                	sd	a2,8(a5)
 10021c4:	00d598b3          	sll	a7,a1,a3
 10021c8:	bff9                	j	10021a6 <BN_shift_right+0x7e>
 10021ca:	4501                	li	a0,0
 10021cc:	8082                	ret

00000000010021ce <BN_gcd>:
 10021ce:	a8010113          	addi	sp,sp,-1408
 10021d2:	56113c23          	sd	ra,1400(sp)
 10021d6:	56813823          	sd	s0,1392(sp)
 10021da:	56913423          	sd	s1,1384(sp)
 10021de:	57213023          	sd	s2,1376(sp)
 10021e2:	892a                	mv	s2,a0
 10021e4:	84ae                	mv	s1,a1
 10021e6:	8432                	mv	s0,a2
 10021e8:	45010513          	addi	a0,sp,1104
 10021ec:	965ff0ef          	jal	ra,1001b50 <BN_init>
 10021f0:	1c08                	addi	a0,sp,560
 10021f2:	95fff0ef          	jal	ra,1001b50 <BN_init>
 10021f6:	1208                	addi	a0,sp,288
 10021f8:	959ff0ef          	jal	ra,1001b50 <BN_init>
 10021fc:	0808                	addi	a0,sp,16
 10021fe:	953ff0ef          	jal	ra,1001b50 <BN_init>
 1002202:	85a6                	mv	a1,s1
 1002204:	1208                	addi	a0,sp,288
 1002206:	96bff0ef          	jal	ra,1001b70 <BN_copy>
 100220a:	85a2                	mv	a1,s0
 100220c:	0808                	addi	a0,sp,16
 100220e:	963ff0ef          	jal	ra,1001b70 <BN_copy>
 1002212:	03100793          	li	a5,49
 1002216:	00f11423          	sh	a5,8(sp)
 100221a:	03000793          	li	a5,48
 100221e:	00f11023          	sh	a5,0(sp)
 1002222:	002c                	addi	a1,sp,8
 1002224:	45010513          	addi	a0,sp,1104
 1002228:	b49ff0ef          	jal	ra,1001d70 <BN_hex2bn>
 100222c:	858a                	mv	a1,sp
 100222e:	1c08                	addi	a0,sp,560
 1002230:	b41ff0ef          	jal	ra,1001d70 <BN_hex2bn>
 1002234:	4401                	li	s0,0
 1002236:	a811                	j	100224a <BN_gcd+0x7c>
 1002238:	4585                	li	a1,1
 100223a:	1208                	addi	a0,sp,288
 100223c:	eedff0ef          	jal	ra,1002128 <BN_shift_right>
 1002240:	4585                	li	a1,1
 1002242:	0808                	addi	a0,sp,16
 1002244:	ee5ff0ef          	jal	ra,1002128 <BN_shift_right>
 1002248:	2405                	addiw	s0,s0,1
 100224a:	77b2                	ld	a5,296(sp)
 100224c:	8b85                	andi	a5,a5,1
 100224e:	efa9                	bnez	a5,10022a8 <BN_gcd+0xda>
 1002250:	67e2                	ld	a5,24(sp)
 1002252:	8b85                	andi	a5,a5,1
 1002254:	d3f5                	beqz	a5,1002238 <BN_gcd+0x6a>
 1002256:	a889                	j	10022a8 <BN_gcd+0xda>
 1002258:	4585                	li	a1,1
 100225a:	1208                	addi	a0,sp,288
 100225c:	ecdff0ef          	jal	ra,1002128 <BN_shift_right>
 1002260:	77b2                	ld	a5,296(sp)
 1002262:	8b85                	andi	a5,a5,1
 1002264:	dbf5                	beqz	a5,1002258 <BN_gcd+0x8a>
 1002266:	a029                	j	1002270 <BN_gcd+0xa2>
 1002268:	4585                	li	a1,1
 100226a:	0808                	addi	a0,sp,16
 100226c:	ebdff0ef          	jal	ra,1002128 <BN_shift_right>
 1002270:	67e2                	ld	a5,24(sp)
 1002272:	8b85                	andi	a5,a5,1
 1002274:	dbf5                	beqz	a5,1002268 <BN_gcd+0x9a>
 1002276:	080c                	addi	a1,sp,16
 1002278:	1208                	addi	a0,sp,288
 100227a:	ca5ff0ef          	jal	ra,1001f1e <BN_compare>
 100227e:	02054d63          	bltz	a0,10022b8 <BN_gcd+0xea>
 1002282:	0810                	addi	a2,sp,16
 1002284:	120c                	addi	a1,sp,288
 1002286:	0688                	addi	a0,sp,832
 1002288:	d6fff0ef          	jal	ra,1001ff6 <BN_sub>
 100228c:	4585                	li	a1,1
 100228e:	0688                	addi	a0,sp,832
 1002290:	e99ff0ef          	jal	ra,1002128 <BN_shift_right>
 1002294:	080c                	addi	a1,sp,16
 1002296:	1208                	addi	a0,sp,288
 1002298:	c87ff0ef          	jal	ra,1001f1e <BN_compare>
 100229c:	02054863          	bltz	a0,10022cc <BN_gcd+0xfe>
 10022a0:	068c                	addi	a1,sp,832
 10022a2:	1208                	addi	a0,sp,288
 10022a4:	8cdff0ef          	jal	ra,1001b70 <BN_copy>
 10022a8:	1208                	addi	a0,sp,288
 10022aa:	f72ff0ef          	jal	ra,1001a1c <BN_compare_zero>
 10022ae:	4785                	li	a5,1
 10022b0:	faf518e3          	bne	a0,a5,1002260 <BN_gcd+0x92>
 10022b4:	4481                	li	s1,0
 10022b6:	a025                	j	10022de <BN_gcd+0x110>
 10022b8:	1210                	addi	a2,sp,288
 10022ba:	080c                	addi	a1,sp,16
 10022bc:	0688                	addi	a0,sp,832
 10022be:	d39ff0ef          	jal	ra,1001ff6 <BN_sub>
 10022c2:	4585                	li	a1,1
 10022c4:	0688                	addi	a0,sp,832
 10022c6:	e63ff0ef          	jal	ra,1002128 <BN_shift_right>
 10022ca:	b7e9                	j	1002294 <BN_gcd+0xc6>
 10022cc:	068c                	addi	a1,sp,832
 10022ce:	0808                	addi	a0,sp,16
 10022d0:	8a1ff0ef          	jal	ra,1001b70 <BN_copy>
 10022d4:	bfd1                	j	10022a8 <BN_gcd+0xda>
 10022d6:	0808                	addi	a0,sp,16
 10022d8:	f04ff0ef          	jal	ra,10019dc <BN_shift_left>
 10022dc:	2485                	addiw	s1,s1,1
 10022de:	fe84cce3          	blt	s1,s0,10022d6 <BN_gcd+0x108>
 10022e2:	080c                	addi	a1,sp,16
 10022e4:	854a                	mv	a0,s2
 10022e6:	88bff0ef          	jal	ra,1001b70 <BN_copy>
 10022ea:	57813083          	ld	ra,1400(sp)
 10022ee:	57013403          	ld	s0,1392(sp)
 10022f2:	56813483          	ld	s1,1384(sp)
 10022f6:	56013903          	ld	s2,1376(sp)
 10022fa:	58010113          	addi	sp,sp,1408
 10022fe:	8082                	ret

0000000001002300 <BN_inv_mod>:
 1002300:	81010113          	addi	sp,sp,-2032
 1002304:	7e113423          	sd	ra,2024(sp)
 1002308:	7e813023          	sd	s0,2016(sp)
 100230c:	7c913c23          	sd	s1,2008(sp)
 1002310:	7d213823          	sd	s2,2000(sp)
 1002314:	7d313423          	sd	s3,1992(sp)
 1002318:	7d413023          	sd	s4,1984(sp)
 100231c:	7b513c23          	sd	s5,1976(sp)
 1002320:	7b613823          	sd	s6,1968(sp)
 1002324:	ad010113          	addi	sp,sp,-1328
 1002328:	892a                	mv	s2,a0
 100232a:	8aae                	mv	s5,a1
 100232c:	84b2                	mv	s1,a2
 100232e:	89b6                	mv	s3,a3
 1002330:	6b05                	lui	s6,0x1
 1002332:	ab0b0513          	addi	a0,s6,-1360 # ab0 <_tbss_end+0xab0>
 1002336:	081c                	addi	a5,sp,16
 1002338:	953e                	add	a0,a0,a5
 100233a:	817ff0ef          	jal	ra,1001b50 <BN_init>
 100233e:	9a0b0793          	addi	a5,s6,-1632
 1002342:	0818                	addi	a4,sp,16
 1002344:	00f70533          	add	a0,a4,a5
 1002348:	809ff0ef          	jal	ra,1001b50 <BN_init>
 100234c:	890b0793          	addi	a5,s6,-1904
 1002350:	0818                	addi	a4,sp,16
 1002352:	00f70533          	add	a0,a4,a5
 1002356:	ffaff0ef          	jal	ra,1001b50 <BN_init>
 100235a:	79010513          	addi	a0,sp,1936
 100235e:	ff2ff0ef          	jal	ra,1001b50 <BN_init>
 1002362:	bc0b0793          	addi	a5,s6,-1088
 1002366:	0818                	addi	a4,sp,16
 1002368:	00f70533          	add	a0,a4,a5
 100236c:	fe4ff0ef          	jal	ra,1001b50 <BN_init>
 1002370:	68010513          	addi	a0,sp,1664
 1002374:	fdcff0ef          	jal	ra,1001b50 <BN_init>
 1002378:	57010513          	addi	a0,sp,1392
 100237c:	fd4ff0ef          	jal	ra,1001b50 <BN_init>
 1002380:	747d                	lui	s0,0xfffff
 1002382:	78040513          	addi	a0,s0,1920 # fffffffffffff780 <fromhost+0xffffffff7ffff740>
 1002386:	cd0b0793          	addi	a5,s6,-816
 100238a:	0818                	addi	a4,sp,16
 100238c:	97ba                	add	a5,a5,a4
 100238e:	953e                	add	a0,a0,a5
 1002390:	fc0ff0ef          	jal	ra,1001b50 <BN_init>
 1002394:	67040513          	addi	a0,s0,1648
 1002398:	cd0b0793          	addi	a5,s6,-816
 100239c:	0818                	addi	a4,sp,16
 100239e:	97ba                	add	a5,a5,a4
 10023a0:	953e                	add	a0,a0,a5
 10023a2:	faeff0ef          	jal	ra,1001b50 <BN_init>
 10023a6:	56040a13          	addi	s4,s0,1376
 10023aa:	cd0b0793          	addi	a5,s6,-816
 10023ae:	0818                	addi	a4,sp,16
 10023b0:	97ba                	add	a5,a5,a4
 10023b2:	9a3e                	add	s4,s4,a5
 10023b4:	8552                	mv	a0,s4
 10023b6:	f9aff0ef          	jal	ra,1001b50 <BN_init>
 10023ba:	45040513          	addi	a0,s0,1104
 10023be:	cd0b0793          	addi	a5,s6,-816
 10023c2:	0818                	addi	a4,sp,16
 10023c4:	97ba                	add	a5,a5,a4
 10023c6:	953e                	add	a0,a0,a5
 10023c8:	f88ff0ef          	jal	ra,1001b50 <BN_init>
 10023cc:	03100793          	li	a5,49
 10023d0:	12f11423          	sh	a5,296(sp)
 10023d4:	44840413          	addi	s0,s0,1096
 10023d8:	cd0b0793          	addi	a5,s6,-816
 10023dc:	0818                	addi	a4,sp,16
 10023de:	97ba                	add	a5,a5,a4
 10023e0:	008785b3          	add	a1,a5,s0
 10023e4:	8552                	mv	a0,s4
 10023e6:	98bff0ef          	jal	ra,1001d70 <BN_hex2bn>
 10023ea:	85d6                	mv	a1,s5
 10023ec:	ab0b0513          	addi	a0,s6,-1360
 10023f0:	081c                	addi	a5,sp,16
 10023f2:	953e                	add	a0,a0,a5
 10023f4:	f7cff0ef          	jal	ra,1001b70 <BN_copy>
 10023f8:	874e                	mv	a4,s3
 10023fa:	081c                	addi	a5,sp,16
 10023fc:	10098693          	addi	a3,s3,256
 1002400:	00073803          	ld	a6,0(a4)
 1002404:	6708                	ld	a0,8(a4)
 1002406:	6b0c                	ld	a1,16(a4)
 1002408:	6f10                	ld	a2,24(a4)
 100240a:	0107b023          	sd	a6,0(a5)
 100240e:	e788                	sd	a0,8(a5)
 1002410:	eb8c                	sd	a1,16(a5)
 1002412:	ef90                	sd	a2,24(a5)
 1002414:	02070713          	addi	a4,a4,32
 1002418:	02078793          	addi	a5,a5,32
 100241c:	fed712e3          	bne	a4,a3,1002400 <BN_inv_mod+0x100>
 1002420:	6314                	ld	a3,0(a4)
 1002422:	6718                	ld	a4,8(a4)
 1002424:	e394                	sd	a3,0(a5)
 1002426:	e798                	sd	a4,8(a5)
 1002428:	747d                	lui	s0,0xfffff
 100242a:	33040693          	addi	a3,s0,816 # fffffffffffff330 <fromhost+0xffffffff7ffff2f0>
 100242e:	56040593          	addi	a1,s0,1376
 1002432:	6985                	lui	s3,0x1
 1002434:	cd098793          	addi	a5,s3,-816 # cd0 <_tbss_end+0xcd0>
 1002438:	0818                	addi	a4,sp,16
 100243a:	97ba                	add	a5,a5,a4
 100243c:	96be                	add	a3,a3,a5
 100243e:	8626                	mv	a2,s1
 1002440:	cd098793          	addi	a5,s3,-816
 1002444:	97ba                	add	a5,a5,a4
 1002446:	95be                	add	a1,a1,a5
 1002448:	ab098513          	addi	a0,s3,-1360
 100244c:	953a                	add	a0,a0,a4
 100244e:	c75ff0ef          	jal	ra,10020c2 <BN_mont_mul>
 1002452:	ab098593          	addi	a1,s3,-1360
 1002456:	081c                	addi	a5,sp,16
 1002458:	95be                	add	a1,a1,a5
 100245a:	9a098793          	addi	a5,s3,-1632
 100245e:	0818                	addi	a4,sp,16
 1002460:	00f70533          	add	a0,a4,a5
 1002464:	f0cff0ef          	jal	ra,1001b70 <BN_copy>
 1002468:	85a6                	mv	a1,s1
 100246a:	68010513          	addi	a0,sp,1664
 100246e:	f02ff0ef          	jal	ra,1001b70 <BN_copy>
 1002472:	85a6                	mv	a1,s1
 1002474:	57010513          	addi	a0,sp,1392
 1002478:	ef8ff0ef          	jal	ra,1001b70 <BN_copy>
 100247c:	4585                	li	a1,1
 100247e:	89098793          	addi	a5,s3,-1904
 1002482:	0818                	addi	a4,sp,16
 1002484:	00f70533          	add	a0,a4,a5
 1002488:	c45fe0ef          	jal	ra,10010cc <BN_lset>
 100248c:	4581                	li	a1,0
 100248e:	79010513          	addi	a0,sp,1936
 1002492:	c3bfe0ef          	jal	ra,10010cc <BN_lset>
 1002496:	78040513          	addi	a0,s0,1920
 100249a:	4581                	li	a1,0
 100249c:	cd098793          	addi	a5,s3,-816
 10024a0:	0818                	addi	a4,sp,16
 10024a2:	97ba                	add	a5,a5,a4
 10024a4:	953e                	add	a0,a0,a5
 10024a6:	c27fe0ef          	jal	ra,10010cc <BN_lset>
 10024aa:	67040513          	addi	a0,s0,1648
 10024ae:	4585                	li	a1,1
 10024b0:	cd098793          	addi	a5,s3,-816
 10024b4:	0818                	addi	a4,sp,16
 10024b6:	97ba                	add	a5,a5,a4
 10024b8:	953e                	add	a0,a0,a5
 10024ba:	c13fe0ef          	jal	ra,10010cc <BN_lset>
 10024be:	aa29                	j	10025d8 <BN_inv_mod+0x2d8>
 10024c0:	747d                	lui	s0,0xfffff
 10024c2:	78040513          	addi	a0,s0,1920 # fffffffffffff780 <fromhost+0xffffffff7ffff740>
 10024c6:	6985                	lui	s3,0x1
 10024c8:	cd098793          	addi	a5,s3,-816 # cd0 <_tbss_end+0xcd0>
 10024cc:	0818                	addi	a4,sp,16
 10024ce:	97ba                	add	a5,a5,a4
 10024d0:	953e                	add	a0,a0,a5
 10024d2:	68010613          	addi	a2,sp,1664
 10024d6:	85aa                	mv	a1,a0
 10024d8:	b85ff0ef          	jal	ra,100205c <BN_add>
 10024dc:	67040513          	addi	a0,s0,1648
 10024e0:	cd098793          	addi	a5,s3,-816
 10024e4:	0818                	addi	a4,sp,16
 10024e6:	97ba                	add	a5,a5,a4
 10024e8:	953e                	add	a0,a0,a5
 10024ea:	ab098793          	addi	a5,s3,-1360
 10024ee:	00f70633          	add	a2,a4,a5
 10024f2:	85aa                	mv	a1,a0
 10024f4:	b03ff0ef          	jal	ra,1001ff6 <BN_sub>
 10024f8:	747d                	lui	s0,0xfffff
 10024fa:	78040513          	addi	a0,s0,1920 # fffffffffffff780 <fromhost+0xffffffff7ffff740>
 10024fe:	4585                	li	a1,1
 1002500:	6985                	lui	s3,0x1
 1002502:	cd098793          	addi	a5,s3,-816 # cd0 <_tbss_end+0xcd0>
 1002506:	0818                	addi	a4,sp,16
 1002508:	97ba                	add	a5,a5,a4
 100250a:	953e                	add	a0,a0,a5
 100250c:	c1dff0ef          	jal	ra,1002128 <BN_shift_right>
 1002510:	67040513          	addi	a0,s0,1648
 1002514:	4585                	li	a1,1
 1002516:	cd098793          	addi	a5,s3,-816
 100251a:	0818                	addi	a4,sp,16
 100251c:	97ba                	add	a5,a5,a4
 100251e:	953e                	add	a0,a0,a5
 1002520:	c09ff0ef          	jal	ra,1002128 <BN_shift_right>
 1002524:	57813783          	ld	a5,1400(sp)
 1002528:	8b85                	andi	a5,a5,1
 100252a:	ef85                	bnez	a5,1002562 <BN_inv_mod+0x262>
 100252c:	4585                	li	a1,1
 100252e:	57010513          	addi	a0,sp,1392
 1002532:	bf7ff0ef          	jal	ra,1002128 <BN_shift_right>
 1002536:	77fd                	lui	a5,0xfffff
 1002538:	6685                	lui	a3,0x1
 100253a:	cd068713          	addi	a4,a3,-816 # cd0 <_tbss_end+0xcd0>
 100253e:	0810                	addi	a2,sp,16
 1002540:	9732                	add	a4,a4,a2
 1002542:	97ba                	add	a5,a5,a4
 1002544:	e43e                	sd	a5,8(sp)
 1002546:	7887b783          	ld	a5,1928(a5) # fffffffffffff788 <fromhost+0xffffffff7ffff748>
 100254a:	8b85                	andi	a5,a5,1
 100254c:	fbb5                	bnez	a5,10024c0 <BN_inv_mod+0x1c0>
 100254e:	77fd                	lui	a5,0xfffff
 1002550:	cd068713          	addi	a4,a3,-816
 1002554:	9732                	add	a4,a4,a2
 1002556:	97ba                	add	a5,a5,a4
 1002558:	6787b783          	ld	a5,1656(a5) # fffffffffffff678 <fromhost+0xffffffff7ffff638>
 100255c:	8b85                	andi	a5,a5,1
 100255e:	dfc9                	beqz	a5,10024f8 <BN_inv_mod+0x1f8>
 1002560:	b785                	j	10024c0 <BN_inv_mod+0x1c0>
 1002562:	57010593          	addi	a1,sp,1392
 1002566:	6405                	lui	s0,0x1
 1002568:	9a040793          	addi	a5,s0,-1632 # 9a0 <_tbss_end+0x9a0>
 100256c:	0818                	addi	a4,sp,16
 100256e:	00f70533          	add	a0,a4,a5
 1002572:	9adff0ef          	jal	ra,1001f1e <BN_compare>
 1002576:	0e054063          	bltz	a0,1002656 <BN_inv_mod+0x356>
 100257a:	57010613          	addi	a2,sp,1392
 100257e:	9a040593          	addi	a1,s0,-1632
 1002582:	081c                	addi	a5,sp,16
 1002584:	95be                	add	a1,a1,a5
 1002586:	89a2                	mv	s3,s0
 1002588:	852e                	mv	a0,a1
 100258a:	a6dff0ef          	jal	ra,1001ff6 <BN_sub>
 100258e:	747d                	lui	s0,0xfffff
 1002590:	78040613          	addi	a2,s0,1920 # fffffffffffff780 <fromhost+0xffffffff7ffff740>
 1002594:	cd098793          	addi	a5,s3,-816
 1002598:	0818                	addi	a4,sp,16
 100259a:	97ba                	add	a5,a5,a4
 100259c:	963e                	add	a2,a2,a5
 100259e:	89098593          	addi	a1,s3,-1904
 10025a2:	95ba                	add	a1,a1,a4
 10025a4:	852e                	mv	a0,a1
 10025a6:	a51ff0ef          	jal	ra,1001ff6 <BN_sub>
 10025aa:	67040613          	addi	a2,s0,1648
 10025ae:	cd098793          	addi	a5,s3,-816
 10025b2:	0818                	addi	a4,sp,16
 10025b4:	97ba                	add	a5,a5,a4
 10025b6:	963e                	add	a2,a2,a5
 10025b8:	79010593          	addi	a1,sp,1936
 10025bc:	852e                	mv	a0,a1
 10025be:	a39ff0ef          	jal	ra,1001ff6 <BN_sub>
 10025c2:	4581                	li	a1,0
 10025c4:	6785                	lui	a5,0x1
 10025c6:	9a078793          	addi	a5,a5,-1632 # 9a0 <_tbss_end+0x9a0>
 10025ca:	0818                	addi	a4,sp,16
 10025cc:	00f70533          	add	a0,a4,a5
 10025d0:	9ebff0ef          	jal	ra,1001fba <BN_cmp_int>
 10025d4:	0e050563          	beqz	a0,10026be <BN_inv_mod+0x3be>
 10025d8:	6785                	lui	a5,0x1
 10025da:	9a878793          	addi	a5,a5,-1624 # 9a8 <_tbss_end+0x9a8>
 10025de:	0818                	addi	a4,sp,16
 10025e0:	97ba                	add	a5,a5,a4
 10025e2:	639c                	ld	a5,0(a5)
 10025e4:	8b85                	andi	a5,a5,1
 10025e6:	ff9d                	bnez	a5,1002524 <BN_inv_mod+0x224>
 10025e8:	4585                	li	a1,1
 10025ea:	6405                	lui	s0,0x1
 10025ec:	9a040793          	addi	a5,s0,-1632 # 9a0 <_tbss_end+0x9a0>
 10025f0:	0818                	addi	a4,sp,16
 10025f2:	00f70533          	add	a0,a4,a5
 10025f6:	b33ff0ef          	jal	ra,1002128 <BN_shift_right>
 10025fa:	89840793          	addi	a5,s0,-1896
 10025fe:	0818                	addi	a4,sp,16
 1002600:	97ba                	add	a5,a5,a4
 1002602:	639c                	ld	a5,0(a5)
 1002604:	8b85                	andi	a5,a5,1
 1002606:	e789                	bnez	a5,1002610 <BN_inv_mod+0x310>
 1002608:	79813783          	ld	a5,1944(sp)
 100260c:	8b85                	andi	a5,a5,1
 100260e:	c78d                	beqz	a5,1002638 <BN_inv_mod+0x338>
 1002610:	68010613          	addi	a2,sp,1664
 1002614:	6405                	lui	s0,0x1
 1002616:	89040593          	addi	a1,s0,-1904 # 890 <_tbss_end+0x890>
 100261a:	081c                	addi	a5,sp,16
 100261c:	95be                	add	a1,a1,a5
 100261e:	852e                	mv	a0,a1
 1002620:	a3dff0ef          	jal	ra,100205c <BN_add>
 1002624:	ab040793          	addi	a5,s0,-1360
 1002628:	0818                	addi	a4,sp,16
 100262a:	00f70633          	add	a2,a4,a5
 100262e:	79010593          	addi	a1,sp,1936
 1002632:	852e                	mv	a0,a1
 1002634:	9c3ff0ef          	jal	ra,1001ff6 <BN_sub>
 1002638:	4585                	li	a1,1
 100263a:	6785                	lui	a5,0x1
 100263c:	89078793          	addi	a5,a5,-1904 # 890 <_tbss_end+0x890>
 1002640:	0818                	addi	a4,sp,16
 1002642:	00f70533          	add	a0,a4,a5
 1002646:	ae3ff0ef          	jal	ra,1002128 <BN_shift_right>
 100264a:	4585                	li	a1,1
 100264c:	79010513          	addi	a0,sp,1936
 1002650:	ad9ff0ef          	jal	ra,1002128 <BN_shift_right>
 1002654:	b751                	j	10025d8 <BN_inv_mod+0x2d8>
 1002656:	6985                	lui	s3,0x1
 1002658:	9a098793          	addi	a5,s3,-1632 # 9a0 <_tbss_end+0x9a0>
 100265c:	0818                	addi	a4,sp,16
 100265e:	00f70633          	add	a2,a4,a5
 1002662:	57010593          	addi	a1,sp,1392
 1002666:	852e                	mv	a0,a1
 1002668:	98fff0ef          	jal	ra,1001ff6 <BN_sub>
 100266c:	747d                	lui	s0,0xfffff
 100266e:	78040513          	addi	a0,s0,1920 # fffffffffffff780 <fromhost+0xffffffff7ffff740>
 1002672:	cd098793          	addi	a5,s3,-816
 1002676:	0818                	addi	a4,sp,16
 1002678:	97ba                	add	a5,a5,a4
 100267a:	953e                	add	a0,a0,a5
 100267c:	89098793          	addi	a5,s3,-1904
 1002680:	00f70633          	add	a2,a4,a5
 1002684:	85aa                	mv	a1,a0
 1002686:	971ff0ef          	jal	ra,1001ff6 <BN_sub>
 100268a:	67040513          	addi	a0,s0,1648
 100268e:	cd098793          	addi	a5,s3,-816
 1002692:	0818                	addi	a4,sp,16
 1002694:	97ba                	add	a5,a5,a4
 1002696:	953e                	add	a0,a0,a5
 1002698:	79010613          	addi	a2,sp,1936
 100269c:	85aa                	mv	a1,a0
 100269e:	959ff0ef          	jal	ra,1001ff6 <BN_sub>
 10026a2:	b705                	j	10025c2 <BN_inv_mod+0x2c2>
 10026a4:	757d                	lui	a0,0xfffff
 10026a6:	78050513          	addi	a0,a0,1920 # fffffffffffff780 <fromhost+0xffffffff7ffff740>
 10026aa:	6785                	lui	a5,0x1
 10026ac:	cd078793          	addi	a5,a5,-816 # cd0 <_tbss_end+0xcd0>
 10026b0:	0818                	addi	a4,sp,16
 10026b2:	97ba                	add	a5,a5,a4
 10026b4:	953e                	add	a0,a0,a5
 10026b6:	8626                	mv	a2,s1
 10026b8:	85aa                	mv	a1,a0
 10026ba:	9a3ff0ef          	jal	ra,100205c <BN_add>
 10026be:	4581                	li	a1,0
 10026c0:	757d                	lui	a0,0xfffff
 10026c2:	78050513          	addi	a0,a0,1920 # fffffffffffff780 <fromhost+0xffffffff7ffff740>
 10026c6:	6785                	lui	a5,0x1
 10026c8:	cd078793          	addi	a5,a5,-816 # cd0 <_tbss_end+0xcd0>
 10026cc:	0818                	addi	a4,sp,16
 10026ce:	97ba                	add	a5,a5,a4
 10026d0:	953e                	add	a0,a0,a5
 10026d2:	8e9ff0ef          	jal	ra,1001fba <BN_cmp_int>
 10026d6:	fc0547e3          	bltz	a0,10026a4 <BN_inv_mod+0x3a4>
 10026da:	a831                	j	10026f6 <BN_inv_mod+0x3f6>
 10026dc:	757d                	lui	a0,0xfffff
 10026de:	78050513          	addi	a0,a0,1920 # fffffffffffff780 <fromhost+0xffffffff7ffff740>
 10026e2:	6785                	lui	a5,0x1
 10026e4:	cd078793          	addi	a5,a5,-816 # cd0 <_tbss_end+0xcd0>
 10026e8:	0818                	addi	a4,sp,16
 10026ea:	97ba                	add	a5,a5,a4
 10026ec:	953e                	add	a0,a0,a5
 10026ee:	8626                	mv	a2,s1
 10026f0:	85aa                	mv	a1,a0
 10026f2:	905ff0ef          	jal	ra,1001ff6 <BN_sub>
 10026f6:	85a6                	mv	a1,s1
 10026f8:	757d                	lui	a0,0xfffff
 10026fa:	78050513          	addi	a0,a0,1920 # fffffffffffff780 <fromhost+0xffffffff7ffff740>
 10026fe:	6785                	lui	a5,0x1
 1002700:	cd078793          	addi	a5,a5,-816 # cd0 <_tbss_end+0xcd0>
 1002704:	0818                	addi	a4,sp,16
 1002706:	97ba                	add	a5,a5,a4
 1002708:	953e                	add	a0,a0,a5
 100270a:	815ff0ef          	jal	ra,1001f1e <BN_compare>
 100270e:	fc0557e3          	bgez	a0,10026dc <BN_inv_mod+0x3dc>
 1002712:	75fd                	lui	a1,0xfffff
 1002714:	78058593          	addi	a1,a1,1920 # fffffffffffff780 <fromhost+0xffffffff7ffff740>
 1002718:	6785                	lui	a5,0x1
 100271a:	cd078793          	addi	a5,a5,-816 # cd0 <_tbss_end+0xcd0>
 100271e:	0818                	addi	a4,sp,16
 1002720:	97ba                	add	a5,a5,a4
 1002722:	95be                	add	a1,a1,a5
 1002724:	854a                	mv	a0,s2
 1002726:	c4aff0ef          	jal	ra,1001b70 <BN_copy>
 100272a:	4501                	li	a0,0
 100272c:	53010113          	addi	sp,sp,1328
 1002730:	7e813083          	ld	ra,2024(sp)
 1002734:	7e013403          	ld	s0,2016(sp)
 1002738:	7d813483          	ld	s1,2008(sp)
 100273c:	7d013903          	ld	s2,2000(sp)
 1002740:	7c813983          	ld	s3,1992(sp)
 1002744:	7c013a03          	ld	s4,1984(sp)
 1002748:	7b813a83          	ld	s5,1976(sp)
 100274c:	7b013b03          	ld	s6,1968(sp)
 1002750:	7f010113          	addi	sp,sp,2032
 1002754:	8082                	ret

0000000001002756 <BN_inverse>:
 1002756:	d3010113          	addi	sp,sp,-720
 100275a:	2c113423          	sd	ra,712(sp)
 100275e:	2c813023          	sd	s0,704(sp)
 1002762:	2a913c23          	sd	s1,696(sp)
 1002766:	2b213823          	sd	s2,688(sp)
 100276a:	842a                	mv	s0,a0
 100276c:	84ae                	mv	s1,a1
 100276e:	8932                	mv	s2,a2
 1002770:	1308                	addi	a0,sp,416
 1002772:	bdeff0ef          	jal	ra,1001b50 <BN_init>
 1002776:	00001797          	auipc	a5,0x1
 100277a:	fc278793          	addi	a5,a5,-62 # 1003738 <strncmp+0x2c6>
 100277e:	0a38                	addi	a4,sp,280
 1002780:	00001697          	auipc	a3,0x1
 1002784:	03868693          	addi	a3,a3,56 # 10037b8 <strncmp+0x346>
 1002788:	0007b803          	ld	a6,0(a5)
 100278c:	6788                	ld	a0,8(a5)
 100278e:	6b8c                	ld	a1,16(a5)
 1002790:	6f90                	ld	a2,24(a5)
 1002792:	01073023          	sd	a6,0(a4)
 1002796:	e708                	sd	a0,8(a4)
 1002798:	eb0c                	sd	a1,16(a4)
 100279a:	ef10                	sd	a2,24(a4)
 100279c:	02078793          	addi	a5,a5,32
 10027a0:	02070713          	addi	a4,a4,32
 10027a4:	fed792e3          	bne	a5,a3,1002788 <BN_inverse+0x32>
 10027a8:	0007c783          	lbu	a5,0(a5)
 10027ac:	00f70023          	sb	a5,0(a4)
 10027b0:	0a2c                	addi	a1,sp,280
 10027b2:	1308                	addi	a0,sp,416
 10027b4:	dbcff0ef          	jal	ra,1001d70 <BN_hex2bn>
 10027b8:	131c                	addi	a5,sp,416
 10027ba:	870a                	mv	a4,sp
 10027bc:	1514                	addi	a3,sp,672
 10027be:	0007b803          	ld	a6,0(a5)
 10027c2:	6788                	ld	a0,8(a5)
 10027c4:	6b8c                	ld	a1,16(a5)
 10027c6:	6f90                	ld	a2,24(a5)
 10027c8:	01073023          	sd	a6,0(a4)
 10027cc:	e708                	sd	a0,8(a4)
 10027ce:	eb0c                	sd	a1,16(a4)
 10027d0:	ef10                	sd	a2,24(a4)
 10027d2:	02078793          	addi	a5,a5,32
 10027d6:	02070713          	addi	a4,a4,32
 10027da:	fed792e3          	bne	a5,a3,10027be <BN_inverse+0x68>
 10027de:	6394                	ld	a3,0(a5)
 10027e0:	679c                	ld	a5,8(a5)
 10027e2:	e314                	sd	a3,0(a4)
 10027e4:	e71c                	sd	a5,8(a4)
 10027e6:	868a                	mv	a3,sp
 10027e8:	864a                	mv	a2,s2
 10027ea:	85a6                	mv	a1,s1
 10027ec:	8522                	mv	a0,s0
 10027ee:	b13ff0ef          	jal	ra,1002300 <BN_inv_mod>
 10027f2:	2c813083          	ld	ra,712(sp)
 10027f6:	2c013403          	ld	s0,704(sp)
 10027fa:	2b813483          	ld	s1,696(sp)
 10027fe:	2b013903          	ld	s2,688(sp)
 1002802:	2d010113          	addi	sp,sp,720
 1002806:	8082                	ret

0000000001002808 <BN_exp_mod>:
 1002808:	7159                	addi	sp,sp,-112
 100280a:	f486                	sd	ra,104(sp)
 100280c:	f0a2                	sd	s0,96(sp)
 100280e:	eca6                	sd	s1,88(sp)
 1002810:	e8ca                	sd	s2,80(sp)
 1002812:	e4ce                	sd	s3,72(sp)
 1002814:	e0d2                	sd	s4,64(sp)
 1002816:	fc56                	sd	s5,56(sp)
 1002818:	f85a                	sd	s6,48(sp)
 100281a:	f45e                	sd	s7,40(sp)
 100281c:	f062                	sd	s8,32(sp)
 100281e:	ec66                	sd	s9,24(sp)
 1002820:	e86a                	sd	s10,16(sp)
 1002822:	735d                	lui	t1,0xffff7
 1002824:	4d030313          	addi	t1,t1,1232 # ffffffffffff74d0 <fromhost+0xffffffff7fff7490>
 1002828:	911a                	add	sp,sp,t1
 100282a:	892a                	mv	s2,a0
 100282c:	8a2e                	mv	s4,a1
 100282e:	8c32                	mv	s8,a2
 1002830:	8b36                	mv	s6,a3
 1002832:	89ba                	mv	s3,a4
 1002834:	74dd                	lui	s1,0xffff7
 1002836:	6e848413          	addi	s0,s1,1768 # ffffffffffff76e8 <fromhost+0xffffffff7fff76a8>
 100283a:	6aa5                	lui	s5,0x9
 100283c:	b30a8793          	addi	a5,s5,-1232 # 8b30 <_tbss_end+0x8b30>
 1002840:	0818                	addi	a4,sp,16
 1002842:	97ba                	add	a5,a5,a4
 1002844:	943e                	add	s0,s0,a5
 1002846:	8522                	mv	a0,s0
 1002848:	b08ff0ef          	jal	ra,1001b50 <BN_init>
 100284c:	85da                	mv	a1,s6
 100284e:	b28a8793          	addi	a5,s5,-1240
 1002852:	0818                	addi	a4,sp,16
 1002854:	00f70533          	add	a0,a4,a5
 1002858:	918ff0ef          	jal	ra,1001970 <BN_montg_init>
 100285c:	7f848513          	addi	a0,s1,2040
 1002860:	6625                	lui	a2,0x9
 1002862:	80060613          	addi	a2,a2,-2048 # 8800 <_tbss_end+0x8800>
 1002866:	4581                	li	a1,0
 1002868:	b30a8793          	addi	a5,s5,-1232
 100286c:	0818                	addi	a4,sp,16
 100286e:	97ba                	add	a5,a5,a4
 1002870:	953e                	add	a0,a0,a5
 1002872:	794000ef          	jal	ra,1003006 <memset>
 1002876:	10800613          	li	a2,264
 100287a:	4581                	li	a1,0
 100287c:	00840513          	addi	a0,s0,8
 1002880:	786000ef          	jal	ra,1003006 <memset>
 1002884:	8562                	mv	a0,s8
 1002886:	918ff0ef          	jal	ra,100199e <BN_msb>
 100288a:	29f00793          	li	a5,671
 100288e:	00a7ef63          	bltu	a5,a0,10028ac <BN_exp_mod+0xa4>
 1002892:	0ef00793          	li	a5,239
 1002896:	08a7eb63          	bltu	a5,a0,100292c <BN_exp_mod+0x124>
 100289a:	04f00793          	li	a5,79
 100289e:	08a7e963          	bltu	a5,a0,1002930 <BN_exp_mod+0x128>
 10028a2:	47dd                	li	a5,23
 10028a4:	08a7f863          	bgeu	a5,a0,1002934 <BN_exp_mod+0x12c>
 10028a8:	4a8d                	li	s5,3
 10028aa:	a011                	j	10028ae <BN_exp_mod+0xa6>
 10028ac:	4a99                	li	s5,6
 10028ae:	000a2c83          	lw	s9,0(s4)
 10028b2:	57fd                	li	a5,-1
 10028b4:	08fc8263          	beq	s9,a5,1002938 <BN_exp_mod+0x130>
 10028b8:	745d                	lui	s0,0xffff7
 10028ba:	7f840493          	addi	s1,s0,2040 # ffffffffffff77f8 <fromhost+0xffffffff7fff77b8>
 10028be:	6ba5                	lui	s7,0x9
 10028c0:	b30b8793          	addi	a5,s7,-1232 # 8b30 <_tbss_end+0x8b30>
 10028c4:	0818                	addi	a4,sp,16
 10028c6:	97ba                	add	a5,a5,a4
 10028c8:	94be                	add	s1,s1,a5
 10028ca:	11048493          	addi	s1,s1,272
 10028ce:	85d2                	mv	a1,s4
 10028d0:	8526                	mv	a0,s1
 10028d2:	a9eff0ef          	jal	ra,1001b70 <BN_copy>
 10028d6:	4d040413          	addi	s0,s0,1232
 10028da:	b30b8793          	addi	a5,s7,-1232
 10028de:	0818                	addi	a4,sp,16
 10028e0:	97ba                	add	a5,a5,a4
 10028e2:	943e                	add	s0,s0,a5
 10028e4:	8722                	mv	a4,s0
 10028e6:	b28b8793          	addi	a5,s7,-1240
 10028ea:	0814                	addi	a3,sp,16
 10028ec:	97b6                	add	a5,a5,a3
 10028ee:	6394                	ld	a3,0(a5)
 10028f0:	865a                	mv	a2,s6
 10028f2:	85ce                	mv	a1,s3
 10028f4:	8526                	mv	a0,s1
 10028f6:	946ff0ef          	jal	ra,1001a3c <BN_montmul>
 10028fa:	85ce                	mv	a1,s3
 10028fc:	854a                	mv	a0,s2
 10028fe:	a72ff0ef          	jal	ra,1001b70 <BN_copy>
 1002902:	86a2                	mv	a3,s0
 1002904:	845e                	mv	s0,s7
 1002906:	b28b8793          	addi	a5,s7,-1240
 100290a:	0818                	addi	a4,sp,16
 100290c:	97ba                	add	a5,a5,a4
 100290e:	6390                	ld	a2,0(a5)
 1002910:	85da                	mv	a1,s6
 1002912:	854a                	mv	a0,s2
 1002914:	9fcff0ef          	jal	ra,1001b10 <BN_montred>
 1002918:	4785                	li	a5,1
 100291a:	0557e863          	bltu	a5,s5,100296a <BN_exp_mod+0x162>
 100291e:	4b81                	li	s7,0
 1002920:	4981                	li	s3,0
 1002922:	4401                	li	s0,0
 1002924:	02000493          	li	s1,32
 1002928:	4a01                	li	s4,0
 100292a:	aa31                	j	1002a46 <BN_exp_mod+0x23e>
 100292c:	4a95                	li	s5,5
 100292e:	b741                	j	10028ae <BN_exp_mod+0xa6>
 1002930:	4a91                	li	s5,4
 1002932:	bfb5                	j	10028ae <BN_exp_mod+0xa6>
 1002934:	4a85                	li	s5,1
 1002936:	bfa5                	j	10028ae <BN_exp_mod+0xa6>
 1002938:	74dd                	lui	s1,0xffff7
 100293a:	6e848413          	addi	s0,s1,1768 # ffffffffffff76e8 <fromhost+0xffffffff7fff76a8>
 100293e:	6ba5                	lui	s7,0x9
 1002940:	b30b8793          	addi	a5,s7,-1232 # 8b30 <_tbss_end+0x8b30>
 1002944:	0818                	addi	a4,sp,16
 1002946:	97ba                	add	a5,a5,a4
 1002948:	943e                	add	s0,s0,a5
 100294a:	85d2                	mv	a1,s4
 100294c:	8522                	mv	a0,s0
 100294e:	a22ff0ef          	jal	ra,1001b70 <BN_copy>
 1002952:	b30b8793          	addi	a5,s7,-1232
 1002956:	0818                	addi	a4,sp,16
 1002958:	97ba                	add	a5,a5,a4
 100295a:	97a6                	add	a5,a5,s1
 100295c:	e43e                	sd	a5,8(sp)
 100295e:	4785                	li	a5,1
 1002960:	6722                	ld	a4,8(sp)
 1002962:	6ef72423          	sw	a5,1768(a4)
 1002966:	8a22                	mv	s4,s0
 1002968:	bf81                	j	10028b8 <BN_exp_mod+0xb0>
 100296a:	000a8b9b          	sext.w	s7,s5
 100296e:	fffa879b          	addiw	a5,s5,-1
 1002972:	4485                	li	s1,1
 1002974:	00f494b3          	sll	s1,s1,a5
 1002978:	75dd                	lui	a1,0xffff7
 100297a:	7f858593          	addi	a1,a1,2040 # ffffffffffff77f8 <fromhost+0xffffffff7fff77b8>
 100297e:	b3040793          	addi	a5,s0,-1232
 1002982:	0818                	addi	a4,sp,16
 1002984:	97ba                	add	a5,a5,a4
 1002986:	95be                	add	a1,a1,a5
 1002988:	00449993          	slli	s3,s1,0x4
 100298c:	99a6                	add	s3,s3,s1
 100298e:	0992                	slli	s3,s3,0x4
 1002990:	99ae                	add	s3,s3,a1
 1002992:	11058593          	addi	a1,a1,272
 1002996:	854e                	mv	a0,s3
 1002998:	9d8ff0ef          	jal	ra,1001b70 <BN_copy>
 100299c:	4401                	li	s0,0
 100299e:	a025                	j	10029c6 <BN_exp_mod+0x1be>
 10029a0:	775d                	lui	a4,0xffff7
 10029a2:	4d070713          	addi	a4,a4,1232 # ffffffffffff74d0 <fromhost+0xffffffff7fff7490>
 10029a6:	66a5                	lui	a3,0x9
 10029a8:	b3068793          	addi	a5,a3,-1232 # 8b30 <_tbss_end+0x8b30>
 10029ac:	0810                	addi	a2,sp,16
 10029ae:	97b2                	add	a5,a5,a2
 10029b0:	973e                	add	a4,a4,a5
 10029b2:	b2868793          	addi	a5,a3,-1240
 10029b6:	97b2                	add	a5,a5,a2
 10029b8:	6394                	ld	a3,0(a5)
 10029ba:	865a                	mv	a2,s6
 10029bc:	85ce                	mv	a1,s3
 10029be:	854e                	mv	a0,s3
 10029c0:	87cff0ef          	jal	ra,1001a3c <BN_montmul>
 10029c4:	0405                	addi	s0,s0,1
 10029c6:	fffa8793          	addi	a5,s5,-1
 10029ca:	fcf46be3          	bltu	s0,a5,10029a0 <BN_exp_mod+0x198>
 10029ce:	0485                	addi	s1,s1,1
 10029d0:	a899                	j	1002a26 <BN_exp_mod+0x21e>
 10029d2:	7a5d                	lui	s4,0xffff7
 10029d4:	7f8a0993          	addi	s3,s4,2040 # ffffffffffff77f8 <fromhost+0xffffffff7fff77b8>
 10029d8:	6d25                	lui	s10,0x9
 10029da:	b30d0793          	addi	a5,s10,-1232 # 8b30 <_tbss_end+0x8b30>
 10029de:	0818                	addi	a4,sp,16
 10029e0:	97ba                	add	a5,a5,a4
 10029e2:	99be                	add	s3,s3,a5
 10029e4:	00449413          	slli	s0,s1,0x4
 10029e8:	9426                	add	s0,s0,s1
 10029ea:	0412                	slli	s0,s0,0x4
 10029ec:	944e                	add	s0,s0,s3
 10029ee:	fff48793          	addi	a5,s1,-1
 10029f2:	00479593          	slli	a1,a5,0x4
 10029f6:	95be                	add	a1,a1,a5
 10029f8:	0592                	slli	a1,a1,0x4
 10029fa:	95ce                	add	a1,a1,s3
 10029fc:	8522                	mv	a0,s0
 10029fe:	972ff0ef          	jal	ra,1001b70 <BN_copy>
 1002a02:	4d0a0713          	addi	a4,s4,1232
 1002a06:	b30d0793          	addi	a5,s10,-1232
 1002a0a:	0814                	addi	a3,sp,16
 1002a0c:	97b6                	add	a5,a5,a3
 1002a0e:	973e                	add	a4,a4,a5
 1002a10:	b28d0793          	addi	a5,s10,-1240
 1002a14:	97b6                	add	a5,a5,a3
 1002a16:	6394                	ld	a3,0(a5)
 1002a18:	865a                	mv	a2,s6
 1002a1a:	11098593          	addi	a1,s3,272
 1002a1e:	8522                	mv	a0,s0
 1002a20:	81cff0ef          	jal	ra,1001a3c <BN_montmul>
 1002a24:	0485                	addi	s1,s1,1
 1002a26:	4785                	li	a5,1
 1002a28:	017797b3          	sll	a5,a5,s7
 1002a2c:	faf4e3e3          	bltu	s1,a5,10029d2 <BN_exp_mod+0x1ca>
 1002a30:	b5fd                	j	100291e <BN_exp_mod+0x116>
 1002a32:	0985                	addi	s3,s3,1
 1002a34:	413a873b          	subw	a4,s5,s3
 1002a38:	00e797b3          	sll	a5,a5,a4
 1002a3c:	00fa6a33          	or	s4,s4,a5
 1002a40:	0d3a8063          	beq	s5,s3,1002b00 <BN_exp_mod+0x2f8>
 1002a44:	4b89                	li	s7,2
 1002a46:	e411                	bnez	s0,1002a52 <BN_exp_mod+0x24a>
 1002a48:	0e048863          	beqz	s1,1002b38 <BN_exp_mod+0x330>
 1002a4c:	14fd                	addi	s1,s1,-1
 1002a4e:	04000413          	li	s0,64
 1002a52:	147d                	addi	s0,s0,-1
 1002a54:	00349793          	slli	a5,s1,0x3
 1002a58:	97e2                	add	a5,a5,s8
 1002a5a:	679c                	ld	a5,8(a5)
 1002a5c:	0087d7b3          	srl	a5,a5,s0
 1002a60:	8b85                	andi	a5,a5,1
 1002a62:	00fbe733          	or	a4,s7,a5
 1002a66:	d365                	beqz	a4,1002a46 <BN_exp_mod+0x23e>
 1002a68:	f7e9                	bnez	a5,1002a32 <BN_exp_mod+0x22a>
 1002a6a:	4705                	li	a4,1
 1002a6c:	fceb93e3          	bne	s7,a4,1002a32 <BN_exp_mod+0x22a>
 1002a70:	775d                	lui	a4,0xffff7
 1002a72:	4d070713          	addi	a4,a4,1232 # ffffffffffff74d0 <fromhost+0xffffffff7fff7490>
 1002a76:	66a5                	lui	a3,0x9
 1002a78:	b3068793          	addi	a5,a3,-1232 # 8b30 <_tbss_end+0x8b30>
 1002a7c:	0810                	addi	a2,sp,16
 1002a7e:	97b2                	add	a5,a5,a2
 1002a80:	973e                	add	a4,a4,a5
 1002a82:	b2868793          	addi	a5,a3,-1240
 1002a86:	97b2                	add	a5,a5,a2
 1002a88:	6394                	ld	a3,0(a5)
 1002a8a:	865a                	mv	a2,s6
 1002a8c:	85ca                	mv	a1,s2
 1002a8e:	854a                	mv	a0,s2
 1002a90:	fadfe0ef          	jal	ra,1001a3c <BN_montmul>
 1002a94:	bf4d                	j	1002a46 <BN_exp_mod+0x23e>
 1002a96:	775d                	lui	a4,0xffff7
 1002a98:	4d070713          	addi	a4,a4,1232 # ffffffffffff74d0 <fromhost+0xffffffff7fff7490>
 1002a9c:	66a5                	lui	a3,0x9
 1002a9e:	b3068793          	addi	a5,a3,-1232 # 8b30 <_tbss_end+0x8b30>
 1002aa2:	0810                	addi	a2,sp,16
 1002aa4:	97b2                	add	a5,a5,a2
 1002aa6:	973e                	add	a4,a4,a5
 1002aa8:	b2868793          	addi	a5,a3,-1240
 1002aac:	97b2                	add	a5,a5,a2
 1002aae:	6394                	ld	a3,0(a5)
 1002ab0:	865a                	mv	a2,s6
 1002ab2:	85ca                	mv	a1,s2
 1002ab4:	854a                	mv	a0,s2
 1002ab6:	f87fe0ef          	jal	ra,1001a3c <BN_montmul>
 1002aba:	0985                	addi	s3,s3,1
 1002abc:	fd59ede3          	bltu	s3,s5,1002a96 <BN_exp_mod+0x28e>
 1002ac0:	75dd                	lui	a1,0xffff7
 1002ac2:	4d058713          	addi	a4,a1,1232 # ffffffffffff74d0 <fromhost+0xffffffff7fff7490>
 1002ac6:	7f858593          	addi	a1,a1,2040
 1002aca:	66a5                	lui	a3,0x9
 1002acc:	b3068793          	addi	a5,a3,-1232 # 8b30 <_tbss_end+0x8b30>
 1002ad0:	0810                	addi	a2,sp,16
 1002ad2:	97b2                	add	a5,a5,a2
 1002ad4:	95be                	add	a1,a1,a5
 1002ad6:	004a1793          	slli	a5,s4,0x4
 1002ada:	9a3e                	add	s4,s4,a5
 1002adc:	0a12                	slli	s4,s4,0x4
 1002ade:	b3068793          	addi	a5,a3,-1232
 1002ae2:	97b2                	add	a5,a5,a2
 1002ae4:	973e                	add	a4,a4,a5
 1002ae6:	b2868793          	addi	a5,a3,-1240
 1002aea:	97b2                	add	a5,a5,a2
 1002aec:	6394                	ld	a3,0(a5)
 1002aee:	865a                	mv	a2,s6
 1002af0:	95d2                	add	a1,a1,s4
 1002af2:	854a                	mv	a0,s2
 1002af4:	f49fe0ef          	jal	ra,1001a3c <BN_montmul>
 1002af8:	4b85                	li	s7,1
 1002afa:	4981                	li	s3,0
 1002afc:	4a01                	li	s4,0
 1002afe:	b7a1                	j	1002a46 <BN_exp_mod+0x23e>
 1002b00:	4981                	li	s3,0
 1002b02:	bf6d                	j	1002abc <BN_exp_mod+0x2b4>
 1002b04:	75dd                	lui	a1,0xffff7
 1002b06:	4d058713          	addi	a4,a1,1232 # ffffffffffff74d0 <fromhost+0xffffffff7fff7490>
 1002b0a:	7f858593          	addi	a1,a1,2040
 1002b0e:	67a5                	lui	a5,0x9
 1002b10:	b3078693          	addi	a3,a5,-1232 # 8b30 <_tbss_end+0x8b30>
 1002b14:	0810                	addi	a2,sp,16
 1002b16:	96b2                	add	a3,a3,a2
 1002b18:	95b6                	add	a1,a1,a3
 1002b1a:	b3078693          	addi	a3,a5,-1232
 1002b1e:	96b2                	add	a3,a3,a2
 1002b20:	9736                	add	a4,a4,a3
 1002b22:	b2878793          	addi	a5,a5,-1240
 1002b26:	97b2                	add	a5,a5,a2
 1002b28:	6394                	ld	a3,0(a5)
 1002b2a:	865a                	mv	a2,s6
 1002b2c:	11058593          	addi	a1,a1,272
 1002b30:	854a                	mv	a0,s2
 1002b32:	f0bfe0ef          	jal	ra,1001a3c <BN_montmul>
 1002b36:	0485                	addi	s1,s1,1
 1002b38:	0334fc63          	bgeu	s1,s3,1002b70 <BN_exp_mod+0x368>
 1002b3c:	775d                	lui	a4,0xffff7
 1002b3e:	4d070713          	addi	a4,a4,1232 # ffffffffffff74d0 <fromhost+0xffffffff7fff7490>
 1002b42:	66a5                	lui	a3,0x9
 1002b44:	b3068793          	addi	a5,a3,-1232 # 8b30 <_tbss_end+0x8b30>
 1002b48:	0810                	addi	a2,sp,16
 1002b4a:	97b2                	add	a5,a5,a2
 1002b4c:	973e                	add	a4,a4,a5
 1002b4e:	b2868793          	addi	a5,a3,-1240
 1002b52:	97b2                	add	a5,a5,a2
 1002b54:	6394                	ld	a3,0(a5)
 1002b56:	865a                	mv	a2,s6
 1002b58:	85ca                	mv	a1,s2
 1002b5a:	854a                	mv	a0,s2
 1002b5c:	ee1fe0ef          	jal	ra,1001a3c <BN_montmul>
 1002b60:	0a06                	slli	s4,s4,0x1
 1002b62:	4785                	li	a5,1
 1002b64:	015797b3          	sll	a5,a5,s5
 1002b68:	0147f7b3          	and	a5,a5,s4
 1002b6c:	d7e9                	beqz	a5,1002b36 <BN_exp_mod+0x32e>
 1002b6e:	bf59                	j	1002b04 <BN_exp_mod+0x2fc>
 1002b70:	76dd                	lui	a3,0xffff7
 1002b72:	4d068693          	addi	a3,a3,1232 # ffffffffffff74d0 <fromhost+0xffffffff7fff7490>
 1002b76:	6725                	lui	a4,0x9
 1002b78:	b3070793          	addi	a5,a4,-1232 # 8b30 <_tbss_end+0x8b30>
 1002b7c:	0810                	addi	a2,sp,16
 1002b7e:	97b2                	add	a5,a5,a2
 1002b80:	96be                	add	a3,a3,a5
 1002b82:	b2870793          	addi	a5,a4,-1240
 1002b86:	97b2                	add	a5,a5,a2
 1002b88:	6390                	ld	a2,0(a5)
 1002b8a:	85da                	mv	a1,s6
 1002b8c:	854a                	mv	a0,s2
 1002b8e:	f83fe0ef          	jal	ra,1001b10 <BN_montred>
 1002b92:	57fd                	li	a5,-1
 1002b94:	02fc8463          	beq	s9,a5,1002bbc <BN_exp_mod+0x3b4>
 1002b98:	6325                	lui	t1,0x9
 1002b9a:	b3030313          	addi	t1,t1,-1232 # 8b30 <_tbss_end+0x8b30>
 1002b9e:	911a                	add	sp,sp,t1
 1002ba0:	70a6                	ld	ra,104(sp)
 1002ba2:	7406                	ld	s0,96(sp)
 1002ba4:	64e6                	ld	s1,88(sp)
 1002ba6:	6946                	ld	s2,80(sp)
 1002ba8:	69a6                	ld	s3,72(sp)
 1002baa:	6a06                	ld	s4,64(sp)
 1002bac:	7ae2                	ld	s5,56(sp)
 1002bae:	7b42                	ld	s6,48(sp)
 1002bb0:	7ba2                	ld	s7,40(sp)
 1002bb2:	7c02                	ld	s8,32(sp)
 1002bb4:	6ce2                	ld	s9,24(sp)
 1002bb6:	6d42                	ld	s10,16(sp)
 1002bb8:	6165                	addi	sp,sp,112
 1002bba:	8082                	ret
 1002bbc:	00f92023          	sw	a5,0(s2)
 1002bc0:	864a                	mv	a2,s2
 1002bc2:	85da                	mv	a1,s6
 1002bc4:	854a                	mv	a0,s2
 1002bc6:	c96ff0ef          	jal	ra,100205c <BN_add>
 1002bca:	b7f9                	j	1002b98 <BN_exp_mod+0x390>

0000000001002bcc <precompute>:
 1002bcc:	712d                	addi	sp,sp,-288
 1002bce:	ee06                	sd	ra,280(sp)
 1002bd0:	ea22                	sd	s0,272(sp)
 1002bd2:	842e                	mv	s0,a1
 1002bd4:	00001797          	auipc	a5,0x1
 1002bd8:	b6478793          	addi	a5,a5,-1180 # 1003738 <strncmp+0x2c6>
 1002bdc:	0138                	addi	a4,sp,136
 1002bde:	00001697          	auipc	a3,0x1
 1002be2:	bda68693          	addi	a3,a3,-1062 # 10037b8 <strncmp+0x346>
 1002be6:	0007b883          	ld	a7,0(a5)
 1002bea:	0087b803          	ld	a6,8(a5)
 1002bee:	6b8c                	ld	a1,16(a5)
 1002bf0:	6f90                	ld	a2,24(a5)
 1002bf2:	01173023          	sd	a7,0(a4)
 1002bf6:	01073423          	sd	a6,8(a4)
 1002bfa:	eb0c                	sd	a1,16(a4)
 1002bfc:	ef10                	sd	a2,24(a4)
 1002bfe:	02078793          	addi	a5,a5,32
 1002c02:	02070713          	addi	a4,a4,32
 1002c06:	fed790e3          	bne	a5,a3,1002be6 <precompute+0x1a>
 1002c0a:	0007c783          	lbu	a5,0(a5)
 1002c0e:	00f70023          	sb	a5,0(a4)
 1002c12:	00001797          	auipc	a5,0x1
 1002c16:	bae78793          	addi	a5,a5,-1106 # 10037c0 <strncmp+0x34e>
 1002c1a:	870a                	mv	a4,sp
 1002c1c:	00001697          	auipc	a3,0x1
 1002c20:	c2468693          	addi	a3,a3,-988 # 1003840 <strncmp+0x3ce>
 1002c24:	0007b883          	ld	a7,0(a5)
 1002c28:	0087b803          	ld	a6,8(a5)
 1002c2c:	6b8c                	ld	a1,16(a5)
 1002c2e:	6f90                	ld	a2,24(a5)
 1002c30:	01173023          	sd	a7,0(a4)
 1002c34:	01073423          	sd	a6,8(a4)
 1002c38:	eb0c                	sd	a1,16(a4)
 1002c3a:	ef10                	sd	a2,24(a4)
 1002c3c:	02078793          	addi	a5,a5,32
 1002c40:	02070713          	addi	a4,a4,32
 1002c44:	fed790e3          	bne	a5,a3,1002c24 <precompute+0x58>
 1002c48:	0007c783          	lbu	a5,0(a5)
 1002c4c:	00f70023          	sb	a5,0(a4)
 1002c50:	012c                	addi	a1,sp,136
 1002c52:	91eff0ef          	jal	ra,1001d70 <BN_hex2bn>
 1002c56:	858a                	mv	a1,sp
 1002c58:	8522                	mv	a0,s0
 1002c5a:	916ff0ef          	jal	ra,1001d70 <BN_hex2bn>
 1002c5e:	60f2                	ld	ra,280(sp)
 1002c60:	6452                	ld	s0,272(sp)
 1002c62:	6115                	addi	sp,sp,288
 1002c64:	8082                	ret

0000000001002c66 <rsaEncrypt>:
 1002c66:	712d                	addi	sp,sp,-288
 1002c68:	ee06                	sd	ra,280(sp)
 1002c6a:	878a                	mv	a5,sp
 1002c6c:	10070813          	addi	a6,a4,256
 1002c70:	00073e83          	ld	t4,0(a4)
 1002c74:	00873e03          	ld	t3,8(a4)
 1002c78:	01073303          	ld	t1,16(a4)
 1002c7c:	01873883          	ld	a7,24(a4)
 1002c80:	01d7b023          	sd	t4,0(a5)
 1002c84:	01c7b423          	sd	t3,8(a5)
 1002c88:	0067b823          	sd	t1,16(a5)
 1002c8c:	0117bc23          	sd	a7,24(a5)
 1002c90:	02070713          	addi	a4,a4,32
 1002c94:	02078793          	addi	a5,a5,32
 1002c98:	fd071ce3          	bne	a4,a6,1002c70 <rsaEncrypt+0xa>
 1002c9c:	00073803          	ld	a6,0(a4)
 1002ca0:	6718                	ld	a4,8(a4)
 1002ca2:	0107b023          	sd	a6,0(a5)
 1002ca6:	e798                	sd	a4,8(a5)
 1002ca8:	870a                	mv	a4,sp
 1002caa:	b5fff0ef          	jal	ra,1002808 <BN_exp_mod>
 1002cae:	60f2                	ld	ra,280(sp)
 1002cb0:	6115                	addi	sp,sp,288
 1002cb2:	8082                	ret

0000000001002cb4 <rsaDecrypt>:
 1002cb4:	712d                	addi	sp,sp,-288
 1002cb6:	ee06                	sd	ra,280(sp)
 1002cb8:	878a                	mv	a5,sp
 1002cba:	10070813          	addi	a6,a4,256
 1002cbe:	00073e83          	ld	t4,0(a4)
 1002cc2:	00873e03          	ld	t3,8(a4)
 1002cc6:	01073303          	ld	t1,16(a4)
 1002cca:	01873883          	ld	a7,24(a4)
 1002cce:	01d7b023          	sd	t4,0(a5)
 1002cd2:	01c7b423          	sd	t3,8(a5)
 1002cd6:	0067b823          	sd	t1,16(a5)
 1002cda:	0117bc23          	sd	a7,24(a5)
 1002cde:	02070713          	addi	a4,a4,32
 1002ce2:	02078793          	addi	a5,a5,32
 1002ce6:	fd071ce3          	bne	a4,a6,1002cbe <rsaDecrypt+0xa>
 1002cea:	00073803          	ld	a6,0(a4)
 1002cee:	6718                	ld	a4,8(a4)
 1002cf0:	0107b023          	sd	a6,0(a5)
 1002cf4:	e798                	sd	a4,8(a5)
 1002cf6:	870a                	mv	a4,sp
 1002cf8:	b11ff0ef          	jal	ra,1002808 <BN_exp_mod>
 1002cfc:	60f2                	ld	ra,280(sp)
 1002cfe:	6115                	addi	sp,sp,288
 1002d00:	8082                	ret

0000000001002d02 <rsaDecrypt_CRC>:
 1002d02:	84010113          	addi	sp,sp,-1984
 1002d06:	7a113c23          	sd	ra,1976(sp)
 1002d0a:	7a813823          	sd	s0,1968(sp)
 1002d0e:	7a913423          	sd	s1,1960(sp)
 1002d12:	7b213023          	sd	s2,1952(sp)
 1002d16:	79313c23          	sd	s3,1944(sp)
 1002d1a:	79413823          	sd	s4,1936(sp)
 1002d1e:	79513423          	sd	s5,1928(sp)
 1002d22:	79613023          	sd	s6,1920(sp)
 1002d26:	77713c23          	sd	s7,1912(sp)
 1002d2a:	77813823          	sd	s8,1904(sp)
 1002d2e:	892a                	mv	s2,a0
 1002d30:	8b2e                	mv	s6,a1
 1002d32:	8c32                	mv	s8,a2
 1002d34:	8bb6                	mv	s7,a3
 1002d36:	8aba                	mv	s5,a4
 1002d38:	8a3e                	mv	s4,a5
 1002d3a:	8442                	mv	s0,a6
 1002d3c:	89c6                	mv	s3,a7
 1002d3e:	7c013483          	ld	s1,1984(sp)
 1002d42:	86c2                	mv	a3,a6
 1002d44:	863e                	mv	a2,a5
 1002d46:	0a0c                	addi	a1,sp,272
 1002d48:	1408                	addi	a0,sp,544
 1002d4a:	e83ff0ef          	jal	ra,1002bcc <precompute>
 1002d4e:	22010313          	addi	t1,sp,544
 1002d52:	8e0a                	mv	t3,sp
 1002d54:	161c                	addi	a5,sp,800
 1002d56:	00033583          	ld	a1,0(t1)
 1002d5a:	00833603          	ld	a2,8(t1)
 1002d5e:	01033683          	ld	a3,16(t1)
 1002d62:	01833703          	ld	a4,24(t1)
 1002d66:	00be3023          	sd	a1,0(t3)
 1002d6a:	00ce3423          	sd	a2,8(t3)
 1002d6e:	00de3823          	sd	a3,16(t3)
 1002d72:	00ee3c23          	sd	a4,24(t3)
 1002d76:	02030313          	addi	t1,t1,32
 1002d7a:	020e0e13          	addi	t3,t3,32
 1002d7e:	fcf31ce3          	bne	t1,a5,1002d56 <rsaDecrypt_CRC+0x54>
 1002d82:	00033703          	ld	a4,0(t1)
 1002d86:	00833783          	ld	a5,8(t1)
 1002d8a:	00ee3023          	sd	a4,0(t3)
 1002d8e:	00fe3423          	sd	a5,8(t3)
 1002d92:	870a                	mv	a4,sp
 1002d94:	86d2                	mv	a3,s4
 1002d96:	8662                	mv	a2,s8
 1002d98:	85da                	mv	a1,s6
 1002d9a:	66010513          	addi	a0,sp,1632
 1002d9e:	a6bff0ef          	jal	ra,1002808 <BN_exp_mod>
 1002da2:	11010313          	addi	t1,sp,272
 1002da6:	860a                	mv	a2,sp
 1002da8:	0c1c                	addi	a5,sp,528
 1002daa:	00033503          	ld	a0,0(t1)
 1002dae:	00833583          	ld	a1,8(t1)
 1002db2:	01033683          	ld	a3,16(t1)
 1002db6:	01833703          	ld	a4,24(t1)
 1002dba:	e208                	sd	a0,0(a2)
 1002dbc:	e60c                	sd	a1,8(a2)
 1002dbe:	ea14                	sd	a3,16(a2)
 1002dc0:	ee18                	sd	a4,24(a2)
 1002dc2:	02030313          	addi	t1,t1,32
 1002dc6:	02060613          	addi	a2,a2,32
 1002dca:	fef310e3          	bne	t1,a5,1002daa <rsaDecrypt_CRC+0xa8>
 1002dce:	00033703          	ld	a4,0(t1)
 1002dd2:	00833783          	ld	a5,8(t1)
 1002dd6:	e218                	sd	a4,0(a2)
 1002dd8:	e61c                	sd	a5,8(a2)
 1002dda:	870a                	mv	a4,sp
 1002ddc:	86a2                	mv	a3,s0
 1002dde:	865e                	mv	a2,s7
 1002de0:	85da                	mv	a1,s6
 1002de2:	55010513          	addi	a0,sp,1360
 1002de6:	a23ff0ef          	jal	ra,1002808 <BN_exp_mod>
 1002dea:	55010613          	addi	a2,sp,1360
 1002dee:	66010593          	addi	a1,sp,1632
 1002df2:	1e08                	addi	a0,sp,816
 1002df4:	a02ff0ef          	jal	ra,1001ff6 <BN_sub>
 1002df8:	1410                	addi	a2,sp,544
 1002dfa:	868a                	mv	a3,sp
 1002dfc:	161c                	addi	a5,sp,800
 1002dfe:	00063803          	ld	a6,0(a2)
 1002e02:	6608                	ld	a0,8(a2)
 1002e04:	6a0c                	ld	a1,16(a2)
 1002e06:	6e18                	ld	a4,24(a2)
 1002e08:	0106b023          	sd	a6,0(a3)
 1002e0c:	e688                	sd	a0,8(a3)
 1002e0e:	ea8c                	sd	a1,16(a3)
 1002e10:	ee98                	sd	a4,24(a3)
 1002e12:	02060613          	addi	a2,a2,32
 1002e16:	02068693          	addi	a3,a3,32
 1002e1a:	fef612e3          	bne	a2,a5,1002dfe <rsaDecrypt_CRC+0xfc>
 1002e1e:	6218                	ld	a4,0(a2)
 1002e20:	661c                	ld	a5,8(a2)
 1002e22:	e298                	sd	a4,0(a3)
 1002e24:	e69c                	sd	a5,8(a3)
 1002e26:	868a                	mv	a3,sp
 1002e28:	8652                	mv	a2,s4
 1002e2a:	85d6                	mv	a1,s5
 1002e2c:	1e08                	addi	a0,sp,816
 1002e2e:	a94ff0ef          	jal	ra,10020c2 <BN_mont_mul>
 1002e32:	8726                	mv	a4,s1
 1002e34:	878a                	mv	a5,sp
 1002e36:	10048493          	addi	s1,s1,256
 1002e3a:	6308                	ld	a0,0(a4)
 1002e3c:	670c                	ld	a1,8(a4)
 1002e3e:	6b10                	ld	a2,16(a4)
 1002e40:	6f14                	ld	a3,24(a4)
 1002e42:	e388                	sd	a0,0(a5)
 1002e44:	e78c                	sd	a1,8(a5)
 1002e46:	eb90                	sd	a2,16(a5)
 1002e48:	ef94                	sd	a3,24(a5)
 1002e4a:	02070713          	addi	a4,a4,32
 1002e4e:	02078793          	addi	a5,a5,32
 1002e52:	fe9714e3          	bne	a4,s1,1002e3a <rsaDecrypt_CRC+0x138>
 1002e56:	6314                	ld	a3,0(a4)
 1002e58:	6718                	ld	a4,8(a4)
 1002e5a:	e394                	sd	a3,0(a5)
 1002e5c:	e798                	sd	a4,8(a5)
 1002e5e:	868a                	mv	a3,sp
 1002e60:	864e                	mv	a2,s3
 1002e62:	85a2                	mv	a1,s0
 1002e64:	1e08                	addi	a0,sp,816
 1002e66:	a5cff0ef          	jal	ra,10020c2 <BN_mont_mul>
 1002e6a:	44010613          	addi	a2,sp,1088
 1002e6e:	55010593          	addi	a1,sp,1360
 1002e72:	854a                	mv	a0,s2
 1002e74:	9e8ff0ef          	jal	ra,100205c <BN_add>
 1002e78:	7b813083          	ld	ra,1976(sp)
 1002e7c:	7b013403          	ld	s0,1968(sp)
 1002e80:	7a813483          	ld	s1,1960(sp)
 1002e84:	7a013903          	ld	s2,1952(sp)
 1002e88:	79813983          	ld	s3,1944(sp)
 1002e8c:	79013a03          	ld	s4,1936(sp)
 1002e90:	78813a83          	ld	s5,1928(sp)
 1002e94:	78013b03          	ld	s6,1920(sp)
 1002e98:	77813b83          	ld	s7,1912(sp)
 1002e9c:	77013c03          	ld	s8,1904(sp)
 1002ea0:	7c010113          	addi	sp,sp,1984
 1002ea4:	8082                	ret

0000000001002ea6 <putchar>:
 1002ea6:	6345                	lui	t1,0x11
 1002ea8:	3003031b          	addiw	t1,t1,768

0000000001002eac <uart_status_simple>:
 1002eac:	00c30583          	lb	a1,12(t1) # 1100c <_tbss_end+0x1100c>
 1002eb0:	8989                	andi	a1,a1,2
 1002eb2:	dded                	beqz	a1,1002eac <uart_status_simple>
 1002eb4:	00a30223          	sb	a0,4(t1)
 1002eb8:	4501                	li	a0,0
 1002eba:	8082                	ret

0000000001002ebc <getuint>:
 1002ebc:	4785                	li	a5,1
 1002ebe:	00b7c963          	blt	a5,a1,1002ed0 <getuint+0x14>
 1002ec2:	cd89                	beqz	a1,1002edc <getuint+0x20>
 1002ec4:	611c                	ld	a5,0(a0)
 1002ec6:	00878713          	addi	a4,a5,8
 1002eca:	e118                	sd	a4,0(a0)
 1002ecc:	6388                	ld	a0,0(a5)
 1002ece:	8082                	ret
 1002ed0:	611c                	ld	a5,0(a0)
 1002ed2:	00878713          	addi	a4,a5,8
 1002ed6:	e118                	sd	a4,0(a0)
 1002ed8:	6388                	ld	a0,0(a5)
 1002eda:	8082                	ret
 1002edc:	611c                	ld	a5,0(a0)
 1002ede:	00878713          	addi	a4,a5,8
 1002ee2:	e118                	sd	a4,0(a0)
 1002ee4:	0007e503          	lwu	a0,0(a5)
 1002ee8:	8082                	ret

0000000001002eea <getint>:
 1002eea:	4785                	li	a5,1
 1002eec:	00b7c963          	blt	a5,a1,1002efe <getint+0x14>
 1002ef0:	cd89                	beqz	a1,1002f0a <getint+0x20>
 1002ef2:	611c                	ld	a5,0(a0)
 1002ef4:	00878713          	addi	a4,a5,8
 1002ef8:	e118                	sd	a4,0(a0)
 1002efa:	6388                	ld	a0,0(a5)
 1002efc:	8082                	ret
 1002efe:	611c                	ld	a5,0(a0)
 1002f00:	00878713          	addi	a4,a5,8
 1002f04:	e118                	sd	a4,0(a0)
 1002f06:	6388                	ld	a0,0(a5)
 1002f08:	8082                	ret
 1002f0a:	611c                	ld	a5,0(a0)
 1002f0c:	00878713          	addi	a4,a5,8
 1002f10:	e118                	sd	a4,0(a0)
 1002f12:	4388                	lw	a0,0(a5)
 1002f14:	8082                	ret

0000000001002f16 <sprintf_putch.3080>:
 1002f16:	619c                	ld	a5,0(a1)
 1002f18:	00a78023          	sb	a0,0(a5)
 1002f1c:	619c                	ld	a5,0(a1)
 1002f1e:	0785                	addi	a5,a5,1
 1002f20:	e19c                	sd	a5,0(a1)
 1002f22:	8082                	ret

0000000001002f24 <syscall>:
 1002f24:	7159                	addi	sp,sp,-112
 1002f26:	03f10713          	addi	a4,sp,63
 1002f2a:	fc077713          	andi	a4,a4,-64
 1002f2e:	e308                	sd	a0,0(a4)
 1002f30:	e70c                	sd	a1,8(a4)
 1002f32:	eb10                	sd	a2,16(a4)
 1002f34:	ef14                	sd	a3,24(a4)
 1002f36:	0ff0000f          	fence
 1002f3a:	7effd797          	auipc	a5,0x7effd
 1002f3e:	0ce7b323          	sd	a4,198(a5) # 80000000 <tohost>
 1002f42:	7effd797          	auipc	a5,0x7effd
 1002f46:	0fe7b783          	ld	a5,254(a5) # 80000040 <fromhost>
 1002f4a:	dfe5                	beqz	a5,1002f42 <syscall+0x1e>
 1002f4c:	7effd797          	auipc	a5,0x7effd
 1002f50:	0e07ba23          	sd	zero,244(a5) # 80000040 <fromhost>
 1002f54:	0ff0000f          	fence
 1002f58:	6308                	ld	a0,0(a4)
 1002f5a:	6165                	addi	sp,sp,112
 1002f5c:	8082                	ret

0000000001002f5e <tohost_exit>:
 1002f5e:	00151793          	slli	a5,a0,0x1
 1002f62:	0017e793          	ori	a5,a5,1
 1002f66:	7effd717          	auipc	a4,0x7effd
 1002f6a:	08f73d23          	sd	a5,154(a4) # 80000000 <tohost>
 1002f6e:	a001                	j	1002f6e <tohost_exit+0x10>

0000000001002f70 <exit>:
 1002f70:	6345                	lui	t1,0x11
 1002f72:	3003031b          	addiw	t1,t1,768
 1002f76:	00c30503          	lb	a0,12(t1) # 1100c <_tbss_end+0x1100c>
 1002f7a:	8905                	andi	a0,a0,1
 1002f7c:	d975                	beqz	a0,1002f70 <exit>
 1002f7e:	00020537          	lui	a0,0x20
 1002f82:	c548                	sw	a0,12(a0)
 1002f84:	a001                	j	1002f84 <exit+0x14>

0000000001002f86 <setStats>:
 1002f86:	b00027f3          	csrr	a5,mcycle
 1002f8a:	e911                	bnez	a0,1002f9e <setStats+0x18>
 1002f8c:	f5018713          	addi	a4,gp,-176 # 1003c48 <counters>
 1002f90:	6314                	ld	a3,0(a4)
 1002f92:	8f95                	sub	a5,a5,a3
 1002f94:	00001697          	auipc	a3,0x1
 1002f98:	8b468693          	addi	a3,a3,-1868 # 1003848 <strncmp+0x3d6>
 1002f9c:	eb14                	sd	a3,16(a4)
 1002f9e:	f4f1b823          	sd	a5,-176(gp) # 1003c48 <counters>
 1002fa2:	b02027f3          	csrr	a5,minstret
 1002fa6:	e911                	bnez	a0,1002fba <setStats+0x34>
 1002fa8:	f5018713          	addi	a4,gp,-176 # 1003c48 <counters>
 1002fac:	6714                	ld	a3,8(a4)
 1002fae:	8f95                	sub	a5,a5,a3
 1002fb0:	00001697          	auipc	a3,0x1
 1002fb4:	8a068693          	addi	a3,a3,-1888 # 1003850 <strncmp+0x3de>
 1002fb8:	ef14                	sd	a3,24(a4)
 1002fba:	f4f1bc23          	sd	a5,-168(gp) # 1003c50 <counters+0x8>
 1002fbe:	8082                	ret

0000000001002fc0 <abort>:
 1002fc0:	1141                	addi	sp,sp,-16
 1002fc2:	e406                	sd	ra,8(sp)
 1002fc4:	fadff0ef          	jal	ra,1002f70 <exit>

0000000001002fc8 <thread_entry>:
 1002fc8:	e101                	bnez	a0,1002fc8 <thread_entry>
 1002fca:	8082                	ret

0000000001002fcc <memcpy>:
 1002fcc:	00b567b3          	or	a5,a0,a1
 1002fd0:	8fd1                	or	a5,a5,a2
 1002fd2:	8b9d                	andi	a5,a5,7
 1002fd4:	cf89                	beqz	a5,1002fee <memcpy+0x22>
 1002fd6:	87aa                	mv	a5,a0
 1002fd8:	00c50733          	add	a4,a0,a2
 1002fdc:	02e7f463          	bgeu	a5,a4,1003004 <memcpy+0x38>
 1002fe0:	0005c703          	lbu	a4,0(a1)
 1002fe4:	00e78023          	sb	a4,0(a5)
 1002fe8:	0785                	addi	a5,a5,1
 1002fea:	0585                	addi	a1,a1,1
 1002fec:	b7f5                	j	1002fd8 <memcpy+0xc>
 1002fee:	87aa                	mv	a5,a0
 1002ff0:	00c50733          	add	a4,a0,a2
 1002ff4:	00e7f763          	bgeu	a5,a4,1003002 <memcpy+0x36>
 1002ff8:	6198                	ld	a4,0(a1)
 1002ffa:	e398                	sd	a4,0(a5)
 1002ffc:	07a1                	addi	a5,a5,8
 1002ffe:	05a1                	addi	a1,a1,8
 1003000:	bfc5                	j	1002ff0 <memcpy+0x24>
 1003002:	8082                	ret
 1003004:	8082                	ret

0000000001003006 <memset>:
 1003006:	00c567b3          	or	a5,a0,a2
 100300a:	8b9d                	andi	a5,a5,7
 100300c:	e78d                	bnez	a5,1003036 <memset+0x30>
 100300e:	0ff5f593          	andi	a1,a1,255
 1003012:	00859793          	slli	a5,a1,0x8
 1003016:	8ddd                	or	a1,a1,a5
 1003018:	01059793          	slli	a5,a1,0x10
 100301c:	8fcd                	or	a5,a5,a1
 100301e:	02079593          	slli	a1,a5,0x20
 1003022:	8ddd                	or	a1,a1,a5
 1003024:	87aa                	mv	a5,a0
 1003026:	00c50733          	add	a4,a0,a2
 100302a:	00e7f563          	bgeu	a5,a4,1003034 <memset+0x2e>
 100302e:	e38c                	sd	a1,0(a5)
 1003030:	07a1                	addi	a5,a5,8
 1003032:	bfd5                	j	1003026 <memset+0x20>
 1003034:	8082                	ret
 1003036:	87aa                	mv	a5,a0
 1003038:	00c50733          	add	a4,a0,a2
 100303c:	00e7f663          	bgeu	a5,a4,1003048 <memset+0x42>
 1003040:	00b78023          	sb	a1,0(a5)
 1003044:	0785                	addi	a5,a5,1
 1003046:	bfcd                	j	1003038 <memset+0x32>
 1003048:	8082                	ret

000000000100304a <strlen>:
 100304a:	87aa                	mv	a5,a0
 100304c:	0007c703          	lbu	a4,0(a5)
 1003050:	c319                	beqz	a4,1003056 <strlen+0xc>
 1003052:	0785                	addi	a5,a5,1
 1003054:	bfe5                	j	100304c <strlen+0x2>
 1003056:	40a78533          	sub	a0,a5,a0
 100305a:	8082                	ret

000000000100305c <printstr>:
 100305c:	1141                	addi	sp,sp,-16
 100305e:	e406                	sd	ra,8(sp)
 1003060:	e022                	sd	s0,0(sp)
 1003062:	842a                	mv	s0,a0
 1003064:	fe7ff0ef          	jal	ra,100304a <strlen>
 1003068:	86aa                	mv	a3,a0
 100306a:	8622                	mv	a2,s0
 100306c:	4585                	li	a1,1
 100306e:	04000513          	li	a0,64
 1003072:	eb3ff0ef          	jal	ra,1002f24 <syscall>
 1003076:	60a2                	ld	ra,8(sp)
 1003078:	6402                	ld	s0,0(sp)
 100307a:	0141                	addi	sp,sp,16
 100307c:	8082                	ret
 100307e:	1141                	addi	sp,sp,-16
 1003080:	e406                	sd	ra,8(sp)
 1003082:	00000517          	auipc	a0,0x0
 1003086:	7de50513          	addi	a0,a0,2014 # 1003860 <strncmp+0x3ee>
 100308a:	fd3ff0ef          	jal	ra,100305c <printstr>
 100308e:	557d                	li	a0,-1
 1003090:	60a2                	ld	ra,8(sp)
 1003092:	0141                	addi	sp,sp,16
 1003094:	8082                	ret

0000000001003096 <printhex>:
 1003096:	7179                	addi	sp,sp,-48
 1003098:	f406                	sd	ra,40(sp)
 100309a:	4701                	li	a4,0
 100309c:	a821                	j	10030b4 <printhex+0x1e>
 100309e:	05700613          	li	a2,87
 10030a2:	47bd                	li	a5,15
 10030a4:	9f99                	subw	a5,a5,a4
 10030a6:	96b2                	add	a3,a3,a2
 10030a8:	1010                	addi	a2,sp,32
 10030aa:	97b2                	add	a5,a5,a2
 10030ac:	fed78423          	sb	a3,-24(a5)
 10030b0:	8111                	srli	a0,a0,0x4
 10030b2:	2705                	addiw	a4,a4,1
 10030b4:	47bd                	li	a5,15
 10030b6:	00e7ca63          	blt	a5,a4,10030ca <printhex+0x34>
 10030ba:	00f57693          	andi	a3,a0,15
 10030be:	4625                	li	a2,9
 10030c0:	fcd66fe3          	bltu	a2,a3,100309e <printhex+0x8>
 10030c4:	03000613          	li	a2,48
 10030c8:	bfe9                	j	10030a2 <printhex+0xc>
 10030ca:	00010c23          	sb	zero,24(sp)
 10030ce:	0028                	addi	a0,sp,8
 10030d0:	f8dff0ef          	jal	ra,100305c <printstr>
 10030d4:	70a2                	ld	ra,40(sp)
 10030d6:	6145                	addi	sp,sp,48
 10030d8:	8082                	ret

00000000010030da <strnlen>:
 10030da:	87aa                	mv	a5,a0
 10030dc:	fff58713          	addi	a4,a1,-1
 10030e0:	c599                	beqz	a1,10030ee <strnlen+0x14>
 10030e2:	0007c683          	lbu	a3,0(a5)
 10030e6:	c681                	beqz	a3,10030ee <strnlen+0x14>
 10030e8:	0785                	addi	a5,a5,1
 10030ea:	85ba                	mv	a1,a4
 10030ec:	bfc5                	j	10030dc <strnlen+0x2>
 10030ee:	40a78533          	sub	a0,a5,a0
 10030f2:	8082                	ret

00000000010030f4 <vprintfmt>:
 10030f4:	714d                	addi	sp,sp,-336
 10030f6:	e686                	sd	ra,328(sp)
 10030f8:	e2a2                	sd	s0,320(sp)
 10030fa:	fe26                	sd	s1,312(sp)
 10030fc:	fa4a                	sd	s2,304(sp)
 10030fe:	f64e                	sd	s3,296(sp)
 1003100:	f252                	sd	s4,288(sp)
 1003102:	ee56                	sd	s5,280(sp)
 1003104:	ea5a                	sd	s6,272(sp)
 1003106:	892a                	mv	s2,a0
 1003108:	84ae                	mv	s1,a1
 100310a:	8432                	mv	s0,a2
 100310c:	e436                	sd	a3,8(sp)
 100310e:	00044503          	lbu	a0,0(s0)
 1003112:	02500793          	li	a5,37
 1003116:	00f50863          	beq	a0,a5,1003126 <vprintfmt+0x32>
 100311a:	1e050463          	beqz	a0,1003302 <vprintfmt+0x20e>
 100311e:	0405                	addi	s0,s0,1
 1003120:	85a6                	mv	a1,s1
 1003122:	9902                	jalr	s2
 1003124:	b7ed                	j	100310e <vprintfmt+0x1a>
 1003126:	00140993          	addi	s3,s0,1
 100312a:	87ce                	mv	a5,s3
 100312c:	02000a93          	li	s5,32
 1003130:	5b7d                	li	s6,-1
 1003132:	5a7d                	li	s4,-1
 1003134:	4581                	li	a1,0
 1003136:	00178413          	addi	s0,a5,1
 100313a:	0007c703          	lbu	a4,0(a5)
 100313e:	0007051b          	sext.w	a0,a4
 1003142:	fdd7079b          	addiw	a5,a4,-35
 1003146:	0ff7f613          	andi	a2,a5,255
 100314a:	05500693          	li	a3,85
 100314e:	1ac6e463          	bltu	a3,a2,10032f6 <vprintfmt+0x202>
 1003152:	00261793          	slli	a5,a2,0x2
 1003156:	ce418613          	addi	a2,gp,-796 # 10039dc <Hex+0x14>
 100315a:	97b2                	add	a5,a5,a2
 100315c:	4394                	lw	a3,0(a5)
 100315e:	96b2                	add	a3,a3,a2
 1003160:	8682                	jr	a3
 1003162:	8aba                	mv	s5,a4
 1003164:	87a2                	mv	a5,s0
 1003166:	bfc1                	j	1003136 <vprintfmt+0x42>
 1003168:	49c1                	li	s3,16
 100316a:	a8f5                	j	1003266 <vprintfmt+0x172>
 100316c:	4b01                	li	s6,0
 100316e:	002b179b          	slliw	a5,s6,0x2
 1003172:	016787bb          	addw	a5,a5,s6
 1003176:	0017979b          	slliw	a5,a5,0x1
 100317a:	9fa9                	addw	a5,a5,a0
 100317c:	fd078b1b          	addiw	s6,a5,-48
 1003180:	00044703          	lbu	a4,0(s0)
 1003184:	0007051b          	sext.w	a0,a4
 1003188:	fd07071b          	addiw	a4,a4,-48
 100318c:	47a5                	li	a5,9
 100318e:	02e7e863          	bltu	a5,a4,10031be <vprintfmt+0xca>
 1003192:	0405                	addi	s0,s0,1
 1003194:	bfe9                	j	100316e <vprintfmt+0x7a>
 1003196:	67a2                	ld	a5,8(sp)
 1003198:	00878713          	addi	a4,a5,8
 100319c:	e43a                	sd	a4,8(sp)
 100319e:	0007ab03          	lw	s6,0(a5)
 10031a2:	87a2                	mv	a5,s0
 10031a4:	f80a59e3          	bgez	s4,1003136 <vprintfmt+0x42>
 10031a8:	8a5a                	mv	s4,s6
 10031aa:	5b7d                	li	s6,-1
 10031ac:	b769                	j	1003136 <vprintfmt+0x42>
 10031ae:	000a4463          	bltz	s4,10031b6 <vprintfmt+0xc2>
 10031b2:	87a2                	mv	a5,s0
 10031b4:	b749                	j	1003136 <vprintfmt+0x42>
 10031b6:	4a01                	li	s4,0
 10031b8:	bfed                	j	10031b2 <vprintfmt+0xbe>
 10031ba:	87a2                	mv	a5,s0
 10031bc:	bfad                	j	1003136 <vprintfmt+0x42>
 10031be:	87a2                	mv	a5,s0
 10031c0:	b7d5                	j	10031a4 <vprintfmt+0xb0>
 10031c2:	2585                	addiw	a1,a1,1
 10031c4:	87a2                	mv	a5,s0
 10031c6:	bf85                	j	1003136 <vprintfmt+0x42>
 10031c8:	67a2                	ld	a5,8(sp)
 10031ca:	00878713          	addi	a4,a5,8
 10031ce:	e43a                	sd	a4,8(sp)
 10031d0:	85a6                	mv	a1,s1
 10031d2:	4388                	lw	a0,0(a5)
 10031d4:	9902                	jalr	s2
 10031d6:	bf25                	j	100310e <vprintfmt+0x1a>
 10031d8:	67a2                	ld	a5,8(sp)
 10031da:	00878713          	addi	a4,a5,8
 10031de:	e43a                	sd	a4,8(sp)
 10031e0:	0007b983          	ld	s3,0(a5)
 10031e4:	00098f63          	beqz	s3,1003202 <vprintfmt+0x10e>
 10031e8:	03405e63          	blez	s4,1003224 <vprintfmt+0x130>
 10031ec:	02d00793          	li	a5,45
 10031f0:	02fa8a63          	beq	s5,a5,1003224 <vprintfmt+0x130>
 10031f4:	85da                	mv	a1,s6
 10031f6:	854e                	mv	a0,s3
 10031f8:	ee3ff0ef          	jal	ra,10030da <strnlen>
 10031fc:	40aa0a3b          	subw	s4,s4,a0
 1003200:	a819                	j	1003216 <vprintfmt+0x122>
 1003202:	00000997          	auipc	s3,0x0
 1003206:	67698993          	addi	s3,s3,1654 # 1003878 <strncmp+0x406>
 100320a:	bff9                	j	10031e8 <vprintfmt+0xf4>
 100320c:	85a6                	mv	a1,s1
 100320e:	000a851b          	sext.w	a0,s5
 1003212:	9902                	jalr	s2
 1003214:	3a7d                	addiw	s4,s4,-1
 1003216:	ff404be3          	bgtz	s4,100320c <vprintfmt+0x118>
 100321a:	a029                	j	1003224 <vprintfmt+0x130>
 100321c:	85a6                	mv	a1,s1
 100321e:	9902                	jalr	s2
 1003220:	0985                	addi	s3,s3,1
 1003222:	3a7d                	addiw	s4,s4,-1
 1003224:	0009c503          	lbu	a0,0(s3)
 1003228:	cd01                	beqz	a0,1003240 <vprintfmt+0x14c>
 100322a:	fe0b49e3          	bltz	s6,100321c <vprintfmt+0x128>
 100322e:	3b7d                	addiw	s6,s6,-1
 1003230:	fe0b56e3          	bgez	s6,100321c <vprintfmt+0x128>
 1003234:	a031                	j	1003240 <vprintfmt+0x14c>
 1003236:	85a6                	mv	a1,s1
 1003238:	02000513          	li	a0,32
 100323c:	9902                	jalr	s2
 100323e:	3a7d                	addiw	s4,s4,-1
 1003240:	ff404be3          	bgtz	s4,1003236 <vprintfmt+0x142>
 1003244:	b5e9                	j	100310e <vprintfmt+0x1a>
 1003246:	0028                	addi	a0,sp,8
 1003248:	ca3ff0ef          	jal	ra,1002eea <getint>
 100324c:	89aa                	mv	s3,a0
 100324e:	00054463          	bltz	a0,1003256 <vprintfmt+0x162>
 1003252:	49a9                	li	s3,10
 1003254:	a821                	j	100326c <vprintfmt+0x178>
 1003256:	85a6                	mv	a1,s1
 1003258:	02d00513          	li	a0,45
 100325c:	9902                	jalr	s2
 100325e:	41300533          	neg	a0,s3
 1003262:	bfc5                	j	1003252 <vprintfmt+0x15e>
 1003264:	49a1                	li	s3,8
 1003266:	0028                	addi	a0,sp,8
 1003268:	c55ff0ef          	jal	ra,1002ebc <getuint>
 100326c:	0009861b          	sext.w	a2,s3
 1003270:	2a81                	sext.w	s5,s5
 1003272:	4781                	li	a5,0
 1003274:	02061713          	slli	a4,a2,0x20
 1003278:	9301                	srli	a4,a4,0x20
 100327a:	02e576b3          	remu	a3,a0,a4
 100327e:	0017899b          	addiw	s3,a5,1
 1003282:	078a                	slli	a5,a5,0x2
 1003284:	0a0c                	addi	a1,sp,272
 1003286:	97ae                	add	a5,a5,a1
 1003288:	f0d7a023          	sw	a3,-256(a5)
 100328c:	02e56363          	bltu	a0,a4,10032b2 <vprintfmt+0x1be>
 1003290:	02e55533          	divu	a0,a0,a4
 1003294:	87ce                	mv	a5,s3
 1003296:	bff9                	j	1003274 <vprintfmt+0x180>
 1003298:	85a6                	mv	a1,s1
 100329a:	03000513          	li	a0,48
 100329e:	9902                	jalr	s2
 10032a0:	85a6                	mv	a1,s1
 10032a2:	07800513          	li	a0,120
 10032a6:	9902                	jalr	s2
 10032a8:	4585                	li	a1,1
 10032aa:	49c1                	li	s3,16
 10032ac:	bf6d                	j	1003266 <vprintfmt+0x172>
 10032ae:	49a9                	li	s3,10
 10032b0:	bf5d                	j	1003266 <vprintfmt+0x172>
 10032b2:	fffa0b1b          	addiw	s6,s4,-1
 10032b6:	0149dd63          	bge	s3,s4,10032d0 <vprintfmt+0x1dc>
 10032ba:	85a6                	mv	a1,s1
 10032bc:	8556                	mv	a0,s5
 10032be:	9902                	jalr	s2
 10032c0:	8a5a                	mv	s4,s6
 10032c2:	bfc5                	j	10032b2 <vprintfmt+0x1be>
 10032c4:	03000513          	li	a0,48
 10032c8:	85a6                	mv	a1,s1
 10032ca:	9d3d                	addw	a0,a0,a5
 10032cc:	9902                	jalr	s2
 10032ce:	89d2                	mv	s3,s4
 10032d0:	fff98a1b          	addiw	s4,s3,-1
 10032d4:	e3305de3          	blez	s3,100310e <vprintfmt+0x1a>
 10032d8:	002a1793          	slli	a5,s4,0x2
 10032dc:	0a18                	addi	a4,sp,272
 10032de:	97ba                	add	a5,a5,a4
 10032e0:	f007a783          	lw	a5,-256(a5)
 10032e4:	4725                	li	a4,9
 10032e6:	fcf77fe3          	bgeu	a4,a5,10032c4 <vprintfmt+0x1d0>
 10032ea:	05700513          	li	a0,87
 10032ee:	bfe9                	j	10032c8 <vprintfmt+0x1d4>
 10032f0:	85a6                	mv	a1,s1
 10032f2:	9902                	jalr	s2
 10032f4:	bd29                	j	100310e <vprintfmt+0x1a>
 10032f6:	85a6                	mv	a1,s1
 10032f8:	02500513          	li	a0,37
 10032fc:	9902                	jalr	s2
 10032fe:	844e                	mv	s0,s3
 1003300:	b539                	j	100310e <vprintfmt+0x1a>
 1003302:	60b6                	ld	ra,328(sp)
 1003304:	6416                	ld	s0,320(sp)
 1003306:	74f2                	ld	s1,312(sp)
 1003308:	7952                	ld	s2,304(sp)
 100330a:	79b2                	ld	s3,296(sp)
 100330c:	7a12                	ld	s4,288(sp)
 100330e:	6af2                	ld	s5,280(sp)
 1003310:	6b52                	ld	s6,272(sp)
 1003312:	6171                	addi	sp,sp,336
 1003314:	8082                	ret

0000000001003316 <printf>:
 1003316:	711d                	addi	sp,sp,-96
 1003318:	ec06                	sd	ra,24(sp)
 100331a:	f42e                	sd	a1,40(sp)
 100331c:	f832                	sd	a2,48(sp)
 100331e:	fc36                	sd	a3,56(sp)
 1003320:	e0ba                	sd	a4,64(sp)
 1003322:	e4be                	sd	a5,72(sp)
 1003324:	e8c2                	sd	a6,80(sp)
 1003326:	ecc6                	sd	a7,88(sp)
 1003328:	1034                	addi	a3,sp,40
 100332a:	e436                	sd	a3,8(sp)
 100332c:	862a                	mv	a2,a0
 100332e:	4581                	li	a1,0
 1003330:	00000517          	auipc	a0,0x0
 1003334:	b7650513          	addi	a0,a0,-1162 # 1002ea6 <putchar>
 1003338:	dbdff0ef          	jal	ra,10030f4 <vprintfmt>
 100333c:	4501                	li	a0,0
 100333e:	60e2                	ld	ra,24(sp)
 1003340:	6125                	addi	sp,sp,96
 1003342:	8082                	ret

0000000001003344 <handle_trap>:
 1003344:	1141                	addi	sp,sp,-16
 1003346:	e406                	sd	ra,8(sp)
 1003348:	862e                	mv	a2,a1
 100334a:	85aa                	mv	a1,a0
 100334c:	00000517          	auipc	a0,0x0
 1003350:	53450513          	addi	a0,a0,1332 # 1003880 <strncmp+0x40e>
 1003354:	fc3ff0ef          	jal	ra,1003316 <printf>
 1003358:	c19ff0ef          	jal	ra,1002f70 <exit>

000000000100335c <_init>:
 100335c:	1101                	addi	sp,sp,-32
 100335e:	ec06                	sd	ra,24(sp)
 1003360:	e822                	sd	s0,16(sp)
 1003362:	e426                	sd	s1,8(sp)
 1003364:	4581                	li	a1,0
 1003366:	4501                	li	a0,0
 1003368:	d42fd0ef          	jal	ra,10008aa <main>
 100336c:	84aa                	mv	s1,a0
 100336e:	4401                	li	s0,0
 1003370:	a821                	j	1003388 <_init+0x2c>
 1003372:	f5018793          	addi	a5,gp,-176 # 1003c48 <counters>
 1003376:	97ba                	add	a5,a5,a4
 1003378:	6b8c                	ld	a1,16(a5)
 100337a:	00000517          	auipc	a0,0x0
 100337e:	53e50513          	addi	a0,a0,1342 # 10038b8 <strncmp+0x446>
 1003382:	f95ff0ef          	jal	ra,1003316 <printf>
 1003386:	2405                	addiw	s0,s0,1
 1003388:	4785                	li	a5,1
 100338a:	0087ca63          	blt	a5,s0,100339e <_init+0x42>
 100338e:	00341713          	slli	a4,s0,0x3
 1003392:	f5018793          	addi	a5,gp,-176 # 1003c48 <counters>
 1003396:	97ba                	add	a5,a5,a4
 1003398:	6390                	ld	a2,0(a5)
 100339a:	d675                	beqz	a2,1003386 <_init+0x2a>
 100339c:	bfd9                	j	1003372 <_init+0x16>
 100339e:	8526                	mv	a0,s1
 10033a0:	bd1ff0ef          	jal	ra,1002f70 <exit>

00000000010033a4 <sprintf>:
 10033a4:	711d                	addi	sp,sp,-96
 10033a6:	f406                	sd	ra,40(sp)
 10033a8:	f022                	sd	s0,32(sp)
 10033aa:	e42a                	sd	a0,8(sp)
 10033ac:	f832                	sd	a2,48(sp)
 10033ae:	fc36                	sd	a3,56(sp)
 10033b0:	e0ba                	sd	a4,64(sp)
 10033b2:	e4be                	sd	a5,72(sp)
 10033b4:	e8c2                	sd	a6,80(sp)
 10033b6:	ecc6                	sd	a7,88(sp)
 10033b8:	842a                	mv	s0,a0
 10033ba:	1814                	addi	a3,sp,48
 10033bc:	ec36                	sd	a3,24(sp)
 10033be:	862e                	mv	a2,a1
 10033c0:	002c                	addi	a1,sp,8
 10033c2:	00000517          	auipc	a0,0x0
 10033c6:	b5450513          	addi	a0,a0,-1196 # 1002f16 <sprintf_putch.3080>
 10033ca:	d2bff0ef          	jal	ra,10030f4 <vprintfmt>
 10033ce:	67a2                	ld	a5,8(sp)
 10033d0:	00078023          	sb	zero,0(a5)
 10033d4:	6522                	ld	a0,8(sp)
 10033d6:	9d01                	subw	a0,a0,s0
 10033d8:	70a2                	ld	ra,40(sp)
 10033da:	7402                	ld	s0,32(sp)
 10033dc:	6125                	addi	sp,sp,96
 10033de:	8082                	ret

00000000010033e0 <strcmp>:
 10033e0:	00054703          	lbu	a4,0(a0)
 10033e4:	0505                	addi	a0,a0,1
 10033e6:	0005c783          	lbu	a5,0(a1)
 10033ea:	0585                	addi	a1,a1,1
 10033ec:	00f71363          	bne	a4,a5,10033f2 <strcmp+0x12>
 10033f0:	fb65                	bnez	a4,10033e0 <strcmp>
 10033f2:	40f7053b          	subw	a0,a4,a5
 10033f6:	8082                	ret

00000000010033f8 <strcpy>:
 10033f8:	86aa                	mv	a3,a0
 10033fa:	0005c703          	lbu	a4,0(a1)
 10033fe:	0585                	addi	a1,a1,1
 1003400:	00e68023          	sb	a4,0(a3)
 1003404:	0685                	addi	a3,a3,1
 1003406:	fb75                	bnez	a4,10033fa <strcpy+0x2>
 1003408:	8082                	ret

000000000100340a <atol>:
 100340a:	87aa                	mv	a5,a0
 100340c:	0007c703          	lbu	a4,0(a5)
 1003410:	02000693          	li	a3,32
 1003414:	00d71463          	bne	a4,a3,100341c <atol+0x12>
 1003418:	0785                	addi	a5,a5,1
 100341a:	bfcd                	j	100340c <atol+0x2>
 100341c:	02d00693          	li	a3,45
 1003420:	00d70863          	beq	a4,a3,1003430 <atol+0x26>
 1003424:	02b00693          	li	a3,43
 1003428:	00d70463          	beq	a4,a3,1003430 <atol+0x26>
 100342c:	4601                	li	a2,0
 100342e:	a031                	j	100343a <atol+0x30>
 1003430:	fd370713          	addi	a4,a4,-45
 1003434:	00173613          	seqz	a2,a4
 1003438:	0785                	addi	a5,a5,1
 100343a:	4501                	li	a0,0
 100343c:	a811                	j	1003450 <atol+0x46>
 100343e:	00251713          	slli	a4,a0,0x2
 1003442:	972a                	add	a4,a4,a0
 1003444:	0706                	slli	a4,a4,0x1
 1003446:	0785                	addi	a5,a5,1
 1003448:	fd06869b          	addiw	a3,a3,-48
 100344c:	00e68533          	add	a0,a3,a4
 1003450:	0007c683          	lbu	a3,0(a5)
 1003454:	f6ed                	bnez	a3,100343e <atol+0x34>
 1003456:	c219                	beqz	a2,100345c <atol+0x52>
 1003458:	40a00533          	neg	a0,a0
 100345c:	8082                	ret

000000000100345e <isxdigit>:
 100345e:	0015079b          	addiw	a5,a0,1
 1003462:	e4018513          	addi	a0,gp,-448 # 1003b38 <_ctype_>
 1003466:	953e                	add	a0,a0,a5
 1003468:	00054503          	lbu	a0,0(a0)
 100346c:	04457513          	andi	a0,a0,68
 1003470:	8082                	ret

0000000001003472 <strncmp>:
 1003472:	ce35                	beqz	a2,10034ee <strncmp+0x7c>
 1003474:	00b567b3          	or	a5,a0,a1
 1003478:	8b9d                	andi	a5,a5,7
 100347a:	e3a9                	bnez	a5,10034bc <strncmp+0x4a>
 100347c:	479d                	li	a5,7
 100347e:	02c7ff63          	bgeu	a5,a2,10034bc <strncmp+0x4a>
 1003482:	00000317          	auipc	t1,0x0
 1003486:	07633303          	ld	t1,118(t1) # 10034f8 <strncmp+0x86>
 100348a:	00000897          	auipc	a7,0x0
 100348e:	0768b883          	ld	a7,118(a7) # 1003500 <strncmp+0x8e>
 1003492:	4e1d                	li	t3,7
 1003494:	a801                	j	10034a4 <strncmp+0x32>
 1003496:	1661                	addi	a2,a2,-8
 1003498:	ca39                	beqz	a2,10034ee <strncmp+0x7c>
 100349a:	ebb1                	bnez	a5,10034ee <strncmp+0x7c>
 100349c:	0521                	addi	a0,a0,8
 100349e:	05a1                	addi	a1,a1,8
 10034a0:	00ce7e63          	bgeu	t3,a2,10034bc <strncmp+0x4a>
 10034a4:	6118                	ld	a4,0(a0)
 10034a6:	6194                	ld	a3,0(a1)
 10034a8:	006707b3          	add	a5,a4,t1
 10034ac:	fff74813          	not	a6,a4
 10034b0:	0107f7b3          	and	a5,a5,a6
 10034b4:	0117f7b3          	and	a5,a5,a7
 10034b8:	fcd70fe3          	beq	a4,a3,1003496 <strncmp+0x24>
 10034bc:	00054683          	lbu	a3,0(a0)
 10034c0:	0005c803          	lbu	a6,0(a1)
 10034c4:	02d81763          	bne	a6,a3,10034f2 <strncmp+0x80>
 10034c8:	4785                	li	a5,1
 10034ca:	02f60263          	beq	a2,a5,10034ee <strncmp+0x7c>
 10034ce:	872a                	mv	a4,a0
 10034d0:	a801                	j	10034e0 <strncmp+0x6e>
 10034d2:	00074683          	lbu	a3,0(a4)
 10034d6:	0005c803          	lbu	a6,0(a1)
 10034da:	01069c63          	bne	a3,a6,10034f2 <strncmp+0x80>
 10034de:	cb81                	beqz	a5,10034ee <strncmp+0x7c>
 10034e0:	0705                	addi	a4,a4,1
 10034e2:	fff74793          	not	a5,a4
 10034e6:	97b2                	add	a5,a5,a2
 10034e8:	0585                	addi	a1,a1,1
 10034ea:	97aa                	add	a5,a5,a0
 10034ec:	f2fd                	bnez	a3,10034d2 <strncmp+0x60>
 10034ee:	4501                	li	a0,0
 10034f0:	8082                	ret
 10034f2:	4106853b          	subw	a0,a3,a6
 10034f6:	8082                	ret
