
output/hello.riscv:     file format elf64-littleriscv


Disassembly of section .text.init:

0000000080000000 <_start>:
    80000000:	62f9                	lui	t0,0x1e
    80000002:	3002a073          	csrs	mstatus,t0
    80000006:	4285                	li	t0,1
    80000008:	02fe                	slli	t0,t0,0x1f
    8000000a:	0002d563          	bgez	t0,80000014 <_start+0x14>
    8000000e:	4505                	li	a0,1
    80000010:	14e0106f          	j	8000115e <exit>
    80000014:	00000297          	auipc	t0,0x0
    80000018:	01028293          	addi	t0,t0,16 # 80000024 <_start+0x24>
    8000001c:	30529073          	csrw	mtvec,t0
    80000020:	00301073          	fscsr	zero
    80000024:	00000297          	auipc	t0,0x0
    80000028:	03828293          	addi	t0,t0,56 # 8000005c <trap_entry>
    8000002c:	30529073          	csrw	mtvec,t0
    80000030:	00002197          	auipc	gp,0x2
    80000034:	01418193          	addi	gp,gp,20 # 80002044 <__global_pointer$>
    80000038:	87b18213          	addi	tp,gp,-1925 # 800018bf <_end+0x3f>
    8000003c:	fc027213          	andi	tp,tp,-64
    80000040:	f1402573          	csrr	a0,mhartid
    80000044:	4585                	li	a1,1
    80000046:	00b57063          	bgeu	a0,a1,80000046 <_start+0x46>
    8000004a:	01151613          	slli	a2,a0,0x11
    8000004e:	9232                	add	tp,tp,a2
    80000050:	00150113          	addi	sp,a0,1
    80000054:	0146                	slli	sp,sp,0x11
    80000056:	9112                	add	sp,sp,tp
    80000058:	4fa0106f          	j	80001552 <_init>

000000008000005c <trap_entry>:
    8000005c:	716d                	addi	sp,sp,-272
    8000005e:	e406                	sd	ra,8(sp)
    80000060:	e80a                	sd	sp,16(sp)
    80000062:	ec0e                	sd	gp,24(sp)
    80000064:	f012                	sd	tp,32(sp)
    80000066:	f416                	sd	t0,40(sp)
    80000068:	f81a                	sd	t1,48(sp)
    8000006a:	fc1e                	sd	t2,56(sp)
    8000006c:	e0a2                	sd	s0,64(sp)
    8000006e:	e4a6                	sd	s1,72(sp)
    80000070:	e8aa                	sd	a0,80(sp)
    80000072:	ecae                	sd	a1,88(sp)
    80000074:	f0b2                	sd	a2,96(sp)
    80000076:	f4b6                	sd	a3,104(sp)
    80000078:	f8ba                	sd	a4,112(sp)
    8000007a:	fcbe                	sd	a5,120(sp)
    8000007c:	e142                	sd	a6,128(sp)
    8000007e:	e546                	sd	a7,136(sp)
    80000080:	e94a                	sd	s2,144(sp)
    80000082:	ed4e                	sd	s3,152(sp)
    80000084:	f152                	sd	s4,160(sp)
    80000086:	f556                	sd	s5,168(sp)
    80000088:	f95a                	sd	s6,176(sp)
    8000008a:	fd5e                	sd	s7,184(sp)
    8000008c:	e1e2                	sd	s8,192(sp)
    8000008e:	e5e6                	sd	s9,200(sp)
    80000090:	e9ea                	sd	s10,208(sp)
    80000092:	edee                	sd	s11,216(sp)
    80000094:	f1f2                	sd	t3,224(sp)
    80000096:	f5f6                	sd	t4,232(sp)
    80000098:	f9fa                	sd	t5,240(sp)
    8000009a:	fdfe                	sd	t6,248(sp)
    8000009c:	34202573          	csrr	a0,mcause
    800000a0:	341025f3          	csrr	a1,mepc
    800000a4:	860a                	mv	a2,sp
    800000a6:	494010ef          	jal	ra,8000153a <handle_trap>
    800000aa:	34151073          	csrw	mepc,a0
    800000ae:	6289                	lui	t0,0x2
    800000b0:	8002829b          	addiw	t0,t0,-2048
    800000b4:	3002a073          	csrs	mstatus,t0
    800000b8:	60a2                	ld	ra,8(sp)
    800000ba:	6142                	ld	sp,16(sp)
    800000bc:	61e2                	ld	gp,24(sp)
    800000be:	7202                	ld	tp,32(sp)
    800000c0:	72a2                	ld	t0,40(sp)
    800000c2:	7342                	ld	t1,48(sp)
    800000c4:	73e2                	ld	t2,56(sp)
    800000c6:	6406                	ld	s0,64(sp)
    800000c8:	64a6                	ld	s1,72(sp)
    800000ca:	6546                	ld	a0,80(sp)
    800000cc:	65e6                	ld	a1,88(sp)
    800000ce:	7606                	ld	a2,96(sp)
    800000d0:	76a6                	ld	a3,104(sp)
    800000d2:	7746                	ld	a4,112(sp)
    800000d4:	77e6                	ld	a5,120(sp)
    800000d6:	680a                	ld	a6,128(sp)
    800000d8:	68aa                	ld	a7,136(sp)
    800000da:	694a                	ld	s2,144(sp)
    800000dc:	69ea                	ld	s3,152(sp)
    800000de:	7a0a                	ld	s4,160(sp)
    800000e0:	7aaa                	ld	s5,168(sp)
    800000e2:	7b4a                	ld	s6,176(sp)
    800000e4:	7bea                	ld	s7,184(sp)
    800000e6:	6c0e                	ld	s8,192(sp)
    800000e8:	6cae                	ld	s9,200(sp)
    800000ea:	6d4e                	ld	s10,208(sp)
    800000ec:	6dee                	ld	s11,216(sp)
    800000ee:	7e0e                	ld	t3,224(sp)
    800000f0:	7eae                	ld	t4,232(sp)
    800000f2:	7f4e                	ld	t5,240(sp)
    800000f4:	7fee                	ld	t6,248(sp)
    800000f6:	6151                	addi	sp,sp,272
    800000f8:	30200073          	mret
	...

Disassembly of section .tohost:

0000000080001000 <tohost>:
	...

0000000080001040 <fromhost>:
	...

Disassembly of section .text:

0000000080001048 <main>:
    80001048:	1141                	addi	sp,sp,-16
    8000104a:	e406                	sd	ra,8(sp)
    8000104c:	00000517          	auipc	a0,0x0
    80001050:	61450513          	addi	a0,a0,1556 # 80001660 <atol+0x58>
    80001054:	4b8000ef          	jal	ra,8000150c <printf>
    80001058:	4501                	li	a0,0
    8000105a:	60a2                	ld	ra,8(sp)
    8000105c:	0141                	addi	sp,sp,16
    8000105e:	8082                	ret

0000000080001060 <getuint>:
    80001060:	4785                	li	a5,1
    80001062:	00b7c963          	blt	a5,a1,80001074 <getuint+0x14>
    80001066:	cd89                	beqz	a1,80001080 <getuint+0x20>
    80001068:	611c                	ld	a5,0(a0)
    8000106a:	00878713          	addi	a4,a5,8
    8000106e:	e118                	sd	a4,0(a0)
    80001070:	6388                	ld	a0,0(a5)
    80001072:	8082                	ret
    80001074:	611c                	ld	a5,0(a0)
    80001076:	00878713          	addi	a4,a5,8
    8000107a:	e118                	sd	a4,0(a0)
    8000107c:	6388                	ld	a0,0(a5)
    8000107e:	8082                	ret
    80001080:	611c                	ld	a5,0(a0)
    80001082:	00878713          	addi	a4,a5,8
    80001086:	e118                	sd	a4,0(a0)
    80001088:	0007e503          	lwu	a0,0(a5)
    8000108c:	8082                	ret

000000008000108e <getint>:
    8000108e:	4785                	li	a5,1
    80001090:	00b7c963          	blt	a5,a1,800010a2 <getint+0x14>
    80001094:	cd89                	beqz	a1,800010ae <getint+0x20>
    80001096:	611c                	ld	a5,0(a0)
    80001098:	00878713          	addi	a4,a5,8
    8000109c:	e118                	sd	a4,0(a0)
    8000109e:	6388                	ld	a0,0(a5)
    800010a0:	8082                	ret
    800010a2:	611c                	ld	a5,0(a0)
    800010a4:	00878713          	addi	a4,a5,8
    800010a8:	e118                	sd	a4,0(a0)
    800010aa:	6388                	ld	a0,0(a5)
    800010ac:	8082                	ret
    800010ae:	611c                	ld	a5,0(a0)
    800010b0:	00878713          	addi	a4,a5,8
    800010b4:	e118                	sd	a4,0(a0)
    800010b6:	4388                	lw	a0,0(a5)
    800010b8:	8082                	ret

00000000800010ba <sprintf_putch.3080>:
    800010ba:	619c                	ld	a5,0(a1)
    800010bc:	00a78023          	sb	a0,0(a5)
    800010c0:	619c                	ld	a5,0(a1)
    800010c2:	0785                	addi	a5,a5,1
    800010c4:	e19c                	sd	a5,0(a1)
    800010c6:	8082                	ret

00000000800010c8 <syscall>:
    800010c8:	7159                	addi	sp,sp,-112
    800010ca:	03f10713          	addi	a4,sp,63
    800010ce:	fc077713          	andi	a4,a4,-64
    800010d2:	e308                	sd	a0,0(a4)
    800010d4:	e70c                	sd	a1,8(a4)
    800010d6:	eb10                	sd	a2,16(a4)
    800010d8:	ef14                	sd	a3,24(a4)
    800010da:	0ff0000f          	fence
    800010de:	00000797          	auipc	a5,0x0
    800010e2:	f2e7b123          	sd	a4,-222(a5) # 80001000 <tohost>
    800010e6:	00000797          	auipc	a5,0x0
    800010ea:	f5a7b783          	ld	a5,-166(a5) # 80001040 <fromhost>
    800010ee:	dfe5                	beqz	a5,800010e6 <syscall+0x1e>
    800010f0:	00000797          	auipc	a5,0x0
    800010f4:	f407b823          	sd	zero,-176(a5) # 80001040 <fromhost>
    800010f8:	0ff0000f          	fence
    800010fc:	6308                	ld	a0,0(a4)
    800010fe:	6165                	addi	sp,sp,112
    80001100:	8082                	ret

0000000080001102 <putchar>:
    80001102:	04022603          	lw	a2,64(tp) # 40 <buflen.2955>
    80001106:	0016079b          	addiw	a5,a2,1
    8000110a:	0007869b          	sext.w	a3,a5
    8000110e:	04f22023          	sw	a5,64(tp) # 40 <buflen.2955>
    80001112:	00020793          	mv	a5,tp
    80001116:	97b2                	add	a5,a5,a2
    80001118:	00a78023          	sb	a0,0(a5)
    8000111c:	47a9                	li	a5,10
    8000111e:	00f50863          	beq	a0,a5,8000112e <putchar+0x2c>
    80001122:	04000793          	li	a5,64
    80001126:	00f68463          	beq	a3,a5,8000112e <putchar+0x2c>
    8000112a:	4501                	li	a0,0
    8000112c:	8082                	ret
    8000112e:	1141                	addi	sp,sp,-16
    80001130:	e406                	sd	ra,8(sp)
    80001132:	00020613          	mv	a2,tp
    80001136:	4585                	li	a1,1
    80001138:	04000513          	li	a0,64
    8000113c:	f8dff0ef          	jal	ra,800010c8 <syscall>
    80001140:	04022023          	sw	zero,64(tp) # 40 <buflen.2955>
    80001144:	4501                	li	a0,0
    80001146:	60a2                	ld	ra,8(sp)
    80001148:	0141                	addi	sp,sp,16
    8000114a:	8082                	ret

000000008000114c <tohost_exit>:
    8000114c:	00151793          	slli	a5,a0,0x1
    80001150:	0017e793          	ori	a5,a5,1
    80001154:	00000717          	auipc	a4,0x0
    80001158:	eaf73623          	sd	a5,-340(a4) # 80001000 <tohost>
    8000115c:	a001                	j	8000115c <tohost_exit+0x10>

000000008000115e <exit>:
    8000115e:	1141                	addi	sp,sp,-16
    80001160:	e406                	sd	ra,8(sp)
    80001162:	4501                	li	a0,0
    80001164:	fe9ff0ef          	jal	ra,8000114c <tohost_exit>

0000000080001168 <setStats>:
    80001168:	b00027f3          	csrr	a5,mcycle
    8000116c:	ed01                	bnez	a0,80001184 <setStats+0x1c>
    8000116e:	00000717          	auipc	a4,0x0
    80001172:	6da70713          	addi	a4,a4,1754 # 80001848 <counters>
    80001176:	6314                	ld	a3,0(a4)
    80001178:	8f95                	sub	a5,a5,a3
    8000117a:	00000697          	auipc	a3,0x0
    8000117e:	4f668693          	addi	a3,a3,1270 # 80001670 <atol+0x68>
    80001182:	eb14                	sd	a3,16(a4)
    80001184:	00000717          	auipc	a4,0x0
    80001188:	6cf73223          	sd	a5,1732(a4) # 80001848 <counters>
    8000118c:	b02027f3          	csrr	a5,minstret
    80001190:	ed01                	bnez	a0,800011a8 <setStats+0x40>
    80001192:	00000717          	auipc	a4,0x0
    80001196:	6b670713          	addi	a4,a4,1718 # 80001848 <counters>
    8000119a:	6714                	ld	a3,8(a4)
    8000119c:	8f95                	sub	a5,a5,a3
    8000119e:	00000697          	auipc	a3,0x0
    800011a2:	4da68693          	addi	a3,a3,1242 # 80001678 <atol+0x70>
    800011a6:	ef14                	sd	a3,24(a4)
    800011a8:	00000717          	auipc	a4,0x0
    800011ac:	6af73423          	sd	a5,1704(a4) # 80001850 <counters+0x8>
    800011b0:	8082                	ret

00000000800011b2 <abort>:
    800011b2:	1141                	addi	sp,sp,-16
    800011b4:	e406                	sd	ra,8(sp)
    800011b6:	fa9ff0ef          	jal	ra,8000115e <exit>

00000000800011ba <thread_entry>:
    800011ba:	e101                	bnez	a0,800011ba <thread_entry>
    800011bc:	8082                	ret

00000000800011be <memcpy>:
    800011be:	00b567b3          	or	a5,a0,a1
    800011c2:	8fd1                	or	a5,a5,a2
    800011c4:	8b9d                	andi	a5,a5,7
    800011c6:	cf89                	beqz	a5,800011e0 <memcpy+0x22>
    800011c8:	87aa                	mv	a5,a0
    800011ca:	00c50733          	add	a4,a0,a2
    800011ce:	02e7f463          	bgeu	a5,a4,800011f6 <memcpy+0x38>
    800011d2:	0005c703          	lbu	a4,0(a1)
    800011d6:	00e78023          	sb	a4,0(a5)
    800011da:	0785                	addi	a5,a5,1
    800011dc:	0585                	addi	a1,a1,1
    800011de:	b7f5                	j	800011ca <memcpy+0xc>
    800011e0:	87aa                	mv	a5,a0
    800011e2:	00c50733          	add	a4,a0,a2
    800011e6:	00e7f763          	bgeu	a5,a4,800011f4 <memcpy+0x36>
    800011ea:	6198                	ld	a4,0(a1)
    800011ec:	e398                	sd	a4,0(a5)
    800011ee:	07a1                	addi	a5,a5,8
    800011f0:	05a1                	addi	a1,a1,8
    800011f2:	bfc5                	j	800011e2 <memcpy+0x24>
    800011f4:	8082                	ret
    800011f6:	8082                	ret

00000000800011f8 <memset>:
    800011f8:	00c567b3          	or	a5,a0,a2
    800011fc:	8b9d                	andi	a5,a5,7
    800011fe:	e78d                	bnez	a5,80001228 <memset+0x30>
    80001200:	0ff5f593          	andi	a1,a1,255
    80001204:	00859793          	slli	a5,a1,0x8
    80001208:	8ddd                	or	a1,a1,a5
    8000120a:	01059793          	slli	a5,a1,0x10
    8000120e:	8fcd                	or	a5,a5,a1
    80001210:	02079593          	slli	a1,a5,0x20
    80001214:	8ddd                	or	a1,a1,a5
    80001216:	87aa                	mv	a5,a0
    80001218:	00c50733          	add	a4,a0,a2
    8000121c:	00e7f563          	bgeu	a5,a4,80001226 <memset+0x2e>
    80001220:	e38c                	sd	a1,0(a5)
    80001222:	07a1                	addi	a5,a5,8
    80001224:	bfd5                	j	80001218 <memset+0x20>
    80001226:	8082                	ret
    80001228:	87aa                	mv	a5,a0
    8000122a:	00c50733          	add	a4,a0,a2
    8000122e:	00e7f663          	bgeu	a5,a4,8000123a <memset+0x42>
    80001232:	00b78023          	sb	a1,0(a5)
    80001236:	0785                	addi	a5,a5,1
    80001238:	bfcd                	j	8000122a <memset+0x32>
    8000123a:	8082                	ret

000000008000123c <strlen>:
    8000123c:	87aa                	mv	a5,a0
    8000123e:	0007c703          	lbu	a4,0(a5)
    80001242:	c319                	beqz	a4,80001248 <strlen+0xc>
    80001244:	0785                	addi	a5,a5,1
    80001246:	bfe5                	j	8000123e <strlen+0x2>
    80001248:	40a78533          	sub	a0,a5,a0
    8000124c:	8082                	ret

000000008000124e <printstr>:
    8000124e:	1141                	addi	sp,sp,-16
    80001250:	e406                	sd	ra,8(sp)
    80001252:	e022                	sd	s0,0(sp)
    80001254:	842a                	mv	s0,a0
    80001256:	fe7ff0ef          	jal	ra,8000123c <strlen>
    8000125a:	86aa                	mv	a3,a0
    8000125c:	8622                	mv	a2,s0
    8000125e:	4585                	li	a1,1
    80001260:	04000513          	li	a0,64
    80001264:	e65ff0ef          	jal	ra,800010c8 <syscall>
    80001268:	60a2                	ld	ra,8(sp)
    8000126a:	6402                	ld	s0,0(sp)
    8000126c:	0141                	addi	sp,sp,16
    8000126e:	8082                	ret
    80001270:	1141                	addi	sp,sp,-16
    80001272:	e406                	sd	ra,8(sp)
    80001274:	00000517          	auipc	a0,0x0
    80001278:	41450513          	addi	a0,a0,1044 # 80001688 <atol+0x80>
    8000127c:	fd3ff0ef          	jal	ra,8000124e <printstr>
    80001280:	557d                	li	a0,-1
    80001282:	60a2                	ld	ra,8(sp)
    80001284:	0141                	addi	sp,sp,16
    80001286:	8082                	ret

0000000080001288 <printhex>:
    80001288:	7179                	addi	sp,sp,-48
    8000128a:	f406                	sd	ra,40(sp)
    8000128c:	4701                	li	a4,0
    8000128e:	a821                	j	800012a6 <printhex+0x1e>
    80001290:	05700613          	li	a2,87
    80001294:	47bd                	li	a5,15
    80001296:	9f99                	subw	a5,a5,a4
    80001298:	96b2                	add	a3,a3,a2
    8000129a:	1010                	addi	a2,sp,32
    8000129c:	97b2                	add	a5,a5,a2
    8000129e:	fed78423          	sb	a3,-24(a5)
    800012a2:	8111                	srli	a0,a0,0x4
    800012a4:	2705                	addiw	a4,a4,1
    800012a6:	47bd                	li	a5,15
    800012a8:	00e7ca63          	blt	a5,a4,800012bc <printhex+0x34>
    800012ac:	00f57693          	andi	a3,a0,15
    800012b0:	4625                	li	a2,9
    800012b2:	fcd66fe3          	bltu	a2,a3,80001290 <printhex+0x8>
    800012b6:	03000613          	li	a2,48
    800012ba:	bfe9                	j	80001294 <printhex+0xc>
    800012bc:	00010c23          	sb	zero,24(sp)
    800012c0:	0028                	addi	a0,sp,8
    800012c2:	f8dff0ef          	jal	ra,8000124e <printstr>
    800012c6:	70a2                	ld	ra,40(sp)
    800012c8:	6145                	addi	sp,sp,48
    800012ca:	8082                	ret

00000000800012cc <strnlen>:
    800012cc:	87aa                	mv	a5,a0
    800012ce:	fff58713          	addi	a4,a1,-1
    800012d2:	c599                	beqz	a1,800012e0 <strnlen+0x14>
    800012d4:	0007c683          	lbu	a3,0(a5)
    800012d8:	c681                	beqz	a3,800012e0 <strnlen+0x14>
    800012da:	0785                	addi	a5,a5,1
    800012dc:	85ba                	mv	a1,a4
    800012de:	bfc5                	j	800012ce <strnlen+0x2>
    800012e0:	40a78533          	sub	a0,a5,a0
    800012e4:	8082                	ret

00000000800012e6 <vprintfmt>:
    800012e6:	714d                	addi	sp,sp,-336
    800012e8:	e686                	sd	ra,328(sp)
    800012ea:	e2a2                	sd	s0,320(sp)
    800012ec:	fe26                	sd	s1,312(sp)
    800012ee:	fa4a                	sd	s2,304(sp)
    800012f0:	f64e                	sd	s3,296(sp)
    800012f2:	f252                	sd	s4,288(sp)
    800012f4:	ee56                	sd	s5,280(sp)
    800012f6:	ea5a                	sd	s6,272(sp)
    800012f8:	892a                	mv	s2,a0
    800012fa:	84ae                	mv	s1,a1
    800012fc:	8432                	mv	s0,a2
    800012fe:	e436                	sd	a3,8(sp)
    80001300:	00044503          	lbu	a0,0(s0)
    80001304:	02500793          	li	a5,37
    80001308:	00f50863          	beq	a0,a5,80001318 <vprintfmt+0x32>
    8000130c:	1e050663          	beqz	a0,800014f8 <vprintfmt+0x212>
    80001310:	0405                	addi	s0,s0,1
    80001312:	85a6                	mv	a1,s1
    80001314:	9902                	jalr	s2
    80001316:	b7ed                	j	80001300 <vprintfmt+0x1a>
    80001318:	00140993          	addi	s3,s0,1
    8000131c:	87ce                	mv	a5,s3
    8000131e:	02000a93          	li	s5,32
    80001322:	5b7d                	li	s6,-1
    80001324:	5a7d                	li	s4,-1
    80001326:	4581                	li	a1,0
    80001328:	00178413          	addi	s0,a5,1
    8000132c:	0007c703          	lbu	a4,0(a5)
    80001330:	0007051b          	sext.w	a0,a4
    80001334:	fdd7079b          	addiw	a5,a4,-35
    80001338:	0ff7f613          	andi	a2,a5,255
    8000133c:	05500693          	li	a3,85
    80001340:	1ac6e663          	bltu	a3,a2,800014ec <vprintfmt+0x206>
    80001344:	00261793          	slli	a5,a2,0x2
    80001348:	00000617          	auipc	a2,0x0
    8000134c:	3a460613          	addi	a2,a2,932 # 800016ec <atol+0xe4>
    80001350:	97b2                	add	a5,a5,a2
    80001352:	4394                	lw	a3,0(a5)
    80001354:	96b2                	add	a3,a3,a2
    80001356:	8682                	jr	a3
    80001358:	8aba                	mv	s5,a4
    8000135a:	87a2                	mv	a5,s0
    8000135c:	b7f1                	j	80001328 <vprintfmt+0x42>
    8000135e:	49c1                	li	s3,16
    80001360:	a8f5                	j	8000145c <vprintfmt+0x176>
    80001362:	4b01                	li	s6,0
    80001364:	002b179b          	slliw	a5,s6,0x2
    80001368:	016787bb          	addw	a5,a5,s6
    8000136c:	0017979b          	slliw	a5,a5,0x1
    80001370:	9fa9                	addw	a5,a5,a0
    80001372:	fd078b1b          	addiw	s6,a5,-48
    80001376:	00044703          	lbu	a4,0(s0)
    8000137a:	0007051b          	sext.w	a0,a4
    8000137e:	fd07071b          	addiw	a4,a4,-48
    80001382:	47a5                	li	a5,9
    80001384:	02e7e863          	bltu	a5,a4,800013b4 <vprintfmt+0xce>
    80001388:	0405                	addi	s0,s0,1
    8000138a:	bfe9                	j	80001364 <vprintfmt+0x7e>
    8000138c:	67a2                	ld	a5,8(sp)
    8000138e:	00878713          	addi	a4,a5,8
    80001392:	e43a                	sd	a4,8(sp)
    80001394:	0007ab03          	lw	s6,0(a5)
    80001398:	87a2                	mv	a5,s0
    8000139a:	f80a57e3          	bgez	s4,80001328 <vprintfmt+0x42>
    8000139e:	8a5a                	mv	s4,s6
    800013a0:	5b7d                	li	s6,-1
    800013a2:	b759                	j	80001328 <vprintfmt+0x42>
    800013a4:	000a4463          	bltz	s4,800013ac <vprintfmt+0xc6>
    800013a8:	87a2                	mv	a5,s0
    800013aa:	bfbd                	j	80001328 <vprintfmt+0x42>
    800013ac:	4a01                	li	s4,0
    800013ae:	bfed                	j	800013a8 <vprintfmt+0xc2>
    800013b0:	87a2                	mv	a5,s0
    800013b2:	bf9d                	j	80001328 <vprintfmt+0x42>
    800013b4:	87a2                	mv	a5,s0
    800013b6:	b7d5                	j	8000139a <vprintfmt+0xb4>
    800013b8:	2585                	addiw	a1,a1,1
    800013ba:	87a2                	mv	a5,s0
    800013bc:	b7b5                	j	80001328 <vprintfmt+0x42>
    800013be:	67a2                	ld	a5,8(sp)
    800013c0:	00878713          	addi	a4,a5,8
    800013c4:	e43a                	sd	a4,8(sp)
    800013c6:	85a6                	mv	a1,s1
    800013c8:	4388                	lw	a0,0(a5)
    800013ca:	9902                	jalr	s2
    800013cc:	bf15                	j	80001300 <vprintfmt+0x1a>
    800013ce:	67a2                	ld	a5,8(sp)
    800013d0:	00878713          	addi	a4,a5,8
    800013d4:	e43a                	sd	a4,8(sp)
    800013d6:	0007b983          	ld	s3,0(a5)
    800013da:	00098f63          	beqz	s3,800013f8 <vprintfmt+0x112>
    800013de:	03405e63          	blez	s4,8000141a <vprintfmt+0x134>
    800013e2:	02d00793          	li	a5,45
    800013e6:	02fa8a63          	beq	s5,a5,8000141a <vprintfmt+0x134>
    800013ea:	85da                	mv	a1,s6
    800013ec:	854e                	mv	a0,s3
    800013ee:	edfff0ef          	jal	ra,800012cc <strnlen>
    800013f2:	40aa0a3b          	subw	s4,s4,a0
    800013f6:	a819                	j	8000140c <vprintfmt+0x126>
    800013f8:	00000997          	auipc	s3,0x0
    800013fc:	2a898993          	addi	s3,s3,680 # 800016a0 <atol+0x98>
    80001400:	bff9                	j	800013de <vprintfmt+0xf8>
    80001402:	85a6                	mv	a1,s1
    80001404:	000a851b          	sext.w	a0,s5
    80001408:	9902                	jalr	s2
    8000140a:	3a7d                	addiw	s4,s4,-1
    8000140c:	ff404be3          	bgtz	s4,80001402 <vprintfmt+0x11c>
    80001410:	a029                	j	8000141a <vprintfmt+0x134>
    80001412:	85a6                	mv	a1,s1
    80001414:	9902                	jalr	s2
    80001416:	0985                	addi	s3,s3,1
    80001418:	3a7d                	addiw	s4,s4,-1
    8000141a:	0009c503          	lbu	a0,0(s3)
    8000141e:	cd01                	beqz	a0,80001436 <vprintfmt+0x150>
    80001420:	fe0b49e3          	bltz	s6,80001412 <vprintfmt+0x12c>
    80001424:	3b7d                	addiw	s6,s6,-1
    80001426:	fe0b56e3          	bgez	s6,80001412 <vprintfmt+0x12c>
    8000142a:	a031                	j	80001436 <vprintfmt+0x150>
    8000142c:	85a6                	mv	a1,s1
    8000142e:	02000513          	li	a0,32
    80001432:	9902                	jalr	s2
    80001434:	3a7d                	addiw	s4,s4,-1
    80001436:	ff404be3          	bgtz	s4,8000142c <vprintfmt+0x146>
    8000143a:	b5d9                	j	80001300 <vprintfmt+0x1a>
    8000143c:	0028                	addi	a0,sp,8
    8000143e:	c51ff0ef          	jal	ra,8000108e <getint>
    80001442:	89aa                	mv	s3,a0
    80001444:	00054463          	bltz	a0,8000144c <vprintfmt+0x166>
    80001448:	49a9                	li	s3,10
    8000144a:	a821                	j	80001462 <vprintfmt+0x17c>
    8000144c:	85a6                	mv	a1,s1
    8000144e:	02d00513          	li	a0,45
    80001452:	9902                	jalr	s2
    80001454:	41300533          	neg	a0,s3
    80001458:	bfc5                	j	80001448 <vprintfmt+0x162>
    8000145a:	49a1                	li	s3,8
    8000145c:	0028                	addi	a0,sp,8
    8000145e:	c03ff0ef          	jal	ra,80001060 <getuint>
    80001462:	0009861b          	sext.w	a2,s3
    80001466:	2a81                	sext.w	s5,s5
    80001468:	4781                	li	a5,0
    8000146a:	02061713          	slli	a4,a2,0x20
    8000146e:	9301                	srli	a4,a4,0x20
    80001470:	02e576b3          	remu	a3,a0,a4
    80001474:	0017899b          	addiw	s3,a5,1
    80001478:	078a                	slli	a5,a5,0x2
    8000147a:	0a0c                	addi	a1,sp,272
    8000147c:	97ae                	add	a5,a5,a1
    8000147e:	f0d7a023          	sw	a3,-256(a5)
    80001482:	02e56363          	bltu	a0,a4,800014a8 <vprintfmt+0x1c2>
    80001486:	02e55533          	divu	a0,a0,a4
    8000148a:	87ce                	mv	a5,s3
    8000148c:	bff9                	j	8000146a <vprintfmt+0x184>
    8000148e:	85a6                	mv	a1,s1
    80001490:	03000513          	li	a0,48
    80001494:	9902                	jalr	s2
    80001496:	85a6                	mv	a1,s1
    80001498:	07800513          	li	a0,120
    8000149c:	9902                	jalr	s2
    8000149e:	4585                	li	a1,1
    800014a0:	49c1                	li	s3,16
    800014a2:	bf6d                	j	8000145c <vprintfmt+0x176>
    800014a4:	49a9                	li	s3,10
    800014a6:	bf5d                	j	8000145c <vprintfmt+0x176>
    800014a8:	fffa0b1b          	addiw	s6,s4,-1
    800014ac:	0149dd63          	bge	s3,s4,800014c6 <vprintfmt+0x1e0>
    800014b0:	85a6                	mv	a1,s1
    800014b2:	8556                	mv	a0,s5
    800014b4:	9902                	jalr	s2
    800014b6:	8a5a                	mv	s4,s6
    800014b8:	bfc5                	j	800014a8 <vprintfmt+0x1c2>
    800014ba:	03000513          	li	a0,48
    800014be:	85a6                	mv	a1,s1
    800014c0:	9d3d                	addw	a0,a0,a5
    800014c2:	9902                	jalr	s2
    800014c4:	89d2                	mv	s3,s4
    800014c6:	fff98a1b          	addiw	s4,s3,-1
    800014ca:	e3305be3          	blez	s3,80001300 <vprintfmt+0x1a>
    800014ce:	002a1793          	slli	a5,s4,0x2
    800014d2:	0a18                	addi	a4,sp,272
    800014d4:	97ba                	add	a5,a5,a4
    800014d6:	f007a783          	lw	a5,-256(a5)
    800014da:	4725                	li	a4,9
    800014dc:	fcf77fe3          	bgeu	a4,a5,800014ba <vprintfmt+0x1d4>
    800014e0:	05700513          	li	a0,87
    800014e4:	bfe9                	j	800014be <vprintfmt+0x1d8>
    800014e6:	85a6                	mv	a1,s1
    800014e8:	9902                	jalr	s2
    800014ea:	bd19                	j	80001300 <vprintfmt+0x1a>
    800014ec:	85a6                	mv	a1,s1
    800014ee:	02500513          	li	a0,37
    800014f2:	9902                	jalr	s2
    800014f4:	844e                	mv	s0,s3
    800014f6:	b529                	j	80001300 <vprintfmt+0x1a>
    800014f8:	60b6                	ld	ra,328(sp)
    800014fa:	6416                	ld	s0,320(sp)
    800014fc:	74f2                	ld	s1,312(sp)
    800014fe:	7952                	ld	s2,304(sp)
    80001500:	79b2                	ld	s3,296(sp)
    80001502:	7a12                	ld	s4,288(sp)
    80001504:	6af2                	ld	s5,280(sp)
    80001506:	6b52                	ld	s6,272(sp)
    80001508:	6171                	addi	sp,sp,336
    8000150a:	8082                	ret

000000008000150c <printf>:
    8000150c:	711d                	addi	sp,sp,-96
    8000150e:	ec06                	sd	ra,24(sp)
    80001510:	f42e                	sd	a1,40(sp)
    80001512:	f832                	sd	a2,48(sp)
    80001514:	fc36                	sd	a3,56(sp)
    80001516:	e0ba                	sd	a4,64(sp)
    80001518:	e4be                	sd	a5,72(sp)
    8000151a:	e8c2                	sd	a6,80(sp)
    8000151c:	ecc6                	sd	a7,88(sp)
    8000151e:	1034                	addi	a3,sp,40
    80001520:	e436                	sd	a3,8(sp)
    80001522:	862a                	mv	a2,a0
    80001524:	4581                	li	a1,0
    80001526:	00000517          	auipc	a0,0x0
    8000152a:	bdc50513          	addi	a0,a0,-1060 # 80001102 <putchar>
    8000152e:	db9ff0ef          	jal	ra,800012e6 <vprintfmt>
    80001532:	4501                	li	a0,0
    80001534:	60e2                	ld	ra,24(sp)
    80001536:	6125                	addi	sp,sp,96
    80001538:	8082                	ret

000000008000153a <handle_trap>:
    8000153a:	1141                	addi	sp,sp,-16
    8000153c:	e406                	sd	ra,8(sp)
    8000153e:	862e                	mv	a2,a1
    80001540:	85aa                	mv	a1,a0
    80001542:	00000517          	auipc	a0,0x0
    80001546:	16650513          	addi	a0,a0,358 # 800016a8 <atol+0xa0>
    8000154a:	fc3ff0ef          	jal	ra,8000150c <printf>
    8000154e:	c11ff0ef          	jal	ra,8000115e <exit>

0000000080001552 <_init>:
    80001552:	1101                	addi	sp,sp,-32
    80001554:	ec06                	sd	ra,24(sp)
    80001556:	e822                	sd	s0,16(sp)
    80001558:	e426                	sd	s1,8(sp)
    8000155a:	4581                	li	a1,0
    8000155c:	4501                	li	a0,0
    8000155e:	aebff0ef          	jal	ra,80001048 <main>
    80001562:	84aa                	mv	s1,a0
    80001564:	4401                	li	s0,0
    80001566:	a831                	j	80001582 <_init+0x30>
    80001568:	00000797          	auipc	a5,0x0
    8000156c:	2e078793          	addi	a5,a5,736 # 80001848 <counters>
    80001570:	97ba                	add	a5,a5,a4
    80001572:	6b8c                	ld	a1,16(a5)
    80001574:	00000517          	auipc	a0,0x0
    80001578:	16c50513          	addi	a0,a0,364 # 800016e0 <atol+0xd8>
    8000157c:	f91ff0ef          	jal	ra,8000150c <printf>
    80001580:	2405                	addiw	s0,s0,1
    80001582:	4785                	li	a5,1
    80001584:	0087cc63          	blt	a5,s0,8000159c <_init+0x4a>
    80001588:	00341713          	slli	a4,s0,0x3
    8000158c:	00000797          	auipc	a5,0x0
    80001590:	2bc78793          	addi	a5,a5,700 # 80001848 <counters>
    80001594:	97ba                	add	a5,a5,a4
    80001596:	6390                	ld	a2,0(a5)
    80001598:	d665                	beqz	a2,80001580 <_init+0x2e>
    8000159a:	b7f9                	j	80001568 <_init+0x16>
    8000159c:	8526                	mv	a0,s1
    8000159e:	bc1ff0ef          	jal	ra,8000115e <exit>

00000000800015a2 <sprintf>:
    800015a2:	711d                	addi	sp,sp,-96
    800015a4:	f406                	sd	ra,40(sp)
    800015a6:	f022                	sd	s0,32(sp)
    800015a8:	e42a                	sd	a0,8(sp)
    800015aa:	f832                	sd	a2,48(sp)
    800015ac:	fc36                	sd	a3,56(sp)
    800015ae:	e0ba                	sd	a4,64(sp)
    800015b0:	e4be                	sd	a5,72(sp)
    800015b2:	e8c2                	sd	a6,80(sp)
    800015b4:	ecc6                	sd	a7,88(sp)
    800015b6:	842a                	mv	s0,a0
    800015b8:	1814                	addi	a3,sp,48
    800015ba:	ec36                	sd	a3,24(sp)
    800015bc:	862e                	mv	a2,a1
    800015be:	002c                	addi	a1,sp,8
    800015c0:	00000517          	auipc	a0,0x0
    800015c4:	afa50513          	addi	a0,a0,-1286 # 800010ba <sprintf_putch.3080>
    800015c8:	d1fff0ef          	jal	ra,800012e6 <vprintfmt>
    800015cc:	67a2                	ld	a5,8(sp)
    800015ce:	00078023          	sb	zero,0(a5)
    800015d2:	6522                	ld	a0,8(sp)
    800015d4:	9d01                	subw	a0,a0,s0
    800015d6:	70a2                	ld	ra,40(sp)
    800015d8:	7402                	ld	s0,32(sp)
    800015da:	6125                	addi	sp,sp,96
    800015dc:	8082                	ret

00000000800015de <strcmp>:
    800015de:	00054703          	lbu	a4,0(a0)
    800015e2:	0505                	addi	a0,a0,1
    800015e4:	0005c783          	lbu	a5,0(a1)
    800015e8:	0585                	addi	a1,a1,1
    800015ea:	00f71363          	bne	a4,a5,800015f0 <strcmp+0x12>
    800015ee:	fb65                	bnez	a4,800015de <strcmp>
    800015f0:	40f7053b          	subw	a0,a4,a5
    800015f4:	8082                	ret

00000000800015f6 <strcpy>:
    800015f6:	86aa                	mv	a3,a0
    800015f8:	0005c703          	lbu	a4,0(a1)
    800015fc:	0585                	addi	a1,a1,1
    800015fe:	00e68023          	sb	a4,0(a3)
    80001602:	0685                	addi	a3,a3,1
    80001604:	fb75                	bnez	a4,800015f8 <strcpy+0x2>
    80001606:	8082                	ret

0000000080001608 <atol>:
    80001608:	87aa                	mv	a5,a0
    8000160a:	0007c703          	lbu	a4,0(a5)
    8000160e:	02000693          	li	a3,32
    80001612:	00d71463          	bne	a4,a3,8000161a <atol+0x12>
    80001616:	0785                	addi	a5,a5,1
    80001618:	bfcd                	j	8000160a <atol+0x2>
    8000161a:	02d00693          	li	a3,45
    8000161e:	00d70863          	beq	a4,a3,8000162e <atol+0x26>
    80001622:	02b00693          	li	a3,43
    80001626:	00d70463          	beq	a4,a3,8000162e <atol+0x26>
    8000162a:	4601                	li	a2,0
    8000162c:	a031                	j	80001638 <atol+0x30>
    8000162e:	fd370713          	addi	a4,a4,-45
    80001632:	00173613          	seqz	a2,a4
    80001636:	0785                	addi	a5,a5,1
    80001638:	4501                	li	a0,0
    8000163a:	a811                	j	8000164e <atol+0x46>
    8000163c:	00251713          	slli	a4,a0,0x2
    80001640:	972a                	add	a4,a4,a0
    80001642:	0706                	slli	a4,a4,0x1
    80001644:	0785                	addi	a5,a5,1
    80001646:	fd06869b          	addiw	a3,a3,-48
    8000164a:	00e68533          	add	a0,a3,a4
    8000164e:	0007c683          	lbu	a3,0(a5)
    80001652:	f6ed                	bnez	a3,8000163c <atol+0x34>
    80001654:	c219                	beqz	a2,8000165a <atol+0x52>
    80001656:	40a00533          	neg	a0,a0
    8000165a:	8082                	ret
