
output/hello.riscv:     file format elf64-littleriscv


Disassembly of section .text.init:

0000000080000000 <_start>:
    80000000:	62f9                	lui	t0,0x1e
    80000002:	3002a073          	csrs	mstatus,t0
    80000006:	4285                	li	t0,1
    80000008:	02fe                	slli	t0,t0,0x1f
    8000000a:	0002d563          	bgez	t0,80000014 <_start+0x14>
    8000000e:	4505                	li	a0,1
    80000010:	14e0106f          	j	8000115e <exit>
    80000014:	00000297          	auipc	t0,0x0
    80000018:	01028293          	addi	t0,t0,16 # 80000024 <_start+0x24>
    8000001c:	30529073          	csrw	mtvec,t0
    80000020:	00301073          	fscsr	zero
    80000024:	00000297          	auipc	t0,0x0
    80000028:	03828293          	addi	t0,t0,56 # 8000005c <trap_entry>
    8000002c:	30529073          	csrw	mtvec,t0
    80000030:	00002197          	auipc	gp,0x2
    80000034:	01418193          	addi	gp,gp,20 # 80002044 <__global_pointer$>
    80000038:	87b18213          	addi	tp,gp,-1925 # 800018bf <_end+0x3f>
    8000003c:	fc027213          	andi	tp,tp,-64
    80000040:	f1402573          	csrr	a0,mhartid
    80000044:	4585                	li	a1,1
    80000046:	00b57063          	bgeu	a0,a1,80000046 <_start+0x46>
    8000004a:	01151613          	slli	a2,a0,0x11
    8000004e:	9232                	add	tp,tp,a2
    80000050:	00150113          	addi	sp,a0,1
    80000054:	0146                	slli	sp,sp,0x11
    80000056:	9112                	add	sp,sp,tp
    80000058:	4fa0106f          	j	80001552 <_init>

000000008000005c <trap_entry>:
    8000005c:	716d                	addi	sp,sp,-272
    8000005e:	e406                	sd	ra,8(sp)
    80000060:	e80a                	sd	sp,16(sp)
    80000062:	ec0e                	sd	gp,24(sp)
    80000064:	f012                	sd	tp,32(sp)
    80000066:	f416                	sd	t0,40(sp)
    80000068:	f81a                	sd	t1,48(sp)
    8000006a:	fc1e                	sd	t2,56(sp)
    8000006c:	e0a2                	sd	s0,64(sp)
    8000006e:	e4a6                	sd	s1,72(sp)
    80000070:	e8aa                	sd	a0,80(sp)
    80000072:	ecae                	sd	a1,88(sp)
    80000074:	f0b2                	sd	a2,96(sp)
    80000076:	f4b6                	sd	a3,104(sp)
    80000078:	f8ba                	sd	a4,112(sp)
    8000007a:	fcbe                	sd	a5,120(sp)
    8000007c:	e142                	sd	a6,128(sp)
    8000007e:	e546                	sd	a7,136(sp)
    80000080:	e94a                	sd	s2,144(sp)
    80000082:	ed4e                	sd	s3,152(sp)
    80000084:	f152                	sd	s4,160(sp)
    80000086:	f556                	sd	s5,168(sp)
    80000088:	f95a                	sd	s6,176(sp)
    8000008a:	fd5e                	sd	s7,184(sp)
    8000008c:	e1e2                	sd	s8,192(sp)
    8000008e:	e5e6                	sd	s9,200(sp)
    80000090:	e9ea                	sd	s10,208(sp)
    80000092:	edee                	sd	s11,216(sp)
    80000094:	f1f2                	sd	t3,224(sp)
    80000096:	f5f6                	sd	t4,232(sp)
    80000098:	f9fa                	sd	t5,240(sp)
    8000009a:	fdfe                	sd	t6,248(sp)
    8000009c:	34202573          	csrr	a0,mcause
    800000a0:	341025f3          	csrr	a1,mepc
    800000a4:	860a                	mv	a2,sp
    800000a6:	494010ef          	jal	ra,8000153a <handle_trap>
    800000aa:	34151073          	csrw	mepc,a0
    800000ae:	6289                	lui	t0,0x2
    800000b0:	8002829b          	addiw	t0,t0,-2048
    800000b4:	3002a073          	csrs	mstatus,t0
    800000b8:	60a2                	ld	ra,8(sp)
    800000ba:	6142                	ld	sp,16(sp)
    800000bc:	61e2                	ld	gp,24(sp)
    800000be:	7202                	ld	tp,32(sp)
    800000c0:	72a2                	ld	t0,40(sp)
    800000c2:	7342                	ld	t1,48(sp)
    800000c4:	73e2                	ld	t2,56(sp)
    800000c6:	6406                	ld	s0,64(sp)
    800000c8:	64a6                	ld	s1,72(sp)
    800000ca:	6546                	ld	a0,80(sp)
    800000cc:	65e6                	ld	a1,88(sp)
    800000ce:	7606                	ld	a2,96(sp)
    800000d0:	76a6                	ld	a3,104(sp)
    800000d2:	7746                	ld	a4,112(sp)
    800000d4:	77e6                	ld	a5,120(sp)
    800000d6:	680a                	ld	a6,128(sp)
    800000d8:	68aa                	ld	a7,136(sp)
    800000da:	694a                	ld	s2,144(sp)
    800000dc:	69ea                	ld	s3,152(sp)
    800000de:	7a0a                	ld	s4,160(sp)
    800000e0:	7aaa                	ld	s5,168(sp)
    800000e2:	7b4a                	ld	s6,176(sp)
    800000e4:	7bea                	ld	s7,184(sp)
    800000e6:	6c0e                	ld	s8,192(sp)
    800000e8:	6cae                	ld	s9,200(sp)
    800000ea:	6d4e                	ld	s10,208(sp)
    800000ec:	6dee                	ld	s11,216(sp)
    800000ee:	7e0e                	ld	t3,224(sp)
    800000f0:	7eae                	ld	t4,232(sp)
    800000f2:	7f4e                	ld	t5,240(sp)
    800000f4:	7fee                	ld	t6,248(sp)
    800000f6:	6151                	addi	sp,sp,272
    800000f8:	30200073          	mret
	...

Disassembly of section .tohost:

0000000080001000 <tohost>:
	...

0000000080001040 <fromhost>:
	...

Disassembly of section .text:

0000000080001048 <main>:
    80001048:	1141                	addi	sp,sp,-16
    8000104a:	e406                	sd	ra,8(sp)
    8000104c:	00000517          	auipc	a0,0x0
    80001050:	61450513          	addi	a0,a0,1556 # 80001660 <atol+0x58>
    80001054:	4b8000ef          	jal	ra,8000150c <printf>
    80001058:	4501                	li	a0,0
    8000105a:	60a2                	ld	ra,8(sp)
    8000105c:	0141                	addi	sp,sp,16
    8000105e:	8082                	ret

0000000080001060 <getuint>:
    80001060:	4785                	li	a5,1
    80001062:	00b7c963          	blt	a5,a1,80001074 <getuint+0x14>
    80001066:	cd89                	beqz	a1,80001080 <getuint+0x20>
    80001068:	611c                	ld	a5,0(a0)
    8000106a:	00878713          	addi	a4,a5,8
    8000106e:	e118                	sd	a4,0(a0)
    80001070:	6388                	ld	a0,0(a5)
    80001072:	8082                	ret
    80001074:	611c                	ld	a5,0(a0)
    80001076:	00878713          	addi	a4,a5,8
    8000107a:	e118                	sd	a4,0(a0)
    8000107c:	6388                	ld	a0,0(a5)
    8000107e:	8082                	ret
    80001080:	611c                	ld	a5,0(a0)
    80001082:	00878713          	addi	a4,a5,8
    80001086:	e118                	sd	a4,0(a0)
    80001088:	0007e503          	lwu	a0,0(a5)
    8000108c:	8082                	ret

000000008000108e <getint>:
    8000108e:	4785                	li	a5,1
    80001090:	00b7c963          	blt	a5,a1,800010a2 <getint+0x14>
    80001094:	cd89                	beqz	a1,800010ae <getint+0x20>
    80001096:	611c                	ld	a5,0(a0)
    80001098:	00878713          	addi	a4,a5,8
    8000109c:	e118                	sd	a4,0(a0)
    8000109e:	6388                	ld	a0,0(a5)
    800010a0:	8082                	ret
    800010a2:	611c                	ld	a5,0(a0)
    800010a4:	00878713          	addi	a4,a5,8
    800010a8:	e118                	sd	a4,0(a0)
    800010aa:	6388                	ld	a0,0(a5)
    800010ac:	8082                	ret
    800010ae:	611c                	ld	a5,0(a0)
    800010b0:	00878713          	addi	a4,a5,8
    800010b4:	e118                	sd	a4,0(a0)
    800010b6:	4388                	lw	a0,0(a5)
    800010b8:	8082                	ret

00000000800010ba <sprintf_putch.3080>:
    800010ba:	619c                	ld	a5,0(a1)
    800010bc:	00a78023          	sb	a0,0(a5)
    800010c0:	619c                	ld	a5,0(a1)
    800010c2:	0785                	addi	a5,a5,1
    800010c4:	e19c                	sd	a5,0(a1)
    800010c6:	8082                	ret

00000000800010c8 <syscall>:
    800010c8:	7159                	addi	sp,sp,-112
    800010ca:	03f10713          	addi	a4,sp,63
    800010ce:	fc077713          	andi	a4,a4,-64
    800010d2:	e308                	sd	a0,0(a4)
    800010d4:	e70c                	sd	a1,8(a4)
    800010d6:	eb10                	sd	a2,16(a4)
    800010d8:	ef14                	sd	a3,24(a4)
    800010da:	0ff0000f          	fence
    800010de:	00000797          	auipc	a5,0x0
    800010e2:	f2e7b123          	sd	a4,-222(a5) # 80001000 <tohost>
    800010e6:	00000797          	auipc	a5,0x0
    800010ea:	f5a7b783          	ld	a5,-166(a5) # 80001040 <fromhost>
    800010ee:	dfe5                	beqz	a5,800010e6 <syscall+0x1e>
    800010f0:	00000797          	auipc	a5,0x0
    800010f4:	f407b823          	sd	zero,-176(a5) # 80001040 <fromhost>
    800010f8:	0ff0000f          	fence
    800010fc:	6308                	ld	a0,0(a4)
    800010fe:	6165                	addi	sp,sp,112
    80001100:	8082                	ret

0000000080001102 <putchar>:
    80001102:	04022603          	lw	a2,64(tp) # 40 <buflen.2955>
    80001106:	0016079b          	addiw	a5,a2,1
    8000110a:	0007869b          	sext.w	a3,a5
    8000110e:	04f22023          	sw	a5,64(tp) # 40 <buflen.2955>
    80001112:	00020793          	mv	a5,tp
    80001116:	97b2                	add	a5,a5,a2
    80001118:	00a78023          	sb	a0,0(a5)
    8000111c:	47a9                	li	a5,10
    8000111e:	00f50863          	beq	a0,a5,8000112e <putchar+0x2c>
    80001122:	04000793          	li	a5,64
    80001126:	00f68463          	beq	a3,a5,8000112e <putchar+0x2c>
    8000112a:	4501                	li	a0,0
    8000112c:	8082                	ret
    8000112e:	1141                	addi	sp,sp,-16
    80001130:	e406                	sd	ra,8(sp)
    80001132:	00020613          	mv	a2,tp
    80001136:	4585                	li	a1,1
    80001138:	04000513          	li	a0,64
    8000113c:	f8dff0ef          	jal	ra,800010c8 <syscall>
    80001140:	04022023          	sw	zero,64(tp) # 40 <buflen.2955>
    80001144:	4501                	li	a0,0
    80001146:	60a2                	ld	ra,8(sp)
    80001148:	0141                	addi	sp,sp,16
    8000114a:	8082                	ret

000000008000114c <tohost_exit>:
    8000114c:	00151793          	slli	a5,a0,0x1
    80001150:	0017e793          	ori	a5,a5,1
    80001154:	00000717          	auipc	a4,0x0
    80001158:	eaf73623          	sd	a5,-340(a4) # 80001000 <tohost>
    8000115c:	a001                	j	8000115c <tohost_exit+0x10>

000000008000115e <exit>:
    8000115e:	1141                	addi	sp,sp,-16
    80001160:	e406                	sd	ra,8(sp)
    80001162:	4501                	li	a0,0
    80001164:	fe9ff0ef          	jal	ra,8000114c <tohost_exit>

0000000080001168 <setStats>:
    80001168:	b00027f3          	csrr	a5,mcycle
    8000116c:	ed01                	bnez	a0,80001184 <setStats+0x1c>
    8000116e:	00000717          	auipc	a4,0x0
    80001172:	6da70713          	addi	a4,a4,1754 # 80001848 <counters>
    80001176:	6314                	ld	a3,0(a4)
    80001178:	8f95                	sub	a5,a5,a3
    8000117a:	00000697          	auipc	a3,0x0
    8000117e:	4f668693          	addi	a3,a3,1270 # 80001670 <atol+0x68>
    80001182:	eb14                	sd	a3,16(a4)
    80001184:	00000717          	auipc	a4,0x0
    80001188:	6cf73223          	sd	a5,1732(a4) # 80001848 <counters>
    8000118c:	b02027f3          	csrr	a5,minstret
    80001190:	ed01                	bnez	a0,800011a8 <setStats+0x40>
    80001192:	00000717          	auipc	a4,0x0
    80001196:	6b670713          	addi	a4,a4,1718 # 80001848 <counters>
    8000119a:	6714                	ld	a3,8(a4)
    8000119c:	8f95                	sub	a5,a5,a3
    8000119e:	00000697          	auipc	a3,0x0
    800011a2:	4da68693          	addi	a3,a3,1242 # 80001678 <atol+0x70>
    800011a6:	ef14                	sd	a3,24(a4)
    800011a8:	00000717          	auipc	a4,0x0
    800011ac:	6af73423          	sd	a5,1704(a4) # 80001850 <counters+0x8>
    800011b0:	8082                	ret

00000000800011b2 <abort>:
    800011b2:	1141                	addi	sp,sp,-16
    800011b4:	e406                	sd	ra,8(sp)
    800011b6:	fa9ff0ef          	jal	ra,8000115e <exit>

00000000800011ba <thread_entry>:
    800011ba:	e101                	bnez	a0,800011ba <thread_entry>
    800011bc:	8082                	ret

00000000800011be <memcpy>:
    800011be:	00b567b3          	or	a5,a0,a1
    800011c2:	8fd1                	or	a5,a5,a2
    800011c4:	8b9d                	andi	a5,a5,7
    800011c6:	cf89                	beqz	a5,800011e0 <memcpy+0x22>
    800011c8:	87aa                	mv	a5,a0
    800011ca:	00c50733          	add	a4,a0,a2
    800011ce:	02e7f463          	bgeu	a5,a4,800011f6 <memcpy+0x38>
    800011d2:	0005c703          	lbu	a4,0(a1)
    800011d6:	00e78023          	sb	a4,0(a5)
    800011da:	0785                	addi	a5,a5,1
    800011dc:	0585                	addi	a1,a1,1
    800011de:	b7f5                	j	800011ca <memcpy+0xc>
    800011e0:	87aa                	mv	a5,a0
    800011e2:	00c50733          	add	a4,a0,a2
    800011e6:	00e7f763          	bgeu	a5,a4,800011f4 <memcpy+0x36>
    800011ea:	6198                	ld	a4,0(a1)
    800011ec:	e398                	sd	a4,0(a5)
    800011ee:	07a1                	addi	a5,a5,8
    800011f0:	05a1                	addi	a1,a1,8
    800011f2:	bfc5                	j	800011e2 <memcpy+0x24>
    800011f4:	8082                	ret
    800011f6:	8082                	ret

00000000800011f8 <memset>:
    800011f8:	00c567b3          	or	a5,a0,a2
    800011fc:	8b9d                	andi	a5,a5,7
    800011fe:	e78d                	bnez	a5,80001228 <memset+0x30>
    80001200:	0ff5f593          	andi	a1,a1,255
    80001204:	00859793          	slli	a5,a1,0x8
    80001208:	8ddd                	or	a1,a1,a5
    8000120a:	01059793          	slli	a5,a1,0x10
    8000120e:	8fcd                	or	a5,a5,a1
    80001210:	02079593          	slli	a1,a5,0x20
    80001214:	8ddd                	or	a1,a1,a5
    80001216:	87aa                	mv	a5,a0
    80001218:	00c50733          	add	a4,a0,a2
    8000121c:	00e7f563          	bgeu	a5,a4,80001226 <memset+0x2e>
    80001220:	e38c                	sd	a1,0(a5)
    80001222:	07a1                	addi	a5,a5,8
    80001224:	bfd5                	j	80001218 <memset+0x20>
    80001226:	8082                	ret
    80001228:	87aa                	mv	a5,a0
    8000122a:	00c50733          	add	a4,a0,a2
    8000122e:	00e7f663          	bgeu	a5,a4,8000123a <memset+0x42>
    80001232:	00b78023          	sb	a1,0(a5)
    80001236:	0785                	addi	a5,a5,1
    80001238:	bfcd                	j	8000122a <memset+0x32>
    8000123a:	8082                	ret

000000008000123c <strlen>:
    8000123c:	87aa                	mv	a5,a0
    8000123e:	0007c703          	lbu	a4,0(a5)
    80001242:	c319                	beqz	a4,80001248 <strlen+0xc>
    80001244:	0785                	addi	a5,a5,1
    80001246:	bfe5                	j	8000123e <strlen+0x2>
    80001248:	40a78533          	sub	a0,a5,a0
    8000124c:	8082                	ret

000000008000124e <printstr>:
    8000124e:	1141                	addi	sp,sp,-16
    80001250:	e406                	sd	ra,8(sp)
    80001252:	e022                	sd	s0,0(sp)
    80001254:	842a                	mv	s0,a0
    80001256:	fe7ff0ef          	jal	ra,8000123c <strlen>
    8000125a:	86aa                	mv	a3,a0
    8000125c:	8622                	mv	a2,s0
    8000125e:	4585                	li	a1,1
    80001260:	04000513          	li	a0,64
    80001264:	e65ff0ef          	jal	ra,800010c8 <syscall>
    80001268:	60a2                	ld	ra,8(sp)
    8000126a:	6402                	ld	s0,0(sp)
    8000126c:	0141                	addi	sp,sp,16
    8000126e:	8082                	ret
    80001270:	1141                	addi	sp,sp,-16
    80001272:	e406                	sd	ra,8(sp)
    80001274:	00000517          	auipc	a0,0x0
    80001278:	41450513          	addi	a0,a0,1044 # 80001688 <atol+0x80>
    8000127c:	fd3ff0ef          	jal	ra,8000124e <printstr>
    80001280:	557d                	li	a0,-1
    80001282:	60a2                	ld	ra,8(sp)
    80001284:	0141                	addi	sp,sp,16
    80001286:	8082                	ret

0000000080001288 <printhex>:
    80001288:	7179                	addi	sp,sp,-48
    8000128a:	f406                	sd	ra,40(sp)
    8000128c:	4701                	li	a4,0
    8000128e:	a821                	j	800012a6 <printhex+0x1e>
    80001290:	05700613          	li	a2,87
    80001294:	47bd                	li	a5,15
    80001296:	9f99                	subw	a5,a5,a4
    80001298:	96b2                	add	a3,a3,a2
    8000129a:	1010                	addi	a2,sp,32
    8000129c:	97b2                	add	a5,a5,a2
    8000129e:	fed78423          	sb	a3,-24(a5)
    800012a2:	8111                	srli	a0,a0,0x4
    800012a4:	2705                	addiw	a4,a4,1
    800012a6:	47bd                	li	a5,15
    800012a8:	00e7ca63          	blt	a5,a4,800012bc <printhex+0x34>
    800012ac:	00f57693          	andi	a3,a0,15
    800012b0:	4625                	li	a2,9
    800012b2:	fcd66fe3          	bltu	a2,a3,80001290 <printhex+0x8>
    800012b6:	03000613          	li	a2,48
    800012ba:	bfe9                	j	80001294 <printhex+0xc>
    800012bc:	00010c23          	sb	zero,24(sp)
    800012c0:	0028                	addi	a0,sp,8
    800012c2:	f8dff0ef          	jal	ra,8000124e <printstr>
    800012c6:	70a2                	ld	ra,40(sp)
    800012c8:	6145                	addi	sp,sp,48
    800012ca:	8082                	ret

00000000800012cc <strnlen>:
    800012cc:	87aa                	mv	a5,a0
    800012ce:	fff58713          	addi	a4,a1,-1
    800012d2:	c599                	beqz	a1,800012e0 <strnlen+0x14>
    800012d4:	0007c683          	lbu	a3,0(a5)
    800012d8:	c681                	beqz	a3,800012e0 <strnlen+0x14>
    800012da:	0785                	addi	a5,a5,1
    800012dc:	85ba                	mv	a1,a4
    800012de:	bfc5                	j	800012ce <strnlen+0x2>
    800012e0:	40a78533          	sub	a0,a5,a0
    800012e4:	8082                	ret

00000000800012e6 <vprintfmt>:
    800012e6:	714d                	addi	sp,sp,-336
    800012e8:	e686                	sd	ra,328(sp)
    800012ea:	e2a2                	sd	s0,320(sp)
    800012ec:	fe26                	sd	s1,312(sp)
    800012ee:	fa4a                	sd	s2,304(sp)
    800012f0:	f64e                	sd	s3,296(sp)
    800012f2:	f252                	sd	s4,288(sp)
    800012f4:	ee56                	sd	s5,280(sp)
    800012f6:	ea5a                	sd	s6,272(sp)
    800012f8:	892a                	mv	s2,a0
    800012fa:	84ae                	mv	s1,a1
    800012fc:	8432                	mv	s0,a2
    800012fe:	e436                	sd	a3,8(sp)
    80001300:	00044503          	lbu	a0,0(s0)
    80001304:	02500793          	li	a5,37
    80001308:	00f50863          	beq	a0,a5,80001318 <vprintfmt+0x32>
    8000130c:	1e050663          	beqz	a0,800014f8 <vprintfmt+0x212>
    80001310:	0405                	addi	s0,s0,1
    80001312:	85a6                	mv	a1,s1
    80001314:	9902                	jalr	s2
    80001316:	b7ed                	j	80001300 <vprintfmt+0x1a>
    80001318:	00140993          	addi	s3,s0,1
    8000131c:	87ce                	mv	a5,s3
    8000131e:	02000a93          	li	s5,32
    80001322:	5b7d                	li	s6,-1
    80001324:	5a7d                	li	s4,-1
    80001326:	4581                	li	a1,0
    80001328:	00178413          	addi	s0,a5,1
    8000132c:	0007c703          	lbu	a4,0(a5)
    80001330:	0007051b          	sext.w	a0,a4
    80001334:	fdd7079b          	addiw	a5,a4,-35
    80001338:	0ff7f613          	andi	a2,a5,255
    8000133c:	05500693          	li	a3,85
    80001340:	1ac6e663          	bltu	a3,a2,800014ec <vprintfmt+0x206>
    80001344:	00261793          	slli	a5,a2,0x2
    80001348:	00000617          	auipc	a2,0x0
    8000134c:	3a460613          	addi	a2,a2,932 # 800016ec <atol+0xe4>
    80001350:	97b2                	add	a5,a5,a2
    80001352:	4394                	lw	a3,0(a5)
    80001354:	96b2                	add	a3,a3,a2
    80001356:	8682                	jr	a3
    80001358:	8aba                	mv	s5,a4
    8000135a:	87a2                	mv	a5,s0
    8000135c:	b7f1                	j	80001328 <vprintfmt+0x42>
    8000135e:	49c1                	li	s3,16
    80001360:	a8f5                	j	8000145c <vprintfmt+0x176>
    80001362:	4b01                	li	s6,0
    80001364:	002b179b          	slliw	a5,s6,0x2
    80001368:	016787bb          	addw	a5,a5,s6
    8000136c:	0017979b          	slliw	a5,a5,0x1
    80001370:	9fa9                	addw	a5,a5,a0
    80001372:	fd078b1b          	addiw	s6,a5,-48
    80001376:	00044703          	lbu	a4,0(s0)
    8000137a:	0007051b          	sext.w	a0,a4
    8000137e:	fd07071b          	addiw	a4,a4,-48
    80001382:	47a5                	li	a5,9
    80001384:	02e7e863          	bltu	a5,a4,800013b4 <vprintfmt+0xce>
    80001388:	0405                	addi	s0,s0,1
    8000138a:	bfe9                	j	80001364 <vprintfmt+0x7e>
    8000138c:	67a2                	ld	a5,8(sp)
    8000138e:	00878713          	addi	a4,a5,8
    80001392:	e43a                	sd	a4,8(sp)
    80001394:	0007ab03          	lw	s6,0(a5)
    80001398:	87a2                	mv	a5,s0
    8000139a:	f80a57e3          	bgez	s4,80001328 <vprintfmt+0x42>
    8000139e:	8a5a                	mv	s4,s6
    800013a0:	5b7d                	li	s6,-1
    800013a2:	b759                	j	80001328 <vprintfmt+0x42>
    800013a4:	000a4463          	bltz	s4,800013ac <vprintfmt+0xc6>
    800013a8:	87a2                	mv	a5,s0
    800013aa:	bfbd                	j	80001328 <vprintfmt+0x42>
    800013ac:	4a01                	li	s4,0
    800013ae:	bfed                	j	800013a8 <vprintfmt+0xc2>
    800013b0:	87a2                	mv	a5,s0
    800013b2:	bf9d                	j	80001328 <vprintfmt+0x42>
    800013b4:	87a2                	mv	a5,s0
    800013b6:	b7d5                	j	8000139a <vprintfmt+0xb4>
    800013b8:	2585                	addiw	a1,a1,1
    800013ba:	87a2                	mv	a5,s0
    800013bc:	b7b5                	j	80001328 <vprintfmt+0x42>
    800013be:	67a2                	ld	a5,8(sp)
    800013c0:	00878713          	addi	a4,a5,8
    800013c4:	e43a                	sd	a4,8(sp)
    800013c6:	85a6                	mv	a1,s1
    800013c8:	4388                	lw	a0,0(a5)
    800013ca:	9902                	jalr	s2
    800013cc:	bf15                	j	80001300 <vprintfmt+0x1a>
    800013ce:	67a2                	ld	a5,8(sp)
    800013d0:	00878713          	addi	a4,a5,8
    800013d4:	e43a                	sd	a4,8(sp)
    800013d6:	0007b983          	ld	s3,0(a5)
    800013da:	00098f63          	beqz	s3,800013f8 <vprintfmt+0x112>
    800013de:	03405e63          	blez	s4,8000141a <vprintfmt+0x134>
    800013e2:	02d00793          	li	a5,45
    800013e6:	02fa8a63          	beq	s5,a5,8000141a <vprintfmt+0x134>
    800013ea:	85da                	mv	a1,s6
    800013ec:	854e                	mv	a0,s3
    800013ee:	edfff0ef          	jal	ra,800012cc <strnlen>
    800013f2:	40aa0a3b          	subw	s4,s4,a0
    800013f6:	a819                	j	8000140c <vprintfmt+0x126>
    800013f8:	00000997          	auipc	s3,0x0
    800013fc:	2a898993          	addi	s3,s3,680 # 800016a0 <atol+0x98>
    80001400:	bff9                	j	800013de <vprintfmt+0xf8>
    80001402:	85a6                	mv	a1,s1
    80001404:	000a851b          	sext.w	a0,s5
    80001408:	9902                	jalr	s2
    8000140a:	3a7d                	addiw	s4,s4,-1
    8000140c:	ff404be3          	bgtz	s4,80001402 <vprintfmt+0x11c>
    80001410:	a029                	j	8000141a <vprintfmt+0x134>
    80001412:	85a6                	mv	a1,s1
    80001414:	9902                	jalr	s2
    80001416:	0985                	addi	s3,s3,1
    80001418:	3a7d                	addiw	s4,s4,-1
    8000141a:	0009c503          	lbu	a0,0(s3)
    8000141e:	cd01                	beqz	a0,80001436 <vprintfmt+0x150>
    80001420:	fe0b49e3          	bltz	s6,80001412 <vprintfmt+0x12c>
    80001424:	3b7d                	addiw	s6,s6,-1
    80001426:	fe0b56e3          	bgez	s6,80001412 <vprintfmt+0x12c>
    8000142a:	a031                	j	80001436 <vprintfmt+0x150>
    8000142c:	85a6                	mv	a1,s1
    8000142e:	02000513          	li	a0,32
    80001432:	9902                	jalr	s2
    80001434:	3a7d                	addiw	s4,s4,-1
    80001436:	ff404be3          	bgtz	s4,8000142c <vprintfmt+0x146>
    8000143a:	b5d9                	j	80001300 <vprintfmt+0x1a>
    8000143c:	0028                	addi	a0,sp,8
    8000143e:	c51ff0ef          	jal	ra,8000108e <getint>
    80001442:	89aa                	mv	s3,a0
    80001444:	00054463          	bltz	a0,8000144c <vprintfmt+0x166>
    80001448:	49a9                	li	s3,10
    8000144a:	a821                	j	80001462 <vprintfmt+0x17c>
    8000144c:	85a6                	mv	a1,s1
    8000144e:	02d00513          	li	a0,45
    80001452:	9902                	jalr	s2
    80001454:	41300533          	neg	a0,s3
    80001458:	bfc5                	j	80001448 <vprintfmt+0x162>
    8000145a:	49a1                	li	s3,8
    8000145c:	0028                	addi	a0,sp,8
    8000145e:	c03ff0ef          	jal	ra,80001060 <getuint>
    80001462:	0009861b          	sext.w	a2,s3
    80001466:	2a81                	sext.w	s5,s5
    80001468:	4781                	li	a5,0
    8000146a:	02061713          	slli	a4,a2,0x20
    8000146e:	9301                	srli	a4,a4,0x20
    80001470:	02e576b3          	remu	a3,a0,a4
    80001474:	0017899b          	addiw	s3,a5,1
    80001478:	078a                	slli	a5,a5,0x2
    8000147a:	0a0c                	addi	a1,sp,272
    8000147c:	97ae                	add	a5,a5,a1
    8000147e:	f0d7a023          	sw	a3,-256(a5)
    80001482:	02e56363          	bltu	a0,a4,800014a8 <vprintfmt+0x1c2>
    80001486:	02e55533          	divu	a0,a0,a4
    8000148a:	87ce                	mv	a5,s3
    8000148c:	bff9                	j	8000146a <vprintfmt+0x184>
    8000148e:	85a6                	mv	a1,s1
    80001490:	03000513          	li	a0,48
    80001494:	9902                	jalr	s2
    80001496:	85a6                	mv	a1,s1
    80001498:	07800513          	li	a0,120
    8000149c:	9902                	jalr	s2
    8000149e:	4585                	li	a1,1
    800014a0:	49c1                	li	s3,16
    800014a2:	bf6d                	j	8000145c <vprintfmt+0x176>
    800014a4:	49a9                	li	s3,10
    800014a6:	bf5d                	j	8000145c <vprintfmt+0x176>
    800014a8:	fffa0b1b          	addiw	s6,s4,-1
    800014ac:	0149dd63          	bge	s3,s4,800014c6 <vprintfmt+0x1e0>
    800014b0:	85a6                	mv	a1,s1
    800014b2:	8556                	mv	a0,s5
    800014b4:	9902                	jalr	s2
    800014b6:	8a5a                	mv	s4,s6
    800014b8:	bfc5                	j	800014a8 <vprintfmt+0x1c2>
    800014ba:	03000513          	li	a0,48
    800014be:	85a6                	mv	a1,s1
    800014c0:	9d3d                	addw	a0,a0,a5
    800014c2:	9902                	jalr	s2
    800014c4:	89d2                	mv	s3,s4
    800014c6:	fff98a1b          	addiw	s4,s3,-1
    800014ca:	e3305be3          	blez	s3,80001300 <vprintfmt+0x1a>
    800014ce:	002a1793          	slli	a5,s4,0x2
    800014d2:	0a18                	addi	a4,sp,272
    800014d4:	97ba                	add	a5,a5,a4
    800014d6:	f007a783          	lw	a5,-256(a5)
    800014da:	4725                	li	a4,9
    800014dc:	fcf77fe3          	bgeu	a4,a5,800014ba <vprintfmt+0x1d4>
    800014e0:	05700513          	li	a0,87
    800014e4:	bfe9                	j	800014be <vprintfmt+0x1d8>
    800014e6:	85a6                	mv	a1,s1
    800014e8:	9902                	jalr	s2
    800014ea:	bd19                	j	80001300 <vprintfmt+0x1a>
    800014ec:	85a6                	mv	a1,s1
    800014ee:	02500513          	li	a0,37
    800014f2:	9902                	jalr	s2
    800014f4:	844e                	mv	s0,s3
    800014f6:	b529                	j	80001300 <vprintfmt+0x1a>
    800014f8:	60b6                	ld	ra,328(sp)
    800014fa:	6416                	ld	s0,320(sp)
    800014fc:	74f2                	ld	s1,312(sp)
    800014fe:	7952                	ld	s2,304(sp)
    80001500:	79b2                	ld	s3,296(sp)
    80001502:	7a12                	ld	s4,288(sp)
    80001504:	6af2                	ld	s5,280(sp)
    80001506:	6b52                	ld	s6,272(sp)
    80001508:	6171                	addi	sp,sp,336
    8000150a:	8082                	ret

000000008000150c <printf>:
    8000150c:	711d                	addi	sp,sp,-96
    8000150e:	ec06                	sd	ra,24(sp)
    80001510:	f42e                	sd	a1,40(sp)
    80001512:	f832                	sd	a2,48(sp)
    80001514:	fc36                	sd	a3,56(sp)
    80001516:	e0ba                	sd	a4,64(sp)
    80001518:	e4be                	sd	a5,72(sp)
    8000151a:	e8c2                	sd	a6,80(sp)
    8000151c:	ecc6                	sd	a7,88(sp)
    8000151e:	1034                	addi	a3,sp,40
    80001520:	e436                	sd	a3,8(sp)
    80001522:	862a                	mv	a2,a0
    80001524:	4581                	li	a1,0
    80001526:	00000517          	auipc	a0,0x0
    8000152a:	bdc50513          	addi	a0,a0,-1060 # 80001102 <putchar>
    8000152e:	db9ff0ef          	jal	ra,800012e6 <vprintfmt>
    80001532:	4501                	li	a0,0
    80001534:	60e2                	ld	ra,24(sp)
    80001536:	6125                	addi	sp,sp,96
    80001538:	8082                	ret

000000008000153a <handle_trap>:
    8000153a:	1141                	addi	sp,sp,-16
    8000153c:	e406                	sd	ra,8(sp)
    8000153e:	862e                	mv	a2,a1
    80001540:	85aa                	mv	a1,a0
    80001542:	00000517          	auipc	a0,0x0
    80001546:	16650513          	addi	a0,a0,358 # 800016a8 <atol+0xa0>
    8000154a:	fc3ff0ef          	jal	ra,8000150c <printf>
    8000154e:	c11ff0ef          	jal	ra,8000115e <exit>

0000000080001552 <_init>:
    80001552:	1101                	addi	sp,sp,-32
    80001554:	ec06                	sd	ra,24(sp)
    80001556:	e822                	sd	s0,16(sp)
    80001558:	e426                	sd	s1,8(sp)
    8000155a:	4581                	li	a1,0
    8000155c:	4501                	li	a0,0
    8000155e:	aebff0ef          	jal	ra,80001048 <main>
    80001562:	84aa                	mv	s1,a0
    80001564:	4401                	li	s0,0
    80001566:	a831                	j	80001582 <_init+0x30>
    80001568:	00000797          	auipc	a5,0x0
    8000156c:	2e078793          	addi	a5,a5,736 # 80001848 <counters>
    80001570:	97ba                	add	a5,a5,a4
    80001572:	6b8c                	ld	a1,16(a5)
    80001574:	00000517          	auipc	a0,0x0
    80001578:	16c50513          	addi	a0,a0,364 # 800016e0 <atol+0xd8>
    8000157c:	f91ff0ef          	jal	ra,8000150c <printf>
    80001580:	2405                	addiw	s0,s0,1
    80001582:	4785                	li	a5,1
    80001584:	0087cc63          	blt	a5,s0,8000159c <_init+0x4a>
    80001588:	00341713          	slli	a4,s0,0x3
    8000158c:	00000797          	auipc	a5,0x0
    80001590:	2bc78793          	addi	a5,a5,700 # 80001848 <counters>
    80001594:	97ba                	add	a5,a5,a4
    80001596:	6390                	ld	a2,0(a5)
    80001598:	d665                	beqz	a2,80001580 <_init+0x2e>
    8000159a:	b7f9                	j	80001568 <_init+0x16>
    8000159c:	8526                	mv	a0,s1
    8000159e:	bc1ff0ef          	jal	ra,8000115e <exit>

00000000800015a2 <sprintf>:
    800015a2:	711d                	addi	sp,sp,-96
    800015a4:	f406                	sd	ra,40(sp)
    800015a6:	f022                	sd	s0,32(sp)
    800015a8:	e42a                	sd	a0,8(sp)
    800015aa:	f832                	sd	a2,48(sp)
    800015ac:	fc36                	sd	a3,56(sp)
    800015ae:	e0ba                	sd	a4,64(sp)
    800015b0:	e4be                	sd	a5,72(sp)
    800015b2:	e8c2                	sd	a6,80(sp)
    800015b4:	ecc6                	sd	a7,88(sp)
    800015b6:	842a                	mv	s0,a0
    800015b8:	1814                	addi	a3,sp,48
    800015ba:	ec36                	sd	a3,24(sp)
    800015bc:	862e                	mv	a2,a1
    800015be:	002c                	addi	a1,sp,8
    800015c0:	00000517          	auipc	a0,0x0
    800015c4:	afa50513          	addi	a0,a0,-1286 # 800010ba <sprintf_putch.3080>
    800015c8:	d1fff0ef          	jal	ra,800012e6 <vprintfmt>
    800015cc:	67a2                	ld	a5,8(sp)
    800015ce:	00078023          	sb	zero,0(a5)
    800015d2:	6522                	ld	a0,8(sp)
    800015d4:	9d01                	subw	a0,a0,s0
    800015d6:	70a2                	ld	ra,40(sp)
    800015d8:	7402                	ld	s0,32(sp)
    800015da:	6125                	addi	sp,sp,96
    800015dc:	8082                	ret

00000000800015de <strcmp>:
    800015de:	00054703          	lbu	a4,0(a0)
    800015e2:	0505                	addi	a0,a0,1
    800015e4:	0005c783          	lbu	a5,0(a1)
    800015e8:	0585                	addi	a1,a1,1
    800015ea:	00f71363          	bne	a4,a5,800015f0 <strcmp+0x12>
    800015ee:	fb65                	bnez	a4,800015de <strcmp>
    800015f0:	40f7053b          	subw	a0,a4,a5
    800015f4:	8082                	ret

00000000800015f6 <strcpy>:
    800015f6:	86aa                	mv	a3,a0
    800015f8:	0005c703          	lbu	a4,0(a1)
    800015fc:	0585                	addi	a1,a1,1
    800015fe:	00e68023          	sb	a4,0(a3)
    80001602:	0685                	addi	a3,a3,1
    80001604:	fb75                	bnez	a4,800015f8 <strcpy+0x2>
    80001606:	8082                	ret

0000000080001608 <atol>:
    80001608:	87aa                	mv	a5,a0
    8000160a:	0007c703          	lbu	a4,0(a5)
    8000160e:	02000693          	li	a3,32
    80001612:	00d71463          	bne	a4,a3,8000161a <atol+0x12>
    80001616:	0785                	addi	a5,a5,1
    80001618:	bfcd                	j	8000160a <atol+0x2>
    8000161a:	02d00693          	li	a3,45
    8000161e:	00d70863          	beq	a4,a3,8000162e <atol+0x26>
    80001622:	02b00693          	li	a3,43
    80001626:	00d70463          	beq	a4,a3,8000162e <atol+0x26>
    8000162a:	4601                	li	a2,0
    8000162c:	a031                	j	80001638 <atol+0x30>
    8000162e:	fd370713          	addi	a4,a4,-45
    80001632:	00173613          	seqz	a2,a4
    80001636:	0785                	addi	a5,a5,1
    80001638:	4501                	li	a0,0
    8000163a:	a811                	j	8000164e <atol+0x46>
    8000163c:	00251713          	slli	a4,a0,0x2
    80001640:	972a                	add	a4,a4,a0
    80001642:	0706                	slli	a4,a4,0x1
    80001644:	0785                	addi	a5,a5,1
    80001646:	fd06869b          	addiw	a3,a3,-48
    8000164a:	00e68533          	add	a0,a3,a4
    8000164e:	0007c683          	lbu	a3,0(a5)
    80001652:	f6ed                	bnez	a3,8000163c <atol+0x34>
    80001654:	c219                	beqz	a2,8000165a <atol+0x52>
    80001656:	40a00533          	neg	a0,a0
    8000165a:	8082                	ret

Disassembly of section .rodata.str1.8:

0000000080001660 <.rodata.str1.8>:
    80001660:	6548                	ld	a0,136(a0)
    80001662:	6c6c                	ld	a1,216(s0)
    80001664:	57202c6f          	jal	s8,80003bd6 <__global_pointer$+0x1b92>
    80001668:	646c726f          	jal	tp,800c8cae <__global_pointer$+0xc6c6a>
    8000166c:	0a21                	addi	s4,s4,8
    8000166e:	0000                	unimp
    80001670:	636d                	lui	t1,0x1b
    80001672:	6379                	lui	t1,0x1e
    80001674:	656c                	ld	a1,200(a0)
    80001676:	0000                	unimp
    80001678:	696d                	lui	s2,0x1b
    8000167a:	736e                	ld	t1,248(sp)
    8000167c:	7274                	ld	a3,224(a2)
    8000167e:	7465                	lui	s0,0xffff9
	...
    80001688:	6d49                	lui	s10,0x12
    8000168a:	6c70                	ld	a2,216(s0)
    8000168c:	6d65                	lui	s10,0x19
    8000168e:	6e65                	lui	t3,0x19
    80001690:	2074                	fld	fa3,192(s0)
    80001692:	616d                	addi	sp,sp,240
    80001694:	6e69                	lui	t3,0x1a
    80001696:	2928                	fld	fa0,80(a0)
    80001698:	202c                	fld	fa1,64(s0)
    8000169a:	6f66                	ld	t5,88(sp)
    8000169c:	000a216f          	jal	sp,800a369c <__global_pointer$+0xa1658>
    800016a0:	6e28                	ld	a0,88(a2)
    800016a2:	6c75                	lui	s8,0x1d
    800016a4:	296c                	fld	fa1,208(a0)
    800016a6:	0000                	unimp
    800016a8:	7254                	ld	a3,160(a2)
    800016aa:	7061                	c.lui	zero,0xffff8
    800016ac:	4320                	lw	s0,64(a4)
    800016ae:	7561                	lui	a0,0xffff8
    800016b0:	203a6573          	csrrsi	a0,hideleg,20
    800016b4:	6425                	lui	s0,0x9
    800016b6:	6520                	ld	s0,72(a0)
    800016b8:	636e                	ld	t1,216(sp)
    800016ba:	746e756f          	jal	a0,800e8e00 <__global_pointer$+0xe6dbc>
    800016be:	7265                	lui	tp,0xffff9
    800016c0:	6465                	lui	s0,0x19
    800016c2:	6f20                	ld	s0,88(a4)
    800016c4:	206e                	fld	ft0,216(sp)
    800016c6:	4350                	lw	a2,4(a4)
    800016c8:	253a                	fld	fa0,392(sp)
    800016ca:	2e78                	fld	fa4,216(a2)
    800016cc:	200a                	fld	ft0,128(sp)
    800016ce:	7845                	lui	a6,0xffff1
    800016d0:	7469                	lui	s0,0xffffa
    800016d2:	6e69                	lui	t3,0x1a
    800016d4:	2e2e2067          	0x2e2e2067
    800016d8:	002e                	c.slli	zero,0xb
    800016da:	0000                	unimp
    800016dc:	0000                	unimp
    800016de:	0000                	unimp
    800016e0:	7325                	lui	t1,0xfffe9
    800016e2:	3d20                	fld	fs0,120(a0)
    800016e4:	2520                	fld	fs0,72(a0)
    800016e6:	0a64                	addi	s1,sp,284
	...

Disassembly of section .rodata:

00000000800016ec <__global_pointer$-0x958>:
    800016ec:	fcc4                	sd	s1,184(s1)
    800016ee:	ffff                	0xffff
    800016f0:	fe00                	sd	s0,56(a2)
    800016f2:	ffff                	0xffff
    800016f4:	fdfa                	sd	t5,248(sp)
    800016f6:	ffff                	0xffff
    800016f8:	fe00                	sd	s0,56(a2)
    800016fa:	ffff                	0xffff
    800016fc:	fe00                	sd	s0,56(a2)
    800016fe:	ffff                	0xffff
    80001700:	fe00                	sd	s0,56(a2)
    80001702:	ffff                	0xffff
    80001704:	fe00                	sd	s0,56(a2)
    80001706:	ffff                	0xffff
    80001708:	fca0                	sd	s0,120(s1)
    8000170a:	ffff                	0xffff
    8000170c:	fe00                	sd	s0,56(a2)
    8000170e:	ffff                	0xffff
    80001710:	fe00                	sd	s0,56(a2)
    80001712:	ffff                	0xffff
    80001714:	fc6c                	sd	a1,248(s0)
    80001716:	ffff                	0xffff
    80001718:	fcb8                	sd	a4,120(s1)
    8000171a:	ffff                	0xffff
    8000171c:	fe00                	sd	s0,56(a2)
    8000171e:	ffff                	0xffff
    80001720:	fc6c                	sd	a1,248(s0)
    80001722:	ffff                	0xffff
    80001724:	fc76                	sd	t4,56(sp)
    80001726:	ffff                	0xffff
    80001728:	fc76                	sd	t4,56(sp)
    8000172a:	ffff                	0xffff
    8000172c:	fc76                	sd	t4,56(sp)
    8000172e:	ffff                	0xffff
    80001730:	fc76                	sd	t4,56(sp)
    80001732:	ffff                	0xffff
    80001734:	fc76                	sd	t4,56(sp)
    80001736:	ffff                	0xffff
    80001738:	fc76                	sd	t4,56(sp)
    8000173a:	ffff                	0xffff
    8000173c:	fc76                	sd	t4,56(sp)
    8000173e:	ffff                	0xffff
    80001740:	fc76                	sd	t4,56(sp)
    80001742:	ffff                	0xffff
    80001744:	fc76                	sd	t4,56(sp)
    80001746:	ffff                	0xffff
    80001748:	fe00                	sd	s0,56(a2)
    8000174a:	ffff                	0xffff
    8000174c:	fe00                	sd	s0,56(a2)
    8000174e:	ffff                	0xffff
    80001750:	fe00                	sd	s0,56(a2)
    80001752:	ffff                	0xffff
    80001754:	fe00                	sd	s0,56(a2)
    80001756:	ffff                	0xffff
    80001758:	fe00                	sd	s0,56(a2)
    8000175a:	ffff                	0xffff
    8000175c:	fe00                	sd	s0,56(a2)
    8000175e:	ffff                	0xffff
    80001760:	fe00                	sd	s0,56(a2)
    80001762:	ffff                	0xffff
    80001764:	fe00                	sd	s0,56(a2)
    80001766:	ffff                	0xffff
    80001768:	fe00                	sd	s0,56(a2)
    8000176a:	ffff                	0xffff
    8000176c:	fe00                	sd	s0,56(a2)
    8000176e:	ffff                	0xffff
    80001770:	fe00                	sd	s0,56(a2)
    80001772:	ffff                	0xffff
    80001774:	fe00                	sd	s0,56(a2)
    80001776:	ffff                	0xffff
    80001778:	fe00                	sd	s0,56(a2)
    8000177a:	ffff                	0xffff
    8000177c:	fe00                	sd	s0,56(a2)
    8000177e:	ffff                	0xffff
    80001780:	fe00                	sd	s0,56(a2)
    80001782:	ffff                	0xffff
    80001784:	fe00                	sd	s0,56(a2)
    80001786:	ffff                	0xffff
    80001788:	fe00                	sd	s0,56(a2)
    8000178a:	ffff                	0xffff
    8000178c:	fe00                	sd	s0,56(a2)
    8000178e:	ffff                	0xffff
    80001790:	fe00                	sd	s0,56(a2)
    80001792:	ffff                	0xffff
    80001794:	fe00                	sd	s0,56(a2)
    80001796:	ffff                	0xffff
    80001798:	fe00                	sd	s0,56(a2)
    8000179a:	ffff                	0xffff
    8000179c:	fe00                	sd	s0,56(a2)
    8000179e:	ffff                	0xffff
    800017a0:	fe00                	sd	s0,56(a2)
    800017a2:	ffff                	0xffff
    800017a4:	fe00                	sd	s0,56(a2)
    800017a6:	ffff                	0xffff
    800017a8:	fe00                	sd	s0,56(a2)
    800017aa:	ffff                	0xffff
    800017ac:	fe00                	sd	s0,56(a2)
    800017ae:	ffff                	0xffff
    800017b0:	fe00                	sd	s0,56(a2)
    800017b2:	ffff                	0xffff
    800017b4:	fe00                	sd	s0,56(a2)
    800017b6:	ffff                	0xffff
    800017b8:	fe00                	sd	s0,56(a2)
    800017ba:	ffff                	0xffff
    800017bc:	fe00                	sd	s0,56(a2)
    800017be:	ffff                	0xffff
    800017c0:	fe00                	sd	s0,56(a2)
    800017c2:	ffff                	0xffff
    800017c4:	fe00                	sd	s0,56(a2)
    800017c6:	ffff                	0xffff
    800017c8:	fe00                	sd	s0,56(a2)
    800017ca:	ffff                	0xffff
    800017cc:	fe00                	sd	s0,56(a2)
    800017ce:	ffff                	0xffff
    800017d0:	fe00                	sd	s0,56(a2)
    800017d2:	ffff                	0xffff
    800017d4:	fe00                	sd	s0,56(a2)
    800017d6:	ffff                	0xffff
    800017d8:	fe00                	sd	s0,56(a2)
    800017da:	ffff                	0xffff
    800017dc:	fe00                	sd	s0,56(a2)
    800017de:	ffff                	0xffff
    800017e0:	fe00                	sd	s0,56(a2)
    800017e2:	ffff                	0xffff
    800017e4:	fe00                	sd	s0,56(a2)
    800017e6:	ffff                	0xffff
    800017e8:	fe00                	sd	s0,56(a2)
    800017ea:	ffff                	0xffff
    800017ec:	fcd2                	sd	s4,120(sp)
    800017ee:	ffff                	0xffff
    800017f0:	fd50                	sd	a2,184(a0)
    800017f2:	ffff                	0xffff
    800017f4:	fe00                	sd	s0,56(a2)
    800017f6:	ffff                	0xffff
    800017f8:	fe00                	sd	s0,56(a2)
    800017fa:	ffff                	0xffff
    800017fc:	fe00                	sd	s0,56(a2)
    800017fe:	ffff                	0xffff
    80001800:	fe00                	sd	s0,56(a2)
    80001802:	ffff                	0xffff
    80001804:	fe00                	sd	s0,56(a2)
    80001806:	ffff                	0xffff
    80001808:	fe00                	sd	s0,56(a2)
    8000180a:	ffff                	0xffff
    8000180c:	fe00                	sd	s0,56(a2)
    8000180e:	ffff                	0xffff
    80001810:	fccc                	sd	a1,184(s1)
    80001812:	ffff                	0xffff
    80001814:	fe00                	sd	s0,56(a2)
    80001816:	ffff                	0xffff
    80001818:	fe00                	sd	s0,56(a2)
    8000181a:	ffff                	0xffff
    8000181c:	fd6e                	sd	s11,184(sp)
    8000181e:	ffff                	0xffff
    80001820:	fda2                	sd	s0,248(sp)
    80001822:	ffff                	0xffff
    80001824:	fe00                	sd	s0,56(a2)
    80001826:	ffff                	0xffff
    80001828:	fe00                	sd	s0,56(a2)
    8000182a:	ffff                	0xffff
    8000182c:	fce2                	sd	s8,120(sp)
    8000182e:	ffff                	0xffff
    80001830:	fe00                	sd	s0,56(a2)
    80001832:	ffff                	0xffff
    80001834:	fdb8                	sd	a4,120(a1)
    80001836:	ffff                	0xffff
    80001838:	fe00                	sd	s0,56(a2)
    8000183a:	ffff                	0xffff
    8000183c:	fe00                	sd	s0,56(a2)
    8000183e:	ffff                	0xffff
    80001840:	fc72                	sd	t3,56(sp)
    80001842:	ffff                	0xffff

Disassembly of section .bss:

0000000080001848 <counters>:
	...

0000000080001858 <counter_names>:
	...

Disassembly of section .tbss:

0000000080001880 <_tls_data>:
	...

Disassembly of section .debug_info:

0000000000000000 <.debug_info>:
       0:	0961                	addi	s2,s2,24
       2:	0000                	unimp
       4:	0004                	0x4
       6:	0000                	unimp
       8:	0000                	unimp
       a:	0108                	addi	a0,sp,128
       c:	00aa                	slli	ra,ra,0xa
       e:	0000                	unimp
      10:	400c                	lw	a1,0(s0)
      12:	0004                	0x4
      14:	cc00                	sw	s0,24(s0)
      16:	0002                	c.slli64	zero
      18:	4800                	lw	s0,16(s0)
      1a:	0010                	0x10
      1c:	0080                	addi	s0,sp,64
      1e:	0000                	unimp
      20:	1800                	addi	s0,sp,48
	...
      2a:	0000                	unimp
      2c:	0200                	addi	s0,sp,256
      2e:	0601                	addi	a2,a2,0
      30:	0310                	addi	a2,sp,384
      32:	0000                	unimp
      34:	0102                	c.slli64	sp
      36:	0e08                	addi	a0,sp,784
      38:	02000003          	lb	zero,32(zero) # 20 <_tdata_begin+0x20>
      3c:	0502                	c.slli64	a0
      3e:	032a                	slli	t1,t1,0xa
      40:	0000                	unimp
      42:	0202                	c.slli64	tp
      44:	00023007          	fld	ft0,0(tp) # ffffffffffff9000 <__global_pointer$+0xffffffff7fff6fbc>
      48:	0300                	addi	s0,sp,384
      4a:	0504                	addi	s1,sp,640
      4c:	6e69                	lui	t3,0x1a
      4e:	0074                	addi	a3,sp,12
      50:	0402                	c.slli64	s0
      52:	00005507          	0x5507
      56:	0200                	addi	s0,sp,256
      58:	0508                	addi	a0,sp,640
      5a:	00a1                	addi	ra,ra,8
      5c:	0000                	unimp
      5e:	0802                	c.slli64	a6
      60:	00005007          	0x5007
      64:	0400                	addi	s0,sp,512
      66:	00000273          	0x273
      6a:	5e02                	lw	t3,32(sp)
      6c:	1701                	addi	a4,a4,-32
      6e:	0050                	addi	a2,sp,4
      70:	0000                	unimp
      72:	c505                	beqz	a0,9a <_tbss_end+0x56>
      74:	0002                	c.slli64	zero
      76:	0300                	addi	s0,sp,384
      78:	0e2e                	slli	t3,t3,0xb
      7a:	00000057          	0x57
      7e:	0802                	c.slli64	a6
      80:	9c05                	subw	s0,s0,s1
      82:	0000                	unimp
      84:	0500                	addi	s0,sp,640
      86:	03e6                	slli	t2,t2,0x19
      88:	0000                	unimp
      8a:	570e7403          	0x570e7403
      8e:	0000                	unimp
      90:	0500                	addi	s0,sp,640
      92:	046c                	addi	a1,sp,524
      94:	0000                	unimp
      96:	57179303          	lh	t1,1393(a5)
      9a:	0000                	unimp
      9c:	0600                	addi	s0,sp,768
      9e:	0304                	addi	s1,sp,384
      a0:	03a5                	addi	t2,t2,9
      a2:	000000bf 00026d07 	0x26d07000000bf
      aa:	0300                	addi	s0,sp,384
      ac:	00650ca7          	0x650ca7
      b0:	0000                	unimp
      b2:	00020c07          	0x20c07
      b6:	0300                	addi	s0,sp,384
      b8:	13a8                	addi	a0,sp,488
      ba:	000000bf 00340800 	0x340800000000bf
      c2:	0000                	unimp
      c4:	000000cf          	fnmadd.s	ft1,ft0,ft0,ft0,rne
      c8:	5e09                	li	t3,-30
      ca:	0000                	unimp
      cc:	0300                	addi	s0,sp,384
      ce:	0a00                	addi	s0,sp,272
      d0:	0308                	addi	a0,sp,384
      d2:	09a2                	slli	s3,s3,0x8
      d4:	000000f3          	0xf3
      d8:	0003d00b          	0x3d00b
      dc:	0300                	addi	s0,sp,384
      de:	07a4                	addi	s1,sp,968
      e0:	0049                	c.nop	18
      e2:	0000                	unimp
      e4:	0b00                	addi	s0,sp,400
      e6:	03d8                	addi	a4,sp,452
      e8:	0000                	unimp
      ea:	9d05a903          	lw	s2,-1584(a1)
      ee:	0000                	unimp
      f0:	0400                	addi	s0,sp,512
      f2:	0500                	addi	s0,sp,640
      f4:	0352                	slli	t1,t1,0x14
      f6:	0000                	unimp
      f8:	cf03aa03          	lw	s4,-784(t2)
      fc:	0000                	unimp
      fe:	0c00                	addi	s0,sp,528
     100:	0508                	addi	a0,sp,640
     102:	0418                	addi	a4,sp,512
     104:	0000                	unimp
     106:	1904                	addi	s1,sp,176
     108:	5019                	c.li	zero,-26
     10a:	0000                	unimp
     10c:	0500                	addi	s0,sp,640
     10e:	02fc                	addi	a5,sp,332
     110:	0000                	unimp
     112:	0c05                	addi	s8,s8,1
     114:	490d                	li	s2,3
     116:	0000                	unimp
     118:	0500                	addi	s0,sp,640
     11a:	000001cf          	fnmadd.s	ft3,ft0,ft0,ft0,rne
     11e:	2304                	fld	fs1,0(a4)
     120:	00010d1b          	sext.w	s10,sp
     124:	0d00                	addi	s0,sp,656
     126:	01e0                	addi	s0,sp,204
     128:	0000                	unimp
     12a:	0420                	addi	s0,sp,520
     12c:	0834                	addi	a3,sp,24
     12e:	017f                	0x17f
     130:	0000                	unimp
     132:	0003730b          	0x3730b
     136:	0400                	addi	s0,sp,512
     138:	1336                	slli	t1,t1,0x2d
     13a:	017f                	0x17f
     13c:	0000                	unimp
     13e:	0e00                	addi	s0,sp,784
     140:	6b5f 0400 0737      	0x73704006b5f
     146:	0049                	c.nop	18
     148:	0000                	unimp
     14a:	0b08                	addi	a0,sp,400
     14c:	000003bb          	addw	t2,zero,zero
     150:	3704                	fld	fs1,40(a4)
     152:	0000490b          	0x490b
     156:	0c00                	addi	s0,sp,528
     158:	0001c90b          	0x1c90b
     15c:	0400                	addi	s0,sp,512
     15e:	00491437          	lui	s0,0x491
     162:	0000                	unimp
     164:	0b10                	addi	a2,sp,400
     166:	00000457          	0x457
     16a:	3704                	fld	fs1,40(a4)
     16c:	0000491b          	0x491b
     170:	1400                	addi	s0,sp,544
     172:	5f0e                	lw	t5,224(sp)
     174:	0078                	addi	a4,sp,12
     176:	3804                	fld	fs1,48(s0)
     178:	0001850b          	0x1850b
     17c:	1800                	addi	s0,sp,48
     17e:	0f00                	addi	s0,sp,912
     180:	2508                	fld	fa0,8(a0)
     182:	0001                	nop
     184:	0800                	addi	s0,sp,16
     186:	0101                	addi	sp,sp,0
     188:	0000                	unimp
     18a:	0195                	addi	gp,gp,5
     18c:	0000                	unimp
     18e:	5e09                	li	t3,-30
     190:	0000                	unimp
     192:	0000                	unimp
     194:	0d00                	addi	s0,sp,656
     196:	00000207          	0x207
     19a:	0424                	addi	s1,sp,520
     19c:	083c                	addi	a5,sp,24
     19e:	0218                	addi	a4,sp,256
     1a0:	0000                	unimp
     1a2:	0000930b          	0x930b
     1a6:	0400                	addi	s0,sp,512
     1a8:	093e                	slli	s2,s2,0xf
     1aa:	0049                	c.nop	18
     1ac:	0000                	unimp
     1ae:	0b00                	addi	s0,sp,400
     1b0:	03ee                	slli	t2,t2,0x1b
     1b2:	0000                	unimp
     1b4:	3f04                	fld	fs1,56(a4)
     1b6:	4909                	li	s2,2
     1b8:	0000                	unimp
     1ba:	0400                	addi	s0,sp,512
     1bc:	0001410b          	0x1410b
     1c0:	0400                	addi	s0,sp,512
     1c2:	0940                	addi	s0,sp,148
     1c4:	0049                	c.nop	18
     1c6:	0000                	unimp
     1c8:	0b08                	addi	a0,sp,400
     1ca:	04d5                	addi	s1,s1,21
     1cc:	0000                	unimp
     1ce:	4104                	lw	s1,0(a0)
     1d0:	4909                	li	s2,2
     1d2:	0000                	unimp
     1d4:	0c00                	addi	s0,sp,528
     1d6:	0002a90b          	0x2a90b
     1da:	0400                	addi	s0,sp,512
     1dc:	0942                	slli	s2,s2,0x10
     1de:	0049                	c.nop	18
     1e0:	0000                	unimp
     1e2:	0b10                	addi	a2,sp,400
     1e4:	0000028f          	0x28f
     1e8:	4304                	lw	s1,0(a4)
     1ea:	4909                	li	s2,2
     1ec:	0000                	unimp
     1ee:	1400                	addi	s0,sp,544
     1f0:	00045c0b          	0x45c0b
     1f4:	0400                	addi	s0,sp,512
     1f6:	0944                	addi	s1,sp,148
     1f8:	0049                	c.nop	18
     1fa:	0000                	unimp
     1fc:	0b18                	addi	a4,sp,400
     1fe:	0334                	addi	a3,sp,392
     200:	0000                	unimp
     202:	4504                	lw	s1,8(a0)
     204:	4909                	li	s2,2
     206:	0000                	unimp
     208:	1c00                	addi	s0,sp,560
     20a:	0004970b          	0x4970b
     20e:	0400                	addi	s0,sp,512
     210:	0946                	slli	s2,s2,0x11
     212:	0049                	c.nop	18
     214:	0000                	unimp
     216:	0020                	addi	s0,sp,8
     218:	5010                	lw	a2,32(s0)
     21a:	0001                	nop
     21c:	0800                	addi	s0,sp,16
     21e:	0402                	c.slli64	s0
     220:	025e084f          	fnmadd.d	fa6,ft8,ft5,ft0,rne
     224:	0000                	unimp
     226:	0001bc0b          	0x1bc0b
     22a:	0400                	addi	s0,sp,512
     22c:	0a50                	addi	a2,sp,276
     22e:	025e                	slli	tp,tp,0x17
     230:	0000                	unimp
     232:	1100                	addi	s0,sp,160
     234:	0000                	unimp
     236:	0000                	unimp
     238:	5104                	lw	s1,32(a0)
     23a:	5e09                	li	t3,-30
     23c:	0002                	c.slli64	zero
     23e:	0000                	unimp
     240:	1101                	addi	sp,sp,-32
     242:	040a                	slli	s0,s0,0x2
     244:	0000                	unimp
     246:	5304                	lw	s1,32(a4)
     248:	010a                	slli	sp,sp,0x2
     24a:	0001                	nop
     24c:	0000                	unimp
     24e:	1102                	slli	sp,sp,0x20
     250:	0175                	addi	sp,sp,29
     252:	0000                	unimp
     254:	5604                	lw	s1,40(a2)
     256:	010a                	slli	sp,sp,0x2
     258:	0001                	nop
     25a:	0400                	addi	s0,sp,512
     25c:	0002                	c.slli64	zero
     25e:	ff08                	sd	a0,56(a4)
     260:	0000                	unimp
     262:	6e00                	ld	s0,24(a2)
     264:	0002                	c.slli64	zero
     266:	0900                	addi	s0,sp,144
     268:	005e                	c.slli	zero,0x17
     26a:	0000                	unimp
     26c:	001f b210 0002      	0x2b210001f
     272:	1800                	addi	s0,sp,48
     274:	08620403          	lb	s0,134(tp) # 86 <_tbss_end+0x42>
     278:	02b2                	slli	t0,t0,0xc
     27a:	0000                	unimp
     27c:	0003730b          	0x3730b
     280:	0400                	addi	s0,sp,512
     282:	02b21263          	bne	tp,a1,2a6 <_tbss_end+0x262>
     286:	0000                	unimp
     288:	0b00                	addi	s0,sp,400
     28a:	0000038b          	0x38b
     28e:	6404                	ld	s1,8(s0)
     290:	4906                	lw	s2,64(sp)
     292:	0000                	unimp
     294:	0800                	addi	s0,sp,16
     296:	0001c40b          	0x1c40b
     29a:	0400                	addi	s0,sp,512
     29c:	0966                	slli	s2,s2,0x19
     29e:	02b8                	addi	a4,sp,328
     2a0:	0000                	unimp
     2a2:	1110                	addi	a2,sp,160
     2a4:	0150                	addi	a2,sp,132
     2a6:	0000                	unimp
     2a8:	6704                	ld	s1,8(a4)
     2aa:	181e                	slli	a6,a6,0x27
     2ac:	0002                	c.slli64	zero
     2ae:	1000                	addi	s0,sp,32
     2b0:	0001                	nop
     2b2:	026e080f          	0x26e080f
     2b6:	0000                	unimp
     2b8:	c808                	sw	a0,16(s0)
     2ba:	0002                	c.slli64	zero
     2bc:	c800                	sw	s0,16(s0)
     2be:	0002                	c.slli64	zero
     2c0:	0900                	addi	s0,sp,144
     2c2:	005e                	c.slli	zero,0x17
     2c4:	0000                	unimp
     2c6:	001f 080f 02ce      	0x2ce080f001f
     2cc:	0000                	unimp
     2ce:	0d12                	slli	s10,s10,0x4
     2d0:	033e                	slli	t1,t1,0xf
     2d2:	0000                	unimp
     2d4:	0410                	addi	a2,sp,512
     2d6:	087a                	slli	a6,a6,0x1e
     2d8:	000002f7          	0x2f7
     2dc:	00013b0b          	0x13b0b
     2e0:	0400                	addi	s0,sp,512
     2e2:	02f7117b          	0x2f7117b
     2e6:	0000                	unimp
     2e8:	0b00                	addi	s0,sp,400
     2ea:	000c                	0xc
     2ec:	0000                	unimp
     2ee:	7c04                	ld	s1,56(s0)
     2f0:	4906                	lw	s2,64(sp)
     2f2:	0000                	unimp
     2f4:	0800                	addi	s0,sp,16
     2f6:	0f00                	addi	s0,sp,912
     2f8:	3408                	fld	fa0,40(s0)
     2fa:	0000                	unimp
     2fc:	0d00                	addi	s0,sp,656
     2fe:	035d                	addi	t1,t1,23
     300:	0000                	unimp
     302:	04b0                	addi	a2,sp,584
     304:	08ba                	slli	a7,a7,0xe
     306:	0440                	addi	s0,sp,516
     308:	0000                	unimp
     30a:	5f0e                	lw	t5,224(sp)
     30c:	0070                	addi	a2,sp,12
     30e:	bb04                	fsd	fs1,48(a4)
     310:	f712                	sd	tp,424(sp)
     312:	0002                	c.slli64	zero
     314:	0000                	unimp
     316:	5f0e                	lw	t5,224(sp)
     318:	0072                	c.slli	zero,0x1c
     31a:	bc04                	fsd	fs1,56(s0)
     31c:	00004907          	flq	fs2,0(zero) # 0 <_tdata_begin>
     320:	0800                	addi	s0,sp,16
     322:	5f0e                	lw	t5,224(sp)
     324:	bd040077          	0xbd040077
     328:	00004907          	flq	fs2,0(zero) # 0 <_tdata_begin>
     32c:	0c00                	addi	s0,sp,528
     32e:	00016e0b          	0x16e0b
     332:	0400                	addi	s0,sp,512
     334:	09be                	slli	s3,s3,0xf
     336:	0000003b          	addw	zero,zero,zero
     33a:	0b10                	addi	a2,sp,400
     33c:	00000223          	sb	zero,4(zero) # 4 <_tdata_begin+0x4>
     340:	bf04                	fsd	fs1,56(a4)
     342:	3b09                	addiw	s6,s6,-30
     344:	0000                	unimp
     346:	1200                	addi	s0,sp,288
     348:	5f0e                	lw	t5,224(sp)
     34a:	6662                	ld	a2,24(sp)
     34c:	0400                	addi	s0,sp,512
     34e:	11c0                	addi	s0,sp,228
     350:	000002cf          	fnmadd.s	ft5,ft0,ft0,ft0,rne
     354:	0b18                	addi	a4,sp,400
     356:	0062                	c.slli	zero,0x18
     358:	0000                	unimp
     35a:	c104                	sw	s1,0(a0)
     35c:	00004907          	flq	fs2,0(zero) # 0 <_tdata_begin>
     360:	2800                	fld	fs0,16(s0)
     362:	00015e0b          	0x15e0b
     366:	0400                	addi	s0,sp,512
     368:	0ac8                	addi	a0,sp,340
     36a:	00ff                	0xff
     36c:	0000                	unimp
     36e:	0b30                	addi	a2,sp,408
     370:	000001f7          	0x1f7
     374:	ca04                	sw	s1,16(a2)
     376:	c41d                	beqz	s0,3a4 <_tbss_end+0x360>
     378:	0005                	c.nop	1
     37a:	3800                	fld	fs0,48(s0)
     37c:	0002880b          	0x2880b
     380:	0400                	addi	s0,sp,512
     382:	1dcc                	addi	a1,sp,756
     384:	05ee                	slli	a1,a1,0x1b
     386:	0000                	unimp
     388:	0b40                	addi	s0,sp,404
     38a:	03e0                	addi	s0,sp,460
     38c:	0000                	unimp
     38e:	cf04                	sw	s1,24(a4)
     390:	120d                	addi	tp,tp,-29
     392:	0006                	c.slli	zero,0x1
     394:	4800                	lw	s0,16(s0)
     396:	0004b10b          	0x4b10b
     39a:	0400                	addi	s0,sp,512
     39c:	09d0                	addi	a2,sp,212
     39e:	062c                	addi	a1,sp,776
     3a0:	0000                	unimp
     3a2:	0e50                	addi	a2,sp,788
     3a4:	755f 0062 d304      	0xd3040062755f
     3aa:	cf11                	beqz	a4,3c6 <_tbss_end+0x382>
     3ac:	0002                	c.slli64	zero
     3ae:	5800                	lw	s0,48(s0)
     3b0:	5f0e                	lw	t5,224(sp)
     3b2:	7075                	c.lui	zero,0xffffd
     3b4:	0400                	addi	s0,sp,512
     3b6:	12d4                	addi	a3,sp,356
     3b8:	000002f7          	0x2f7
     3bc:	0e68                	addi	a0,sp,796
     3be:	755f 0072 d504      	0xd5040072755f
     3c4:	00004907          	flq	fs2,0(zero) # 0 <_tdata_begin>
     3c8:	7000                	ld	s0,32(s0)
     3ca:	0001350b          	0x1350b
     3ce:	0400                	addi	s0,sp,512
     3d0:	11d8                	addi	a4,sp,228
     3d2:	0632                	slli	a2,a2,0xc
     3d4:	0000                	unimp
     3d6:	0b74                	addi	a3,sp,412
     3d8:	0489                	addi	s1,s1,2
     3da:	0000                	unimp
     3dc:	d904                	sw	s1,48(a0)
     3de:	4211                	li	tp,4
     3e0:	0006                	c.slli	zero,0x1
     3e2:	7700                	ld	s0,40(a4)
     3e4:	5f0e                	lw	t5,224(sp)
     3e6:	626c                	ld	a1,192(a2)
     3e8:	0400                	addi	s0,sp,512
     3ea:	11dc                	addi	a5,sp,228
     3ec:	000002cf          	fnmadd.s	ft5,ft0,ft0,ft0,rne
     3f0:	0b78                	addi	a4,sp,412
     3f2:	0184                	addi	s1,sp,192
     3f4:	0000                	unimp
     3f6:	df04                	sw	s1,56(a4)
     3f8:	00004907          	flq	fs2,0(zero) # 0 <_tdata_begin>
     3fc:	8800                	0x8800
     3fe:	0001950b          	0x1950b
     402:	0400                	addi	s0,sp,512
     404:	0ae0                	addi	s0,sp,348
     406:	0072                	c.slli	zero,0x1c
     408:	0000                	unimp
     40a:	0b90                	addi	a2,sp,464
     40c:	0025                	c.nop	9
     40e:	0000                	unimp
     410:	e304                	sd	s1,0(a4)
     412:	5e12                	lw	t3,36(sp)
     414:	0004                	0x4
     416:	9800                	0x9800
     418:	00027a0b          	0x27a0b
     41c:	0400                	addi	s0,sp,512
     41e:	01190ce7          	jalr	s9,17(s2) # 1b011 <_tbss_end+0x1afcd>
     422:	0000                	unimp
     424:	0ba0                	addi	s0,sp,472
     426:	0365                	addi	t1,t1,25
     428:	0000                	unimp
     42a:	e904                	sd	s1,16(a0)
     42c:	f30e                	sd	gp,416(sp)
     42e:	0000                	unimp
     430:	a400                	fsd	fs0,8(s0)
     432:	0002800b          	0x2800b
     436:	0400                	addi	s0,sp,512
     438:	09ea                	slli	s3,s3,0x1a
     43a:	0049                	c.nop	18
     43c:	0000                	unimp
     43e:	00ac                	addi	a1,sp,72
     440:	00009113          	slli	sp,ra,0x0
     444:	5e00                	lw	s0,56(a2)
     446:	0004                	0x4
     448:	1400                	addi	s0,sp,544
     44a:	045e                	slli	s0,s0,0x17
     44c:	0000                	unimp
     44e:	ff14                	sd	a3,56(a4)
     450:	0000                	unimp
     452:	1400                	addi	s0,sp,544
     454:	05b2                	slli	a1,a1,0xc
     456:	0000                	unimp
     458:	4914                	lw	a3,16(a0)
     45a:	0000                	unimp
     45c:	0000                	unimp
     45e:	0469080f          	0x469080f
     462:	0000                	unimp
     464:	5e15                	li	t3,-27
     466:	0004                	0x4
     468:	1600                	addi	s0,sp,800
     46a:	000003c3          	fmadd.s	ft7,ft0,ft0,ft0,rne
     46e:	0748                	addi	a0,sp,900
     470:	6504                	ld	s1,8(a0)
     472:	0802                	c.slli64	a6
     474:	05b2                	slli	a1,a1,0xc
     476:	0000                	unimp
     478:	00032317          	auipc	t1,0x32
     47c:	0400                	addi	s0,sp,512
     47e:	49070267          	jalr	tp,1168(a4)
     482:	0000                	unimp
     484:	0000                	unimp
     486:	00017d17          	auipc	s10,0x17
     48a:	0400                	addi	s0,sp,512
     48c:	026c                	addi	a1,sp,268
     48e:	00069e0b          	0x69e0b
     492:	0800                	addi	s0,sp,16
     494:	00021317          	auipc	t1,0x21
     498:	0400                	addi	s0,sp,512
     49a:	026c                	addi	a1,sp,268
     49c:	9e14                	0x9e14
     49e:	0006                	c.slli	zero,0x1
     4a0:	1000                	addi	s0,sp,32
     4a2:	0001d817          	auipc	a6,0x1d
     4a6:	0400                	addi	s0,sp,512
     4a8:	026c                	addi	a1,sp,268
     4aa:	9e1e                	add	t3,t3,t2
     4ac:	0006                	c.slli	zero,0x1
     4ae:	1800                	addi	s0,sp,48
     4b0:	00038617          	auipc	a2,0x38
     4b4:	0400                	addi	s0,sp,512
     4b6:	026e                	slli	tp,tp,0x1b
     4b8:	4908                	lw	a0,16(a0)
     4ba:	0000                	unimp
     4bc:	2000                	fld	fs0,0(s0)
     4be:	00001a17          	auipc	s4,0x1
     4c2:	0400                	addi	s0,sp,512
     4c4:	a708026f          	jal	tp,fffffffffff80734 <__global_pointer$+0xffffffff7ff7e6f0>
     4c8:	0008                	0x8
     4ca:	2400                	fld	fs0,8(s0)
     4cc:	0003a217          	auipc	tp,0x3a
     4d0:	0400                	addi	s0,sp,512
     4d2:	0272                	slli	tp,tp,0x1c
     4d4:	00004907          	flq	fs2,0(zero) # 0 <_tdata_begin>
     4d8:	4000                	lw	s0,0(s0)
     4da:	00039017          	auipc	zero,0x39
     4de:	0400                	addi	s0,sp,512
     4e0:	bc160273          	0xbc160273
     4e4:	0008                	0x8
     4e6:	4800                	lw	s0,16(s0)
     4e8:	0002ba17          	auipc	s4,0x2b
     4ec:	0400                	addi	s0,sp,512
     4ee:	0275                	addi	tp,tp,29
     4f0:	00004907          	flq	fs2,0(zero) # 0 <_tdata_begin>
     4f4:	5000                	lw	s0,32(s0)
     4f6:	00039817          	auipc	a6,0x39
     4fa:	0400                	addi	s0,sp,512
     4fc:	cd0a0277          	0xcd0a0277
     500:	0008                	0x8
     502:	5800                	lw	s0,48(s0)
     504:	00026517          	auipc	a0,0x26
     508:	0400                	addi	s0,sp,512
     50a:	027a                	slli	tp,tp,0x1e
     50c:	00017f13          	andi	t5,sp,0
     510:	6000                	ld	s0,0(s0)
     512:	0001fd17          	auipc	s10,0x1f
     516:	0400                	addi	s0,sp,512
     518:	4907027b          	0x4907027b
     51c:	0000                	unimp
     51e:	6800                	ld	s0,16(s0)
     520:	0004cb17          	auipc	s6,0x4c
     524:	0400                	addi	s0,sp,512
     526:	027c                	addi	a5,sp,268
     528:	00017f13          	andi	t5,sp,0
     52c:	7000                	ld	s0,32(s0)
     52e:	0002f217          	auipc	tp,0x2f
     532:	0400                	addi	s0,sp,512
     534:	027d                	addi	tp,tp,31
     536:	d314                	sw	a3,32(a4)
     538:	0008                	0x8
     53a:	7800                	ld	s0,48(s0)
     53c:	00021b17          	auipc	s6,0x21
     540:	0400                	addi	s0,sp,512
     542:	0280                	addi	s0,sp,320
     544:	00004907          	flq	fs2,0(zero) # 0 <_tdata_begin>
     548:	8000                	0x8000
     54a:	00018d17          	auipc	s10,0x18
     54e:	0400                	addi	s0,sp,512
     550:	0281                	addi	t0,t0,0
     552:	b209                	j	fffffffffffffe54 <__global_pointer$+0xffffffff7fffde10>
     554:	0005                	c.nop	1
     556:	8800                	0x8800
     558:	00031c17          	auipc	s8,0x31
     55c:	0400                	addi	s0,sp,512
     55e:	02a4                	addi	s1,sp,328
     560:	00088107          	0x88107
     564:	9000                	0x9000
     566:	b218                	fsd	fa4,32(a2)
     568:	0002                	c.slli64	zero
     56a:	0400                	addi	s0,sp,512
     56c:	02a8                	addi	a0,sp,328
     56e:	0002b213          	sltiu	tp,t0,0
     572:	f800                	sd	s0,48(s0)
     574:	1801                	addi	a6,a6,-32
     576:	00000243          	fmadd.s	ft4,ft0,ft0,ft0,rne
     57a:	a904                	fsd	fs1,16(a0)
     57c:	1202                	slli	tp,tp,0x20
     57e:	026e                	slli	tp,tp,0x1b
     580:	0000                	unimp
     582:	0200                	addi	s0,sp,256
     584:	7f18                	ld	a4,56(a4)
     586:	0004                	0x4
     588:	0400                	addi	s0,sp,512
     58a:	02ad                	addi	t0,t0,11
     58c:	e40c                	sd	a1,8(s0)
     58e:	0008                	0x8
     590:	1800                	addi	s0,sp,48
     592:	1805                	addi	a6,a6,-31
     594:	0166                	slli	sp,sp,0x19
     596:	0000                	unimp
     598:	b204                	fsd	fs1,32(a2)
     59a:	1002                	c.slli	zero,0x20
     59c:	065f 0000 0520      	0x5200000065f
     5a2:	4b18                	lw	a4,16(a4)
     5a4:	0001                	nop
     5a6:	0400                	addi	s0,sp,512
     5a8:	02b4                	addi	a3,sp,328
     5aa:	f00a                	sd	sp,32(sp)
     5ac:	0008                	0x8
     5ae:	3800                	fld	fs0,48(s0)
     5b0:	0005                	c.nop	1
     5b2:	05b8080f          	0x5b8080f
     5b6:	0000                	unimp
     5b8:	0102                	c.slli64	sp
     5ba:	1708                	addi	a0,sp,928
     5bc:	15000003          	lb	zero,336(zero) # 150 <_tbss_end+0x10c>
     5c0:	05b8                	addi	a4,sp,712
     5c2:	0000                	unimp
     5c4:	0440080f          	0x440080f
     5c8:	0000                	unimp
     5ca:	00009113          	slli	sp,ra,0x0
     5ce:	e800                	sd	s0,16(s0)
     5d0:	0005                	c.nop	1
     5d2:	1400                	addi	s0,sp,544
     5d4:	045e                	slli	s0,s0,0x17
     5d6:	0000                	unimp
     5d8:	ff14                	sd	a3,56(a4)
     5da:	0000                	unimp
     5dc:	1400                	addi	s0,sp,544
     5de:	05e8                	addi	a0,sp,716
     5e0:	0000                	unimp
     5e2:	4914                	lw	a3,16(a0)
     5e4:	0000                	unimp
     5e6:	0000                	unimp
     5e8:	05bf080f          	0x5bf080f
     5ec:	0000                	unimp
     5ee:	05ca080f          	0x5ca080f
     5f2:	0000                	unimp
     5f4:	00008513          	mv	a0,ra
     5f8:	1200                	addi	s0,sp,288
     5fa:	0006                	c.slli	zero,0x1
     5fc:	1400                	addi	s0,sp,544
     5fe:	045e                	slli	s0,s0,0x17
     600:	0000                	unimp
     602:	ff14                	sd	a3,56(a4)
     604:	0000                	unimp
     606:	1400                	addi	s0,sp,544
     608:	0085                	addi	ra,ra,1
     60a:	0000                	unimp
     60c:	4914                	lw	a3,16(a0)
     60e:	0000                	unimp
     610:	0000                	unimp
     612:	05f4080f          	0x5f4080f
     616:	0000                	unimp
     618:	00004913          	xori	s2,zero,0
     61c:	2c00                	fld	fs0,24(s0)
     61e:	0006                	c.slli	zero,0x1
     620:	1400                	addi	s0,sp,544
     622:	045e                	slli	s0,s0,0x17
     624:	0000                	unimp
     626:	ff14                	sd	a3,56(a4)
     628:	0000                	unimp
     62a:	0000                	unimp
     62c:	0618080f          	0x618080f
     630:	0000                	unimp
     632:	3408                	fld	fa0,40(s0)
     634:	0000                	unimp
     636:	4200                	lw	s0,0(a2)
     638:	0006                	c.slli	zero,0x1
     63a:	0900                	addi	s0,sp,144
     63c:	005e                	c.slli	zero,0x17
     63e:	0000                	unimp
     640:	0002                	c.slli64	zero
     642:	3408                	fld	fa0,40(s0)
     644:	0000                	unimp
     646:	5200                	lw	s0,32(a2)
     648:	0006                	c.slli	zero,0x1
     64a:	0900                	addi	s0,sp,144
     64c:	005e                	c.slli	zero,0x17
     64e:	0000                	unimp
     650:	0000                	unimp
     652:	4b04                	lw	s1,16(a4)
     654:	04000003          	lb	zero,64(zero) # 40 <buflen.2955>
     658:	0124                	addi	s1,sp,136
     65a:	fd1a                	sd	t1,184(sp)
     65c:	0002                	c.slli64	zero
     65e:	1900                	addi	s0,sp,176
     660:	0466                	slli	s0,s0,0x19
     662:	0000                	unimp
     664:	0418                	addi	a4,sp,512
     666:	0128                	addi	a0,sp,136
     668:	9808                	0x9808
     66a:	0006                	c.slli	zero,0x1
     66c:	1700                	addi	s0,sp,928
     66e:	00000373          	0x373
     672:	2a04                	fld	fs1,16(a2)
     674:	1101                	addi	sp,sp,-32
     676:	0698                	addi	a4,sp,832
     678:	0000                	unimp
     67a:	1700                	addi	s0,sp,928
     67c:	0229                	addi	tp,tp,10
     67e:	0000                	unimp
     680:	2b04                	fld	fs1,16(a4)
     682:	0701                	addi	a4,a4,0
     684:	0049                	c.nop	18
     686:	0000                	unimp
     688:	1708                	addi	a0,sp,928
     68a:	0345                	addi	t1,t1,17
     68c:	0000                	unimp
     68e:	2c04                	fld	fs1,24(s0)
     690:	0b01                	addi	s6,s6,0
     692:	069e                	slli	a3,a3,0x7
     694:	0000                	unimp
     696:	0010                	0x10
     698:	065f080f          	0x65f080f
     69c:	0000                	unimp
     69e:	0652080f          	0x652080f
     6a2:	0000                	unimp
     6a4:	1219                	addi	tp,tp,-26
     6a6:	0000                	unimp
     6a8:	0e00                	addi	s0,sp,784
     6aa:	4404                	lw	s1,8(s0)
     6ac:	0801                	addi	a6,a6,0
     6ae:	06dd                	addi	a3,a3,23
     6b0:	0000                	unimp
     6b2:	0003ca17          	auipc	s4,0x3c
     6b6:	0400                	addi	s0,sp,512
     6b8:	0145                	addi	sp,sp,17
     6ba:	dd12                	sw	tp,184(sp)
     6bc:	0006                	c.slli	zero,0x1
     6be:	0000                	unimp
     6c0:	0003f717          	auipc	a4,0x3f
     6c4:	0400                	addi	s0,sp,512
     6c6:	0146                	slli	sp,sp,0x11
     6c8:	dd12                	sw	tp,184(sp)
     6ca:	0006                	c.slli	zero,0x1
     6cc:	0600                	addi	s0,sp,768
     6ce:	00041317          	auipc	t1,0x41
     6d2:	0400                	addi	s0,sp,512
     6d4:	42120147          	fmsub.d	ft2,ft4,ft1,fs0,rne
     6d8:	0000                	unimp
     6da:	0c00                	addi	s0,sp,528
     6dc:	0800                	addi	s0,sp,16
     6de:	0042                	c.slli	zero,0x10
     6e0:	0000                	unimp
     6e2:	06ed                	addi	a3,a3,27
     6e4:	0000                	unimp
     6e6:	5e09                	li	t3,-30
     6e8:	0000                	unimp
     6ea:	0200                	addi	s0,sp,256
     6ec:	1a00                	addi	s0,sp,304
     6ee:	04d8                	addi	a4,sp,580
     6f0:	0285                	addi	t0,t0,1
     6f2:	00080207          	0x80207
     6f6:	1700                	addi	s0,sp,928
     6f8:	044a                	slli	s0,s0,0x12
     6fa:	0000                	unimp
     6fc:	8704                	0x8704
     6fe:	1802                	slli	a6,a6,0x20
     700:	0050                	addi	a2,sp,4
     702:	0000                	unimp
     704:	1700                	addi	s0,sp,928
     706:	03fd                	addi	t2,t2,31
     708:	0000                	unimp
     70a:	8804                	0x8804
     70c:	1202                	slli	tp,tp,0x20
     70e:	05b2                	slli	a1,a1,0xc
     710:	0000                	unimp
     712:	1708                	addi	a0,sp,928
     714:	0258                	addi	a4,sp,260
     716:	0000                	unimp
     718:	8904                	0x8904
     71a:	1002                	c.slli	zero,0x20
     71c:	0802                	c.slli64	a6
     71e:	0000                	unimp
     720:	1710                	addi	a2,sp,928
     722:	04a2                	slli	s1,s1,0x8
     724:	0000                	unimp
     726:	8a04                	0x8a04
     728:	1702                	slli	a4,a4,0x20
     72a:	0195                	addi	gp,gp,5
     72c:	0000                	unimp
     72e:	172c                	addi	a1,sp,936
     730:	01e8                	addi	a0,sp,204
     732:	0000                	unimp
     734:	8b04                	0x8b04
     736:	0f02                	c.slli64	t5
     738:	0049                	c.nop	18
     73a:	0000                	unimp
     73c:	1750                	addi	a2,sp,932
     73e:	036e                	slli	t1,t1,0x1b
     740:	0000                	unimp
     742:	8c04                	0x8c04
     744:	2c02                	fld	fs8,0(sp)
     746:	0812                	slli	a6,a6,0x4
     748:	0000                	unimp
     74a:	1758                	addi	a4,sp,932
     74c:	04b8                	addi	a4,sp,584
     74e:	0000                	unimp
     750:	8d04                	0x8d04
     752:	1a02                	slli	s4,s4,0x20
     754:	06a4                	addi	s1,sp,840
     756:	0000                	unimp
     758:	1760                	addi	s0,sp,940
     75a:	0379                	addi	t1,t1,30
     75c:	0000                	unimp
     75e:	8e04                	0x8e04
     760:	1602                	slli	a2,a2,0x20
     762:	000000f3          	0xf3
     766:	1770                	addi	a2,sp,940
     768:	04bd                	addi	s1,s1,15
     76a:	0000                	unimp
     76c:	8f04                	0x8f04
     76e:	1602                	slli	a2,a2,0x20
     770:	000000f3          	0xf3
     774:	1778                	addi	a4,sp,940
     776:	0085                	addi	ra,ra,1
     778:	0000                	unimp
     77a:	9004                	0x9004
     77c:	1602                	slli	a2,a2,0x20
     77e:	000000f3          	0xf3
     782:	1780                	addi	s0,sp,992
     784:	0475                	addi	s0,s0,29
     786:	0000                	unimp
     788:	9104                	0x9104
     78a:	1002                	c.slli	zero,0x20
     78c:	0819                	addi	a6,a6,6
     78e:	0000                	unimp
     790:	1788                	addi	a0,sp,992
     792:	024c                	addi	a1,sp,260
     794:	0000                	unimp
     796:	9204                	0x9204
     798:	1002                	c.slli	zero,0x20
     79a:	0829                	addi	a6,a6,10
     79c:	0000                	unimp
     79e:	1790                	addi	a2,sp,992
     7a0:	0420                	addi	s0,sp,520
     7a2:	0000                	unimp
     7a4:	9304                	0x9304
     7a6:	0f02                	c.slli64	t5
     7a8:	0049                	c.nop	18
     7aa:	0000                	unimp
     7ac:	17a8                	addi	a0,sp,1000
     7ae:	01ae                	slli	gp,gp,0xb
     7b0:	0000                	unimp
     7b2:	9404                	0x9404
     7b4:	1602                	slli	a2,a2,0x20
     7b6:	000000f3          	0xf3
     7ba:	17ac                	addi	a1,sp,1000
     7bc:	0076                	c.slli	zero,0x1d
     7be:	0000                	unimp
     7c0:	9504                	0x9504
     7c2:	1602                	slli	a2,a2,0x20
     7c4:	000000f3          	0xf3
     7c8:	17b4                	addi	a3,sp,1000
     7ca:	019d                	addi	gp,gp,7
     7cc:	0000                	unimp
     7ce:	9604                	0x9604
     7d0:	1602                	slli	a2,a2,0x20
     7d2:	000000f3          	0xf3
     7d6:	17bc                	addi	a5,sp,1000
     7d8:	0000002b          	0x2b
     7dc:	9704                	0x9704
     7de:	1602                	slli	a2,a2,0x20
     7e0:	000000f3          	0xf3
     7e4:	17c4                	addi	s1,sp,996
     7e6:	003a                	c.slli	zero,0xe
     7e8:	0000                	unimp
     7ea:	9804                	0x9804
     7ec:	1602                	slli	a2,a2,0x20
     7ee:	000000f3          	0xf3
     7f2:	17cc                	addi	a1,sp,996
     7f4:	0321                	addi	t1,t1,8
     7f6:	0000                	unimp
     7f8:	9904                	0x9904
     7fa:	0802                	c.slli64	a6
     7fc:	0049                	c.nop	18
     7fe:	0000                	unimp
     800:	00d4                	addi	a3,sp,68
     802:	b808                	fsd	fa0,48(s0)
     804:	0005                	c.nop	1
     806:	1200                	addi	s0,sp,288
     808:	0008                	0x8
     80a:	0900                	addi	s0,sp,144
     80c:	005e                	c.slli	zero,0x17
     80e:	0000                	unimp
     810:	0019                	c.nop	6
     812:	0802                	c.slli64	a6
     814:	00004b07          	flq	fs6,0(zero) # 0 <_tdata_begin>
     818:	0800                	addi	s0,sp,16
     81a:	05b8                	addi	a4,sp,712
     81c:	0000                	unimp
     81e:	0829                	addi	a6,a6,10
     820:	0000                	unimp
     822:	5e09                	li	t3,-30
     824:	0000                	unimp
     826:	0700                	addi	s0,sp,896
     828:	0800                	addi	s0,sp,16
     82a:	05b8                	addi	a4,sp,712
     82c:	0000                	unimp
     82e:	0839                	addi	a6,a6,14
     830:	0000                	unimp
     832:	5e09                	li	t3,-30
     834:	0000                	unimp
     836:	1700                	addi	s0,sp,928
     838:	1b00                	addi	s0,sp,432
     83a:	0168                	addi	a0,sp,140
     83c:	9e04                	0x9e04
     83e:	0702                	c.slli64	a4
     840:	0861                	addi	a6,a6,24
     842:	0000                	unimp
     844:	0002a217          	auipc	tp,0x2a
     848:	0400                	addi	s0,sp,512
     84a:	02a1                	addi	t0,t0,8
     84c:	0008611b          	0x8611b
     850:	0000                	unimp
     852:	00029917          	auipc	s2,0x29
     856:	0400                	addi	s0,sp,512
     858:	02a2                	slli	t0,t0,0x8
     85a:	7118                	ld	a4,32(a0)
     85c:	0008                	0x8
     85e:	f000                	sd	s0,32(s0)
     860:	0800                	addi	s0,sp,16
     862:	000002f7          	0x2f7
     866:	0871                	addi	a6,a6,28
     868:	0000                	unimp
     86a:	5e09                	li	t3,-30
     86c:	0000                	unimp
     86e:	1d00                	addi	s0,sp,688
     870:	0800                	addi	s0,sp,16
     872:	0050                	addi	a2,sp,4
     874:	0000                	unimp
     876:	0881                	addi	a7,a7,0
     878:	0000                	unimp
     87a:	5e09                	li	t3,-30
     87c:	0000                	unimp
     87e:	1d00                	addi	s0,sp,688
     880:	1c00                	addi	s0,sp,560
     882:	0168                	addi	a0,sp,140
     884:	8304                	0x8304
     886:	0302                	c.slli64	t1
     888:	000008a7          	0x8a7
     88c:	c31d                	beqz	a4,8b2 <_tbss_end+0x86e>
     88e:	04000003          	lb	zero,64(zero) # 40 <buflen.2955>
     892:	029a                	slli	t0,t0,0x6
     894:	0006ed0b          	0x6ed0b
     898:	1d00                	addi	s0,sp,688
     89a:	0000048f          	0x48f
     89e:	a304                	fsd	fs1,0(a4)
     8a0:	0b02                	c.slli64	s6
     8a2:	0839                	addi	a6,a6,14
     8a4:	0000                	unimp
     8a6:	0800                	addi	s0,sp,16
     8a8:	05b8                	addi	a4,sp,712
     8aa:	0000                	unimp
     8ac:	000008b7          	lui	a7,0x0
     8b0:	5e09                	li	t3,-30
     8b2:	0000                	unimp
     8b4:	1800                	addi	s0,sp,48
     8b6:	1e00                	addi	s0,sp,816
     8b8:	0000006b          	0x6b
     8bc:	08b7080f          	0x8b7080f
     8c0:	0000                	unimp
     8c2:	cd1f 0008 1400      	0x14000008cd1f
     8c8:	045e                	slli	s0,s0,0x17
     8ca:	0000                	unimp
     8cc:	0f00                	addi	s0,sp,912
     8ce:	c208                	sw	a0,0(a2)
     8d0:	0008                	0x8
     8d2:	0f00                	addi	s0,sp,912
     8d4:	7f08                	ld	a0,56(a4)
     8d6:	0001                	nop
     8d8:	1f00                	addi	s0,sp,944
     8da:	08e4                	addi	s1,sp,92
     8dc:	0000                	unimp
     8de:	4914                	lw	a3,16(a0)
     8e0:	0000                	unimp
     8e2:	0000                	unimp
     8e4:	08ea080f          	0x8ea080f
     8e8:	0000                	unimp
     8ea:	08d9080f          	0x8d9080f
     8ee:	0000                	unimp
     8f0:	5208                	lw	a0,32(a2)
     8f2:	0006                	c.slli	zero,0x1
     8f4:	0000                	unimp
     8f6:	0009                	c.nop	2
     8f8:	0900                	addi	s0,sp,144
     8fa:	005e                	c.slli	zero,0x17
     8fc:	0000                	unimp
     8fe:	0002                	c.slli64	zero
     900:	3420                	fld	fs0,104(s0)
     902:	0004                	0x4
     904:	0400                	addi	s0,sp,512
     906:	5e170333          	0x5e170333
     90a:	0004                	0x4
     90c:	2000                	fld	fs0,0(s0)
     90e:	042d                	addi	s0,s0,11
     910:	0000                	unimp
     912:	3404                	fld	fs1,40(s0)
     914:	04641d03          	lh	s10,70(s0) # 491046 <_tbss_end+0x491002>
     918:	0000                	unimp
     91a:	d021                	beqz	s0,85a <_tbss_end+0x816>
     91c:	0004                	0x4
     91e:	0100                	addi	s0,sp,128
     920:	00490503          	lb	a0,4(s2) # 29856 <_tbss_end+0x29812>
     924:	0000                	unimp
     926:	1048                	addi	a0,sp,36
     928:	8000                	0x8000
     92a:	0000                	unimp
     92c:	0000                	unimp
     92e:	0018                	0x18
     930:	0000                	unimp
     932:	0000                	unimp
     934:	0000                	unimp
     936:	9c01                	subw	s0,s0,s0
     938:	0958                	addi	a4,sp,148
     93a:	0000                	unimp
     93c:	5822                	lw	a6,40(sp)
     93e:	0010                	0x10
     940:	0080                	addi	s0,sp,64
     942:	0000                	unimp
     944:	5800                	lw	s0,48(s0)
     946:	0009                	c.nop	2
     948:	2300                	fld	fs0,0(a4)
     94a:	5a01                	li	s4,-32
     94c:	0309                	addi	t1,t1,2
     94e:	1660                	addi	s0,sp,812
     950:	8000                	0x8000
     952:	0000                	unimp
     954:	0000                	unimp
     956:	0000                	unimp
     958:	2e24                	fld	fs1,88(a2)
     95a:	0001                	nop
     95c:	2e00                	fld	fs0,24(a2)
     95e:	0001                	nop
     960:	0600                	addi	s0,sp,768
     962:	05c8                	addi	a0,sp,708
     964:	9200                	0x9200
     966:	04000017          	auipc	zero,0x4000
     96a:	f700                	sd	s0,40(a4)
     96c:	0001                	nop
     96e:	0800                	addi	s0,sp,16
     970:	aa01                	j	a80 <_tbss_end+0xa3c>
     972:	0000                	unimp
     974:	0c00                	addi	s0,sp,528
     976:	00000617          	auipc	a2,0x0
     97a:	02cc                	addi	a1,sp,324
     97c:	0000                	unimp
     97e:	1060                	addi	s0,sp,44
     980:	8000                	0x8000
     982:	0000                	unimp
     984:	0000                	unimp
     986:	05fc                	addi	a5,sp,716
     988:	0000                	unimp
     98a:	0000                	unimp
     98c:	0000                	unimp
     98e:	014d                	addi	sp,sp,19
     990:	0000                	unimp
     992:	0102                	c.slli64	sp
     994:	1006                	c.slli	zero,0x21
     996:	02000003          	lb	zero,32(zero) # 20 <_tdata_begin+0x20>
     99a:	0801                	addi	a6,a6,0
     99c:	030e                	slli	t1,t1,0x3
     99e:	0000                	unimp
     9a0:	0202                	c.slli64	tp
     9a2:	2a05                	addiw	s4,s4,1
     9a4:	02000003          	lb	zero,32(zero) # 20 <_tdata_begin+0x20>
     9a8:	0702                	c.slli64	a4
     9aa:	0230                	addi	a2,sp,264
     9ac:	0000                	unimp
     9ae:	69050403          	lb	s0,1680(a0) # 26b94 <_tbss_end+0x26b50>
     9b2:	746e                	ld	s0,248(sp)
     9b4:	0200                	addi	s0,sp,256
     9b6:	0704                	addi	s1,sp,896
     9b8:	0055                	c.nop	21
     9ba:	0000                	unimp
     9bc:	0802                	c.slli64	a6
     9be:	a105                	j	dde <_tbss_end+0xd9a>
     9c0:	0000                	unimp
     9c2:	0400                	addi	s0,sp,512
     9c4:	0579                	addi	a0,a0,30
     9c6:	0000                	unimp
     9c8:	6902                	ld	s2,0(sp)
     9ca:	6a19                	lui	s4,0x6
     9cc:	0000                	unimp
     9ce:	0200                	addi	s0,sp,256
     9d0:	0708                	addi	a0,sp,896
     9d2:	0050                	addi	a2,sp,4
     9d4:	0000                	unimp
     9d6:	2b04                	fld	fs1,16(a4)
     9d8:	0006                	c.slli	zero,0x1
     9da:	0200                	addi	s0,sp,256
     9dc:	1ae8                	addi	a0,sp,380
     9de:	006a                	c.slli	zero,0x1a
     9e0:	0000                	unimp
     9e2:	7b04                	ld	s1,48(a4)
     9e4:	0005                	c.nop	1
     9e6:	0300                	addi	s0,sp,384
     9e8:	143c                	addi	a5,sp,552
     9ea:	005e                	c.slli	zero,0x17
     9ec:	0000                	unimp
     9ee:	7d05                	lui	s10,0xfffe1
     9f0:	0000                	unimp
     9f2:	0400                	addi	s0,sp,512
     9f4:	062d                	addi	a2,a2,11
     9f6:	0000                	unimp
     9f8:	71155203          	lhu	tp,1809(a0)
     9fc:	0000                	unimp
     9fe:	0600                	addi	s0,sp,768
     a00:	008e                	slli	ra,ra,0x3
     a02:	0000                	unimp
     a04:	6e04                	ld	s1,24(a2)
     a06:	0004                	0x4
     a08:	0400                	addi	s0,sp,512
     a0a:	17d1                	addi	a5,a5,-12
     a0c:	006a                	c.slli	zero,0x1a
     a0e:	0000                	unimp
     a10:	00027307          	0x27307
     a14:	0400                	addi	s0,sp,512
     a16:	015e                	slli	sp,sp,0x17
     a18:	00005017          	auipc	zero,0x5
     a1c:	0400                	addi	s0,sp,512
     a1e:	02c5                	addi	t0,t0,17
     a20:	0000                	unimp
     a22:	2e05                	addiw	t3,t3,1
     a24:	570e                	lw	a4,224(sp)
     a26:	0000                	unimp
     a28:	0200                	addi	s0,sp,256
     a2a:	0508                	addi	a0,sp,640
     a2c:	009c                	addi	a5,sp,64
     a2e:	0000                	unimp
     a30:	e604                	sd	s1,8(a2)
     a32:	05000003          	lb	zero,80(zero) # 50 <_tbss_end+0xc>
     a36:	0e74                	addi	a3,sp,796
     a38:	00000057          	0x57
     a3c:	6c04                	ld	s1,24(s0)
     a3e:	0004                	0x4
     a40:	0500                	addi	s0,sp,640
     a42:	00571793          	slli	a5,a4,0x5
     a46:	0000                	unimp
     a48:	0408                	addi	a0,sp,512
     a4a:	a505                	j	106a <_tbss_end+0x1026>
     a4c:	00010503          	lb	a0,0(sp)
     a50:	0900                	addi	s0,sp,144
     a52:	026d                	addi	tp,tp,27
     a54:	0000                	unimp
     a56:	a705                	j	1176 <_tbss_end+0x1132>
     a58:	ab0c                	fsd	fa1,16(a4)
     a5a:	0000                	unimp
     a5c:	0900                	addi	s0,sp,144
     a5e:	020c                	addi	a1,sp,256
     a60:	0000                	unimp
     a62:	a805                	j	a92 <_tbss_end+0xa4e>
     a64:	00010513          	mv	a0,sp
     a68:	0000                	unimp
     a6a:	340a                	fld	fs0,160(sp)
     a6c:	0000                	unimp
     a6e:	1500                	addi	s0,sp,672
     a70:	0001                	nop
     a72:	0b00                	addi	s0,sp,400
     a74:	006a                	c.slli	zero,0x1a
     a76:	0000                	unimp
     a78:	080c0003          	lb	zero,128(s8) # 315d8 <_tbss_end+0x31594>
     a7c:	a205                	j	b9c <_tbss_end+0xb58>
     a7e:	3909                	addiw	s2,s2,-30
     a80:	0001                	nop
     a82:	0d00                	addi	s0,sp,656
     a84:	03d0                	addi	a2,sp,452
     a86:	0000                	unimp
     a88:	a405                	j	ca8 <_tbss_end+0xc64>
     a8a:	00004907          	flq	fs2,0(zero) # 0 <_tdata_begin>
     a8e:	0000                	unimp
     a90:	d80d                	beqz	s0,9c2 <_tbss_end+0x97e>
     a92:	05000003          	lb	zero,80(zero) # 50 <_tbss_end+0xc>
     a96:	05a9                	addi	a1,a1,10
     a98:	000000e3          	beqz	zero,1298 <_tbss_end+0x1254>
     a9c:	0004                	0x4
     a9e:	5204                	lw	s1,32(a2)
     aa0:	05000003          	lb	zero,80(zero) # 50 <_tbss_end+0xc>
     aa4:	03aa                	slli	t2,t2,0xa
     aa6:	0115                	addi	sp,sp,5
     aa8:	0000                	unimp
     aaa:	080e                	slli	a6,a6,0x3
     aac:	06ab080f          	0x6ab080f
     ab0:	0000                	unimp
     ab2:	1804                	addi	s1,sp,48
     ab4:	0004                	0x4
     ab6:	0600                	addi	s0,sp,768
     ab8:	1919                	addi	s2,s2,-26
     aba:	0050                	addi	a2,sp,4
     abc:	0000                	unimp
     abe:	fc04                	sd	s1,56(s0)
     ac0:	0002                	c.slli64	zero
     ac2:	0700                	addi	s0,sp,896
     ac4:	0d0c                	addi	a1,sp,656
     ac6:	0049                	c.nop	18
     ac8:	0000                	unimp
     aca:	cf04                	sw	s1,24(a4)
     acc:	0001                	nop
     ace:	0600                	addi	s0,sp,768
     ad0:	01591b23          	sh	s5,22(s2)
     ad4:	0000                	unimp
     ad6:	e010                	sd	a2,0(s0)
     ad8:	0001                	nop
     ada:	2000                	fld	fs0,0(s0)
     adc:	3406                	fld	fs0,96(sp)
     ade:	cb08                	sw	a0,16(a4)
     ae0:	0001                	nop
     ae2:	0d00                	addi	s0,sp,656
     ae4:	00000373          	0x373
     ae8:	3606                	fld	fa2,96(sp)
     aea:	0001cb13          	xori	s6,gp,0
     aee:	0000                	unimp
     af0:	5f11                	li	t5,-28
     af2:	3706006b          	0x3706006b
     af6:	00004907          	flq	fs2,0(zero) # 0 <_tdata_begin>
     afa:	0800                	addi	s0,sp,16
     afc:	bb0d                	j	82e <_tbss_end+0x7ea>
     afe:	06000003          	lb	zero,96(zero) # 60 <_tbss_end+0x1c>
     b02:	00490b37          	lui	s6,0x490
     b06:	0000                	unimp
     b08:	0d0c                	addi	a1,sp,656
     b0a:	01c9                	addi	gp,gp,18
     b0c:	0000                	unimp
     b0e:	3706                	fld	fa4,96(sp)
     b10:	4914                	lw	a3,16(a0)
     b12:	0000                	unimp
     b14:	1000                	addi	s0,sp,32
     b16:	570d                	li	a4,-29
     b18:	0004                	0x4
     b1a:	0600                	addi	s0,sp,768
     b1c:	00491b37          	lui	s6,0x491
     b20:	0000                	unimp
     b22:	1114                	addi	a3,sp,160
     b24:	785f 0600 0b38      	0xb380600785f
     b2a:	01d1                	addi	gp,gp,20
     b2c:	0000                	unimp
     b2e:	0018                	0x18
     b30:	0812                	slli	a6,a6,0x4
     b32:	0171                	addi	sp,sp,28
     b34:	0000                	unimp
     b36:	4d0a                	lw	s10,128(sp)
     b38:	0001                	nop
     b3a:	e100                	sd	s0,0(a0)
     b3c:	0001                	nop
     b3e:	0b00                	addi	s0,sp,400
     b40:	006a                	c.slli	zero,0x1a
     b42:	0000                	unimp
     b44:	0000                	unimp
     b46:	0710                	addi	a2,sp,896
     b48:	0002                	c.slli64	zero
     b4a:	2400                	fld	fs0,8(s0)
     b4c:	3c06                	fld	fs8,96(sp)
     b4e:	6408                	ld	a0,8(s0)
     b50:	0002                	c.slli64	zero
     b52:	0d00                	addi	s0,sp,656
     b54:	00000093          	li	ra,0
     b58:	3e06                	fld	ft8,96(sp)
     b5a:	4909                	li	s2,2
     b5c:	0000                	unimp
     b5e:	0000                	unimp
     b60:	ee0d                	bnez	a2,b9a <_tbss_end+0xb56>
     b62:	06000003          	lb	zero,96(zero) # 60 <_tbss_end+0x1c>
     b66:	0049093f 0d040000 	0xd0400000049093f
     b6e:	0141                	addi	sp,sp,16
     b70:	0000                	unimp
     b72:	4006                	0x4006
     b74:	4909                	li	s2,2
     b76:	0000                	unimp
     b78:	0800                	addi	s0,sp,16
     b7a:	d50d                	beqz	a0,aa4 <_tbss_end+0xa60>
     b7c:	0004                	0x4
     b7e:	0600                	addi	s0,sp,768
     b80:	0941                	addi	s2,s2,16
     b82:	0049                	c.nop	18
     b84:	0000                	unimp
     b86:	0d0c                	addi	a1,sp,656
     b88:	02a9                	addi	t0,t0,10
     b8a:	0000                	unimp
     b8c:	4206                	lw	tp,64(sp)
     b8e:	4909                	li	s2,2
     b90:	0000                	unimp
     b92:	1000                	addi	s0,sp,32
     b94:	8f0d                	sub	a4,a4,a1
     b96:	0002                	c.slli64	zero
     b98:	0600                	addi	s0,sp,768
     b9a:	00490943          	fmadd.s	fs2,fs2,ft4,ft0,rne
     b9e:	0000                	unimp
     ba0:	0d14                	addi	a3,sp,656
     ba2:	045c                	addi	a5,sp,516
     ba4:	0000                	unimp
     ba6:	4406                	lw	s0,64(sp)
     ba8:	4909                	li	s2,2
     baa:	0000                	unimp
     bac:	1800                	addi	s0,sp,48
     bae:	340d                	addiw	s0,s0,-29
     bb0:	06000003          	lb	zero,96(zero) # 60 <_tbss_end+0x1c>
     bb4:	0945                	addi	s2,s2,17
     bb6:	0049                	c.nop	18
     bb8:	0000                	unimp
     bba:	0d1c                	addi	a5,sp,656
     bbc:	00000497          	auipc	s1,0x0
     bc0:	4606                	lw	a2,64(sp)
     bc2:	4909                	li	s2,2
     bc4:	0000                	unimp
     bc6:	2000                	fld	fs0,0(s0)
     bc8:	1300                	addi	s0,sp,416
     bca:	0150                	addi	a2,sp,132
     bcc:	0000                	unimp
     bce:	0208                	addi	a0,sp,256
     bd0:	4f06                	lw	t5,64(sp)
     bd2:	aa08                	fsd	fa0,16(a2)
     bd4:	0002                	c.slli64	zero
     bd6:	0d00                	addi	s0,sp,656
     bd8:	01bc                	addi	a5,sp,200
     bda:	0000                	unimp
     bdc:	5006                	0x5006
     bde:	aa0a                	fsd	ft2,272(sp)
     be0:	0002                	c.slli64	zero
     be2:	0000                	unimp
     be4:	0014                	0x14
     be6:	0000                	unimp
     be8:	0600                	addi	s0,sp,768
     bea:	0951                	addi	s2,s2,20
     bec:	02aa                	slli	t0,t0,0xa
     bee:	0000                	unimp
     bf0:	0100                	addi	s0,sp,128
     bf2:	0a14                	addi	a3,sp,272
     bf4:	0004                	0x4
     bf6:	0600                	addi	s0,sp,768
     bf8:	014d0a53          	fadd.s	fs4,fs10,fs4,rne
     bfc:	0000                	unimp
     bfe:	0200                	addi	s0,sp,256
     c00:	7514                	ld	a3,40(a0)
     c02:	0001                	nop
     c04:	0600                	addi	s0,sp,768
     c06:	0a56                	slli	s4,s4,0x15
     c08:	014d                	addi	sp,sp,19
     c0a:	0000                	unimp
     c0c:	0204                	addi	s1,sp,256
     c0e:	0a00                	addi	s0,sp,272
     c10:	0145                	addi	sp,sp,17
     c12:	0000                	unimp
     c14:	02ba                	slli	t0,t0,0xe
     c16:	0000                	unimp
     c18:	00006a0b          	0x6a0b
     c1c:	1f00                	addi	s0,sp,944
     c1e:	1300                	addi	s0,sp,416
     c20:	02b2                	slli	t0,t0,0xc
     c22:	0000                	unimp
     c24:	0318                	addi	a4,sp,384
     c26:	6206                	ld	tp,64(sp)
     c28:	fe08                	sd	a0,56(a2)
     c2a:	0002                	c.slli64	zero
     c2c:	0d00                	addi	s0,sp,656
     c2e:	00000373          	0x373
     c32:	6306                	ld	t1,64(sp)
     c34:	fe12                	sd	tp,312(sp)
     c36:	0002                	c.slli64	zero
     c38:	0000                	unimp
     c3a:	8b0d                	andi	a4,a4,3
     c3c:	06000003          	lb	zero,96(zero) # 60 <_tbss_end+0x1c>
     c40:	0664                	addi	s1,sp,780
     c42:	0049                	c.nop	18
     c44:	0000                	unimp
     c46:	0d08                	addi	a0,sp,656
     c48:	01c4                	addi	s1,sp,196
     c4a:	0000                	unimp
     c4c:	6606                	ld	a2,64(sp)
     c4e:	0409                	addi	s0,s0,2
     c50:	10000003          	lb	zero,256(zero) # 100 <_tbss_end+0xbc>
     c54:	5014                	lw	a3,32(s0)
     c56:	0001                	nop
     c58:	0600                	addi	s0,sp,768
     c5a:	02641e67          	0x2641e67
     c5e:	0000                	unimp
     c60:	0110                	addi	a2,sp,128
     c62:	1200                	addi	s0,sp,288
     c64:	ba08                	fsd	fa0,48(a2)
     c66:	0002                	c.slli64	zero
     c68:	0a00                	addi	s0,sp,272
     c6a:	0314                	addi	a3,sp,384
     c6c:	0000                	unimp
     c6e:	0314                	addi	a3,sp,384
     c70:	0000                	unimp
     c72:	00006a0b          	0x6a0b
     c76:	1f00                	addi	s0,sp,944
     c78:	1200                	addi	s0,sp,288
     c7a:	1a08                	addi	a0,sp,304
     c7c:	15000003          	lb	zero,336(zero) # 150 <_tbss_end+0x10c>
     c80:	3e10                	fld	fa2,56(a2)
     c82:	10000003          	lb	zero,256(zero) # 100 <_tbss_end+0xbc>
     c86:	7a06                	ld	s4,96(sp)
     c88:	4308                	lw	a0,0(a4)
     c8a:	0d000003          	lb	zero,208(zero) # d0 <_tbss_end+0x8c>
     c8e:	0000013b          	addw	sp,zero,zero
     c92:	7b06                	ld	s6,96(sp)
     c94:	4311                	li	t1,4
     c96:	00000003          	lb	zero,0(zero) # 0 <_tdata_begin>
     c9a:	0c0d                	addi	s8,s8,3
     c9c:	0000                	unimp
     c9e:	0600                	addi	s0,sp,768
     ca0:	067c                	addi	a5,sp,780
     ca2:	0049                	c.nop	18
     ca4:	0000                	unimp
     ca6:	0008                	0x8
     ca8:	0812                	slli	a6,a6,0x4
     caa:	0034                	addi	a3,sp,8
     cac:	0000                	unimp
     cae:	5d10                	lw	a2,56(a0)
     cb0:	b0000003          	lb	zero,-1280(zero) # fffffffffffffb00 <__global_pointer$+0xffffffff7fffdabc>
     cb4:	ba06                	fsd	ft1,304(sp)
     cb6:	8c08                	0x8c08
     cb8:	0004                	0x4
     cba:	1100                	addi	s0,sp,160
     cbc:	705f 0600 12bb      	0x12bb0600705f
     cc2:	00000343          	fmadd.s	ft6,ft0,ft0,ft0,rne
     cc6:	1100                	addi	s0,sp,160
     cc8:	725f 0600 07bc      	0x7bc0600725f
     cce:	0049                	c.nop	18
     cd0:	0000                	unimp
     cd2:	1108                	addi	a0,sp,160
     cd4:	775f 0600 07bd      	0x7bd0600775f
     cda:	0049                	c.nop	18
     cdc:	0000                	unimp
     cde:	0d0c                	addi	a1,sp,656
     ce0:	016e                	slli	sp,sp,0x1b
     ce2:	0000                	unimp
     ce4:	be06                	fsd	ft1,312(sp)
     ce6:	3b09                	addiw	s6,s6,-30
     ce8:	0000                	unimp
     cea:	1000                	addi	s0,sp,32
     cec:	230d                	addiw	t1,t1,3
     cee:	0002                	c.slli64	zero
     cf0:	0600                	addi	s0,sp,768
     cf2:	003b09bf 11120000 	0x11120000003b09bf
     cfa:	625f 0066 c006      	0xc0060066625f
     d00:	1b11                	addi	s6,s6,-28
     d02:	18000003          	lb	zero,384(zero) # 180 <_tbss_end+0x13c>
     d06:	620d                	lui	tp,0x3
     d08:	0000                	unimp
     d0a:	0600                	addi	s0,sp,768
     d0c:	07c1                	addi	a5,a5,16
     d0e:	0049                	c.nop	18
     d10:	0000                	unimp
     d12:	0d28                	addi	a0,sp,664
     d14:	015e                	slli	sp,sp,0x17
     d16:	0000                	unimp
     d18:	c806                	sw	ra,16(sp)
     d1a:	450a                	lw	a0,128(sp)
     d1c:	0001                	nop
     d1e:	3000                	fld	fs0,32(s0)
     d20:	f70d                	bnez	a4,c4a <_tbss_end+0xc06>
     d22:	0001                	nop
     d24:	0600                	addi	s0,sp,768
     d26:	1dca                	slli	s11,s11,0x32
     d28:	0610                	addi	a2,sp,768
     d2a:	0000                	unimp
     d2c:	0d38                	addi	a4,sp,664
     d2e:	0288                	addi	a0,sp,320
     d30:	0000                	unimp
     d32:	cc06                	sw	ra,24(sp)
     d34:	3a1d                	addiw	s4,s4,-25
     d36:	0006                	c.slli	zero,0x1
     d38:	4000                	lw	s0,0(s0)
     d3a:	e00d                	bnez	s0,d5c <_tbss_end+0xd18>
     d3c:	06000003          	lb	zero,96(zero) # 60 <_tbss_end+0x1c>
     d40:	065e0dcf          	fnmadd.q	fs11,ft8,ft5,ft0,rne
     d44:	0000                	unimp
     d46:	0d48                	addi	a0,sp,660
     d48:	04b1                	addi	s1,s1,12
     d4a:	0000                	unimp
     d4c:	d006                	sw	ra,32(sp)
     d4e:	7809                	lui	a6,0xfffe2
     d50:	0006                	c.slli	zero,0x1
     d52:	5000                	lw	s0,32(s0)
     d54:	5f11                	li	t5,-28
     d56:	6275                	lui	tp,0x1d
     d58:	0600                	addi	s0,sp,768
     d5a:	031b11d3          	fadd.d	ft3,fs6,fa7,rtz
     d5e:	0000                	unimp
     d60:	1158                	addi	a4,sp,164
     d62:	755f 0070 d406      	0xd4060070755f
     d68:	4312                	lw	t1,4(sp)
     d6a:	68000003          	lb	zero,1664(zero) # 680 <_tbss_end+0x63c>
     d6e:	5f11                	li	t5,-28
     d70:	7275                	lui	tp,0xffffd
     d72:	0600                	addi	s0,sp,768
     d74:	07d5                	addi	a5,a5,21
     d76:	0049                	c.nop	18
     d78:	0000                	unimp
     d7a:	0d70                	addi	a2,sp,668
     d7c:	0135                	addi	sp,sp,13
     d7e:	0000                	unimp
     d80:	d806                	sw	ra,48(sp)
     d82:	7e11                	lui	t3,0xfffe4
     d84:	0006                	c.slli	zero,0x1
     d86:	7400                	ld	s0,40(s0)
     d88:	890d                	andi	a0,a0,3
     d8a:	0004                	0x4
     d8c:	0600                	addi	s0,sp,768
     d8e:	11d9                	addi	gp,gp,-10
     d90:	068e                	slli	a3,a3,0x3
     d92:	0000                	unimp
     d94:	6c5f1177          	0x6c5f1177
     d98:	0062                	c.slli	zero,0x18
     d9a:	dc06                	sw	ra,56(sp)
     d9c:	1b11                	addi	s6,s6,-28
     d9e:	78000003          	lb	zero,1920(zero) # 780 <_tbss_end+0x73c>
     da2:	840d                	srai	s0,s0,0x3
     da4:	0001                	nop
     da6:	0600                	addi	s0,sp,768
     da8:	07df 0049 0000      	0x4907df
     dae:	0d88                	addi	a0,sp,720
     db0:	0195                	addi	gp,gp,5
     db2:	0000                	unimp
     db4:	e006                	sd	ra,0(sp)
     db6:	b80a                	fsd	ft2,48(sp)
     db8:	0000                	unimp
     dba:	9000                	0x9000
     dbc:	250d                	addiw	a0,a0,3
     dbe:	0000                	unimp
     dc0:	0600                	addi	s0,sp,768
     dc2:	04aa12e3          	bne	s4,a0,1606 <_tbss_end+0x15c2>
     dc6:	0000                	unimp
     dc8:	0d98                	addi	a4,sp,720
     dca:	027a                	slli	tp,tp,0x1e
     dcc:	0000                	unimp
     dce:	e706                	sd	ra,392(sp)
     dd0:	650c                	ld	a1,8(a0)
     dd2:	0001                	nop
     dd4:	a000                	fsd	fs0,0(s0)
     dd6:	650d                	lui	a0,0x3
     dd8:	06000003          	lb	zero,96(zero) # 60 <_tbss_end+0x1c>
     ddc:	0ee9                	addi	t4,t4,26
     dde:	0139                	addi	sp,sp,14
     de0:	0000                	unimp
     de2:	0da4                	addi	s1,sp,728
     de4:	0280                	addi	s0,sp,320
     de6:	0000                	unimp
     de8:	ea06                	sd	ra,272(sp)
     dea:	4909                	li	s2,2
     dec:	0000                	unimp
     dee:	ac00                	fsd	fs0,24(s0)
     df0:	1600                	addi	s0,sp,800
     df2:	000000d7          	0xd7
     df6:	04aa                	slli	s1,s1,0xa
     df8:	0000                	unimp
     dfa:	0004aa17          	auipc	s4,0x4a
     dfe:	1700                	addi	s0,sp,928
     e00:	0145                	addi	sp,sp,17
     e02:	0000                	unimp
     e04:	0005fe17          	auipc	t3,0x5f
     e08:	1700                	addi	s0,sp,928
     e0a:	0049                	c.nop	18
     e0c:	0000                	unimp
     e0e:	1200                	addi	s0,sp,288
     e10:	b508                	fsd	fa0,40(a0)
     e12:	0004                	0x4
     e14:	0600                	addi	s0,sp,768
     e16:	04aa                	slli	s1,s1,0xa
     e18:	0000                	unimp
     e1a:	c318                	sw	a4,0(a4)
     e1c:	48000003          	lb	zero,1152(zero) # 480 <_tbss_end+0x43c>
     e20:	02650607          	0x2650607
     e24:	fe08                	sd	a0,56(a2)
     e26:	0005                	c.nop	1
     e28:	1900                	addi	s0,sp,176
     e2a:	00000323          	sb	zero,6(zero) # 6 <_tdata_begin+0x6>
     e2e:	6706                	ld	a4,64(sp)
     e30:	0702                	c.slli64	a4
     e32:	0049                	c.nop	18
     e34:	0000                	unimp
     e36:	1900                	addi	s0,sp,176
     e38:	017d                	addi	sp,sp,31
     e3a:	0000                	unimp
     e3c:	6c06                	ld	s8,64(sp)
     e3e:	0b02                	c.slli64	s6
     e40:	06ea                	slli	a3,a3,0x1a
     e42:	0000                	unimp
     e44:	1908                	addi	a0,sp,176
     e46:	00000213          	li	tp,0
     e4a:	6c06                	ld	s8,64(sp)
     e4c:	1402                	slli	s0,s0,0x20
     e4e:	06ea                	slli	a3,a3,0x1a
     e50:	0000                	unimp
     e52:	1910                	addi	a2,sp,176
     e54:	01d8                	addi	a4,sp,196
     e56:	0000                	unimp
     e58:	6c06                	ld	s8,64(sp)
     e5a:	1e02                	slli	t3,t3,0x20
     e5c:	06ea                	slli	a3,a3,0x1a
     e5e:	0000                	unimp
     e60:	1918                	addi	a4,sp,176
     e62:	0386                	slli	t2,t2,0x1
     e64:	0000                	unimp
     e66:	6e06                	ld	t3,64(sp)
     e68:	0802                	c.slli64	a6
     e6a:	0049                	c.nop	18
     e6c:	0000                	unimp
     e6e:	1920                	addi	s0,sp,184
     e70:	001a                	c.slli	zero,0x6
     e72:	0000                	unimp
     e74:	6f06                	ld	t5,64(sp)
     e76:	0802                	c.slli64	a6
     e78:	000008f3          	0x8f3
     e7c:	1924                	addi	s1,sp,184
     e7e:	03a2                	slli	t2,t2,0x8
     e80:	0000                	unimp
     e82:	7206                	ld	tp,96(sp)
     e84:	0702                	c.slli64	a4
     e86:	0049                	c.nop	18
     e88:	0000                	unimp
     e8a:	1940                	addi	s0,sp,180
     e8c:	0390                	addi	a2,sp,448
     e8e:	0000                	unimp
     e90:	7306                	ld	t1,96(sp)
     e92:	1602                	slli	a2,a2,0x20
     e94:	0908                	addi	a0,sp,144
     e96:	0000                	unimp
     e98:	1948                	addi	a0,sp,180
     e9a:	02ba                	slli	t0,t0,0xe
     e9c:	0000                	unimp
     e9e:	7506                	ld	a0,96(sp)
     ea0:	0702                	c.slli64	a4
     ea2:	0049                	c.nop	18
     ea4:	0000                	unimp
     ea6:	1950                	addi	a2,sp,180
     ea8:	0398                	addi	a4,sp,448
     eaa:	0000                	unimp
     eac:	7706                	ld	a4,96(sp)
     eae:	0a02                	c.slli64	s4
     eb0:	0919                	addi	s2,s2,6
     eb2:	0000                	unimp
     eb4:	1958                	addi	a4,sp,180
     eb6:	0265                	addi	tp,tp,25
     eb8:	0000                	unimp
     eba:	7a06                	ld	s4,96(sp)
     ebc:	1302                	slli	t1,t1,0x20
     ebe:	000001cb          	fnmsub.s	ft3,ft0,ft0,ft0,rne
     ec2:	1960                	addi	s0,sp,188
     ec4:	01fd                	addi	gp,gp,31
     ec6:	0000                	unimp
     ec8:	7b06                	ld	s6,96(sp)
     eca:	0702                	c.slli64	a4
     ecc:	0049                	c.nop	18
     ece:	0000                	unimp
     ed0:	1968                	addi	a0,sp,188
     ed2:	000004cb          	fnmsub.s	fs1,ft0,ft0,ft0,rne
     ed6:	7c06                	ld	s8,96(sp)
     ed8:	1302                	slli	t1,t1,0x20
     eda:	000001cb          	fnmsub.s	ft3,ft0,ft0,ft0,rne
     ede:	1970                	addi	a2,sp,188
     ee0:	02f2                	slli	t0,t0,0x1c
     ee2:	0000                	unimp
     ee4:	7d06                	ld	s10,96(sp)
     ee6:	1402                	slli	s0,s0,0x20
     ee8:	091f 0000 1978      	0x19780000091f
     eee:	0000021b          	sext.w	tp,zero
     ef2:	8006                	c.mv	zero,ra
     ef4:	0702                	c.slli64	a4
     ef6:	0049                	c.nop	18
     ef8:	0000                	unimp
     efa:	1980                	addi	s0,sp,240
     efc:	018d                	addi	gp,gp,3
     efe:	0000                	unimp
     f00:	8106                	mv	sp,ra
     f02:	0902                	c.slli64	s2
     f04:	05fe                	slli	a1,a1,0x1f
     f06:	0000                	unimp
     f08:	1988                	addi	a0,sp,240
     f0a:	031c                	addi	a5,sp,384
     f0c:	0000                	unimp
     f0e:	a406                	fsd	ft1,8(sp)
     f10:	0702                	c.slli64	a4
     f12:	08cd                	addi	a7,a7,19
     f14:	0000                	unimp
     f16:	1a90                	addi	a2,sp,368
     f18:	02b2                	slli	t0,t0,0xc
     f1a:	0000                	unimp
     f1c:	a806                	fsd	ft1,16(sp)
     f1e:	1302                	slli	t1,t1,0x20
     f20:	02fe                	slli	t0,t0,0x1f
     f22:	0000                	unimp
     f24:	01f8                	addi	a4,sp,204
     f26:	431a                	lw	t1,132(sp)
     f28:	0002                	c.slli64	zero
     f2a:	0600                	addi	s0,sp,768
     f2c:	02a9                	addi	t0,t0,10
     f2e:	ba12                	fsd	ft4,304(sp)
     f30:	0002                	c.slli64	zero
     f32:	0000                	unimp
     f34:	1a02                	slli	s4,s4,0x20
     f36:	047f                	0x47f
     f38:	0000                	unimp
     f3a:	ad06                	fsd	ft1,152(sp)
     f3c:	0c02                	c.slli64	s8
     f3e:	0930                	addi	a2,sp,152
     f40:	0000                	unimp
     f42:	0518                	addi	a4,sp,640
     f44:	661a                	ld	a2,384(sp)
     f46:	0001                	nop
     f48:	0600                	addi	s0,sp,768
     f4a:	02b2                	slli	t0,t0,0xc
     f4c:	ab10                	fsd	fa2,16(a4)
     f4e:	0006                	c.slli	zero,0x1
     f50:	2000                	fld	fs0,0(s0)
     f52:	1a05                	addi	s4,s4,-31
     f54:	0000014b          	fnmsub.s	ft2,ft0,ft0,ft0,rne
     f58:	b406                	fsd	ft1,40(sp)
     f5a:	0a02                	c.slli64	s4
     f5c:	093c                	addi	a5,sp,152
     f5e:	0000                	unimp
     f60:	0538                	addi	a4,sp,648
     f62:	1200                	addi	s0,sp,288
     f64:	0408                	addi	a0,sp,512
     f66:	0006                	c.slli	zero,0x1
     f68:	0200                	addi	s0,sp,256
     f6a:	0801                	addi	a6,a6,0
     f6c:	00000317          	auipc	t1,0x0
     f70:	0406                	slli	s0,s0,0x1
     f72:	0006                	c.slli	zero,0x1
     f74:	1200                	addi	s0,sp,288
     f76:	8c08                	0x8c08
     f78:	0004                	0x4
     f7a:	1600                	addi	s0,sp,800
     f7c:	000000d7          	0xd7
     f80:	0634                	addi	a3,sp,776
     f82:	0000                	unimp
     f84:	0004aa17          	auipc	s4,0x4a
     f88:	1700                	addi	s0,sp,928
     f8a:	0145                	addi	sp,sp,17
     f8c:	0000                	unimp
     f8e:	00063417          	auipc	s0,0x63
     f92:	1700                	addi	s0,sp,928
     f94:	0049                	c.nop	18
     f96:	0000                	unimp
     f98:	1200                	addi	s0,sp,288
     f9a:	0b08                	addi	a0,sp,400
     f9c:	0006                	c.slli	zero,0x1
     f9e:	1200                	addi	s0,sp,288
     fa0:	1608                	addi	a0,sp,800
     fa2:	0006                	c.slli	zero,0x1
     fa4:	1600                	addi	s0,sp,800
     fa6:	000000cb          	fnmsub.s	ft1,ft0,ft0,ft0,rne
     faa:	065e                	slli	a2,a2,0x17
     fac:	0000                	unimp
     fae:	0004aa17          	auipc	s4,0x4a
     fb2:	1700                	addi	s0,sp,928
     fb4:	0145                	addi	sp,sp,17
     fb6:	0000                	unimp
     fb8:	0000cb17          	auipc	s6,0xc
     fbc:	1700                	addi	s0,sp,928
     fbe:	0049                	c.nop	18
     fc0:	0000                	unimp
     fc2:	1200                	addi	s0,sp,288
     fc4:	4008                	lw	a0,0(s0)
     fc6:	0006                	c.slli	zero,0x1
     fc8:	1600                	addi	s0,sp,800
     fca:	0049                	c.nop	18
     fcc:	0000                	unimp
     fce:	0678                	addi	a4,sp,780
     fd0:	0000                	unimp
     fd2:	0004aa17          	auipc	s4,0x4a
     fd6:	1700                	addi	s0,sp,928
     fd8:	0145                	addi	sp,sp,17
     fda:	0000                	unimp
     fdc:	1200                	addi	s0,sp,288
     fde:	6408                	ld	a0,8(s0)
     fe0:	0006                	c.slli	zero,0x1
     fe2:	0a00                	addi	s0,sp,272
     fe4:	0034                	addi	a3,sp,8
     fe6:	0000                	unimp
     fe8:	068e                	slli	a3,a3,0x3
     fea:	0000                	unimp
     fec:	00006a0b          	0x6a0b
     ff0:	0200                	addi	s0,sp,256
     ff2:	0a00                	addi	s0,sp,272
     ff4:	0034                	addi	a3,sp,8
     ff6:	0000                	unimp
     ff8:	069e                	slli	a3,a3,0x7
     ffa:	0000                	unimp
     ffc:	00006a0b          	0x6a0b
    1000:	0000                	unimp
    1002:	0700                	addi	s0,sp,896
    1004:	0000034b          	fnmsub.s	ft6,ft0,ft0,ft0,rne
    1008:	2406                	fld	fs0,64(sp)
    100a:	1a01                	addi	s4,s4,-32
    100c:	0349                	addi	t1,t1,18
    100e:	0000                	unimp
    1010:	0004661b          	0x4661b
    1014:	1800                	addi	s0,sp,48
    1016:	2806                	fld	fa6,64(sp)
    1018:	0801                	addi	a6,a6,0
    101a:	06e4                	addi	s1,sp,844
    101c:	0000                	unimp
    101e:	7319                	lui	t1,0xfffe6
    1020:	06000003          	lb	zero,96(zero) # 60 <_tbss_end+0x1c>
    1024:	012a                	slli	sp,sp,0xa
    1026:	e411                	bnez	s0,1032 <_tbss_end+0xfee>
    1028:	0006                	c.slli	zero,0x1
    102a:	0000                	unimp
    102c:	2919                	addiw	s2,s2,6
    102e:	0002                	c.slli64	zero
    1030:	0600                	addi	s0,sp,768
    1032:	4907012b          	0x4907012b
    1036:	0000                	unimp
    1038:	0800                	addi	s0,sp,16
    103a:	4519                	li	a0,6
    103c:	06000003          	lb	zero,96(zero) # 60 <_tbss_end+0x1c>
    1040:	012c                	addi	a1,sp,136
    1042:	0006ea0b          	0x6ea0b
    1046:	1000                	addi	s0,sp,32
    1048:	1200                	addi	s0,sp,288
    104a:	ab08                	fsd	fa0,16(a4)
    104c:	0006                	c.slli	zero,0x1
    104e:	1200                	addi	s0,sp,288
    1050:	9e08                	0x9e08
    1052:	0006                	c.slli	zero,0x1
    1054:	1b00                	addi	s0,sp,432
    1056:	0012                	c.slli	zero,0x4
    1058:	0000                	unimp
    105a:	060e                	slli	a2,a2,0x3
    105c:	0144                	addi	s1,sp,132
    105e:	2908                	fld	fa0,16(a0)
    1060:	19000007          	0x19000007
    1064:	03ca                	slli	t2,t2,0x12
    1066:	0000                	unimp
    1068:	4506                	lw	a0,64(sp)
    106a:	1201                	addi	tp,tp,-32
    106c:	0729                	addi	a4,a4,10
    106e:	0000                	unimp
    1070:	1900                	addi	s0,sp,176
    1072:	000003f7          	0x3f7
    1076:	4606                	lw	a2,64(sp)
    1078:	1201                	addi	tp,tp,-32
    107a:	0729                	addi	a4,a4,10
    107c:	0000                	unimp
    107e:	1906                	slli	s2,s2,0x21
    1080:	00000413          	li	s0,0
    1084:	4706                	lw	a4,64(sp)
    1086:	1201                	addi	tp,tp,-32
    1088:	0042                	c.slli	zero,0x10
    108a:	0000                	unimp
    108c:	000c                	0xc
    108e:	420a                	lw	tp,128(sp)
    1090:	0000                	unimp
    1092:	3900                	fld	fs0,48(a0)
    1094:	0b000007          	0xb000007
    1098:	006a                	c.slli	zero,0x1a
    109a:	0000                	unimp
    109c:	0002                	c.slli64	zero
    109e:	d81c                	sw	a5,48(s0)
    10a0:	8506                	mv	a0,ra
    10a2:	0702                	c.slli64	a4
    10a4:	084e                	slli	a6,a6,0x13
    10a6:	0000                	unimp
    10a8:	4a19                	li	s4,6
    10aa:	0004                	0x4
    10ac:	0600                	addi	s0,sp,768
    10ae:	50180287          	0x50180287
    10b2:	0000                	unimp
    10b4:	0000                	unimp
    10b6:	fd19                	bnez	a0,fd4 <_tbss_end+0xf90>
    10b8:	06000003          	lb	zero,96(zero) # 60 <_tbss_end+0x1c>
    10bc:	0288                	addi	a0,sp,320
    10be:	fe12                	sd	tp,312(sp)
    10c0:	0005                	c.nop	1
    10c2:	0800                	addi	s0,sp,16
    10c4:	5819                	li	a6,-26
    10c6:	0002                	c.slli64	zero
    10c8:	0600                	addi	s0,sp,768
    10ca:	0289                	addi	t0,t0,2
    10cc:	4e10                	lw	a2,24(a2)
    10ce:	0008                	0x8
    10d0:	1000                	addi	s0,sp,32
    10d2:	a219                	j	11d8 <_tbss_end+0x1194>
    10d4:	0004                	0x4
    10d6:	0600                	addi	s0,sp,768
    10d8:	028a                	slli	t0,t0,0x2
    10da:	0001e117          	auipc	sp,0x1e
    10de:	2c00                	fld	fs0,24(s0)
    10e0:	e819                	bnez	s0,10f6 <_tbss_end+0x10b2>
    10e2:	0001                	nop
    10e4:	0600                	addi	s0,sp,768
    10e6:	490f028b          	0x490f028b
    10ea:	0000                	unimp
    10ec:	5000                	lw	s0,32(s0)
    10ee:	6e19                	lui	t3,0x6
    10f0:	06000003          	lb	zero,96(zero) # 60 <_tbss_end+0x1c>
    10f4:	028c                	addi	a1,sp,320
    10f6:	5e2c                	lw	a1,120(a2)
    10f8:	0008                	0x8
    10fa:	5800                	lw	s0,48(s0)
    10fc:	b819                	j	912 <_tbss_end+0x8ce>
    10fe:	0004                	0x4
    1100:	0600                	addi	s0,sp,768
    1102:	028d                	addi	t0,t0,3
    1104:	f01a                	sd	t1,32(sp)
    1106:	0006                	c.slli	zero,0x1
    1108:	6000                	ld	s0,0(s0)
    110a:	7919                	lui	s2,0xfffe6
    110c:	06000003          	lb	zero,96(zero) # 60 <_tbss_end+0x1c>
    1110:	028e                	slli	t0,t0,0x3
    1112:	3916                	fld	fs2,352(sp)
    1114:	0001                	nop
    1116:	7000                	ld	s0,32(s0)
    1118:	bd19                	j	f2e <_tbss_end+0xeea>
    111a:	0004                	0x4
    111c:	0600                	addi	s0,sp,768
    111e:	3916028f          	0x3916028f
    1122:	0001                	nop
    1124:	7800                	ld	s0,48(s0)
    1126:	8519                	srai	a0,a0,0x6
    1128:	0000                	unimp
    112a:	0600                	addi	s0,sp,768
    112c:	0290                	addi	a2,sp,320
    112e:	3916                	fld	fs2,352(sp)
    1130:	0001                	nop
    1132:	8000                	0x8000
    1134:	7519                	lui	a0,0xfffe6
    1136:	0004                	0x4
    1138:	0600                	addi	s0,sp,768
    113a:	0291                	addi	t0,t0,4
    113c:	6510                	ld	a2,8(a0)
    113e:	0008                	0x8
    1140:	8800                	0x8800
    1142:	4c19                	li	s8,6
    1144:	0002                	c.slli64	zero
    1146:	0600                	addi	s0,sp,768
    1148:	0292                	slli	t0,t0,0x4
    114a:	7510                	ld	a2,40(a0)
    114c:	0008                	0x8
    114e:	9000                	0x9000
    1150:	2019                	0x2019
    1152:	0004                	0x4
    1154:	0600                	addi	s0,sp,768
    1156:	490f0293          	addi	t0,t5,1168
    115a:	0000                	unimp
    115c:	a800                	fsd	fs0,16(s0)
    115e:	ae19                	j	1474 <_tbss_end+0x1430>
    1160:	0001                	nop
    1162:	0600                	addi	s0,sp,768
    1164:	0294                	addi	a3,sp,320
    1166:	3916                	fld	fs2,352(sp)
    1168:	0001                	nop
    116a:	ac00                	fsd	fs0,24(s0)
    116c:	7619                	lui	a2,0xfffe6
    116e:	0000                	unimp
    1170:	0600                	addi	s0,sp,768
    1172:	0295                	addi	t0,t0,5
    1174:	3916                	fld	fs2,352(sp)
    1176:	0001                	nop
    1178:	b400                	fsd	fs0,40(s0)
    117a:	9d19                	subw	a0,a0,a4
    117c:	0001                	nop
    117e:	0600                	addi	s0,sp,768
    1180:	0296                	slli	t0,t0,0x5
    1182:	3916                	fld	fs2,352(sp)
    1184:	0001                	nop
    1186:	bc00                	fsd	fs0,56(s0)
    1188:	2b19                	addiw	s6,s6,6
    118a:	0000                	unimp
    118c:	0600                	addi	s0,sp,768
    118e:	39160297          	auipc	t0,0x39160
    1192:	0001                	nop
    1194:	c400                	sw	s0,8(s0)
    1196:	3a19                	addiw	s4,s4,-26
    1198:	0000                	unimp
    119a:	0600                	addi	s0,sp,768
    119c:	0298                	addi	a4,sp,320
    119e:	3916                	fld	fs2,352(sp)
    11a0:	0001                	nop
    11a2:	cc00                	sw	s0,24(s0)
    11a4:	2119                	addiw	sp,sp,6
    11a6:	06000003          	lb	zero,96(zero) # 60 <_tbss_end+0x1c>
    11aa:	0299                	addi	t0,t0,6
    11ac:	4908                	lw	a0,16(a0)
    11ae:	0000                	unimp
    11b0:	d400                	sw	s0,40(s0)
    11b2:	0a00                	addi	s0,sp,272
    11b4:	0604                	addi	s1,sp,768
    11b6:	0000                	unimp
    11b8:	085e                	slli	a6,a6,0x17
    11ba:	0000                	unimp
    11bc:	00006a0b          	0x6a0b
    11c0:	1900                	addi	s0,sp,176
    11c2:	0200                	addi	s0,sp,256
    11c4:	0708                	addi	a0,sp,896
    11c6:	0000004b          	fnmsub.s	ft0,ft0,ft0,ft0,rne
    11ca:	040a                	slli	s0,s0,0x2
    11cc:	0006                	c.slli	zero,0x1
    11ce:	7500                	ld	s0,40(a0)
    11d0:	0008                	0x8
    11d2:	0b00                	addi	s0,sp,400
    11d4:	006a                	c.slli	zero,0x1a
    11d6:	0000                	unimp
    11d8:	040a0007          	0x40a0007
    11dc:	0006                	c.slli	zero,0x1
    11de:	8500                	0x8500
    11e0:	0008                	0x8
    11e2:	0b00                	addi	s0,sp,400
    11e4:	006a                	c.slli	zero,0x1a
    11e6:	0000                	unimp
    11e8:	681d0017          	auipc	zero,0x681d0
    11ec:	0601                	addi	a2,a2,0
    11ee:	029e                	slli	t0,t0,0x7
    11f0:	0008ad07          	flw	fs10,0(a7) # 0 <_tdata_begin>
    11f4:	1900                	addi	s0,sp,176
    11f6:	02a2                	slli	t0,t0,0x8
    11f8:	0000                	unimp
    11fa:	a106                	fsd	ft1,128(sp)
    11fc:	1b02                	slli	s6,s6,0x20
    11fe:	08ad                	addi	a7,a7,11
    1200:	0000                	unimp
    1202:	1900                	addi	s0,sp,176
    1204:	0299                	addi	t0,t0,6
    1206:	0000                	unimp
    1208:	a206                	fsd	ft1,256(sp)
    120a:	1802                	slli	a6,a6,0x20
    120c:	08bd                	addi	a7,a7,15
    120e:	0000                	unimp
    1210:	00f0                	addi	a2,sp,76
    1212:	430a                	lw	t1,128(sp)
    1214:	bd000003          	lb	zero,-1072(zero) # fffffffffffffbd0 <__global_pointer$+0xffffffff7fffdb8c>
    1218:	0008                	0x8
    121a:	0b00                	addi	s0,sp,400
    121c:	006a                	c.slli	zero,0x1a
    121e:	0000                	unimp
    1220:	001d                	c.nop	7
    1222:	500a                	0x500a
    1224:	0000                	unimp
    1226:	cd00                	sw	s0,24(a0)
    1228:	0008                	0x8
    122a:	0b00                	addi	s0,sp,400
    122c:	006a                	c.slli	zero,0x1a
    122e:	0000                	unimp
    1230:	001d                	c.nop	7
    1232:	681e                	ld	a6,448(sp)
    1234:	0601                	addi	a2,a2,0
    1236:	f3030283          	lb	t0,-208(t1) # fffffffffffe5f30 <__global_pointer$+0xffffffff7ffe3eec>
    123a:	0008                	0x8
    123c:	1f00                	addi	s0,sp,944
    123e:	000003c3          	fmadd.s	ft7,ft0,ft0,ft0,rne
    1242:	9a06                	add	s4,s4,ra
    1244:	0b02                	c.slli64	s6
    1246:	0739                	addi	a4,a4,14
    1248:	0000                	unimp
    124a:	8f1f 0004 0600      	0x60000048f1f
    1250:	850b02a3          	sb	a6,-1979(s6) # c7fd <_tbss_end+0xc7b9>
    1254:	0008                	0x8
    1256:	0000                	unimp
    1258:	040a                	slli	s0,s0,0x2
    125a:	0006                	c.slli	zero,0x1
    125c:	0300                	addi	s0,sp,384
    125e:	0009                	c.nop	2
    1260:	0b00                	addi	s0,sp,400
    1262:	006a                	c.slli	zero,0x1a
    1264:	0000                	unimp
    1266:	0018                	0x18
    1268:	6b20                	ld	s0,80(a4)
    126a:	0000                	unimp
    126c:	1200                	addi	s0,sp,288
    126e:	0308                	addi	a0,sp,384
    1270:	0009                	c.nop	2
    1272:	2100                	fld	fs0,0(a0)
    1274:	0919                	addi	s2,s2,6
    1276:	0000                	unimp
    1278:	0004aa17          	auipc	s4,0x4a
    127c:	0000                	unimp
    127e:	0812                	slli	a6,a6,0x4
    1280:	090e                	slli	s2,s2,0x3
    1282:	0000                	unimp
    1284:	0812                	slli	a6,a6,0x4
    1286:	000001cb          	fnmsub.s	ft3,ft0,ft0,ft0,rne
    128a:	3021                	0x3021
    128c:	0009                	c.nop	2
    128e:	1700                	addi	s0,sp,928
    1290:	0049                	c.nop	18
    1292:	0000                	unimp
    1294:	1200                	addi	s0,sp,288
    1296:	3608                	fld	fa0,40(a2)
    1298:	0009                	c.nop	2
    129a:	1200                	addi	s0,sp,288
    129c:	2508                	fld	fa0,8(a0)
    129e:	0009                	c.nop	2
    12a0:	0a00                	addi	s0,sp,272
    12a2:	069e                	slli	a3,a3,0x7
    12a4:	0000                	unimp
    12a6:	094c                	addi	a1,sp,148
    12a8:	0000                	unimp
    12aa:	00006a0b          	0x6a0b
    12ae:	0200                	addi	s0,sp,256
    12b0:	2200                	fld	fs0,0(a2)
    12b2:	0434                	addi	a3,sp,520
    12b4:	0000                	unimp
    12b6:	3306                	fld	ft6,96(sp)
    12b8:	04aa1703          	lh	a4,74(s4) # 4b2c2 <_tbss_end+0x4b27e>
    12bc:	0000                	unimp
    12be:	2d22                	fld	fs10,8(sp)
    12c0:	0004                	0x4
    12c2:	0600                	addi	s0,sp,768
    12c4:	0334                	addi	a3,sp,392
    12c6:	b01d                	j	aec <_tbss_end+0xaa8>
    12c8:	0004                	0x4
    12ca:	0400                	addi	s0,sp,512
    12cc:	055a                	slli	a0,a0,0x16
    12ce:	0000                	unimp
    12d0:	2808                	fld	fa0,16(s0)
    12d2:	0001471b          	0x1471b
    12d6:	0400                	addi	s0,sp,512
    12d8:	0561                	addi	a0,a0,24
    12da:	0000                	unimp
    12dc:	6308                	ld	a0,0(a4)
    12de:	6618                	ld	a4,8(a2)
    12e0:	0009                	c.nop	2
    12e2:	0a00                	addi	s0,sp,272
    12e4:	008e                	slli	ra,ra,0x3
    12e6:	0000                	unimp
    12e8:	098e                	slli	s3,s3,0x3
    12ea:	0000                	unimp
    12ec:	00006a0b          	0x6a0b
    12f0:	0100                	addi	s0,sp,128
    12f2:	2300                	fld	fs0,0(a4)
    12f4:	0584                	addi	s1,sp,704
    12f6:	0000                	unimp
    12f8:	1001                	c.nop	-32
    12fa:	7e12                	ld	t3,288(sp)
    12fc:	0009                	c.nop	2
    12fe:	0900                	addi	s0,sp,144
    1300:	00184803          	lbu	a6,1(a6) # fffffffffffe2001 <__global_pointer$+0xffffffff7ffdffbd>
    1304:	0080                	addi	s0,sp,64
    1306:	0000                	unimp
    1308:	0a00                	addi	s0,sp,272
    130a:	05fe                	slli	a1,a1,0x1f
    130c:	0000                	unimp
    130e:	09b4                	addi	a3,sp,216
    1310:	0000                	unimp
    1312:	00006a0b          	0x6a0b
    1316:	0100                	addi	s0,sp,128
    1318:	2300                	fld	fs0,0(a4)
    131a:	0000063f a40e1101 	0xa40e11010000063f
    1322:	0009                	c.nop	2
    1324:	0900                	addi	s0,sp,144
    1326:	00185803          	lhu	a6,1(a6)
    132a:	0080                	addi	s0,sp,64
    132c:	0000                	unimp
    132e:	2400                	fld	fs0,8(s0)
    1330:	0652                	slli	a2,a2,0x14
    1332:	0000                	unimp
    1334:	1301                	addi	t1,t1,-32
    1336:	891a                	mv	s2,t1
    1338:	0000                	unimp
    133a:	2400                	fld	fs0,8(s0)
    133c:	0695                	addi	a3,a3,5
    133e:	0000                	unimp
    1340:	1401                	addi	s0,s0,-32
    1342:	891a                	mv	s2,t1
    1344:	0000                	unimp
    1346:	2500                	fld	fs0,8(a0)
    1348:	06bd                	addi	a3,a3,15
    134a:	0000                	unimp
    134c:	d901                	beqz	a0,125c <_tbss_end+0x1218>
    134e:	0601                	addi	a2,a2,0
    1350:	00000057          	0x57
    1354:	1608                	addi	a0,sp,800
    1356:	8000                	0x8000
    1358:	0000                	unimp
    135a:	0000                	unimp
    135c:	0054                	addi	a3,sp,4
    135e:	0000                	unimp
    1360:	0000                	unimp
    1362:	0000                	unimp
    1364:	9c01                	subw	s0,s0,s0
    1366:	0a39                	addi	s4,s4,14
    1368:	0000                	unimp
    136a:	7326                	ld	t1,104(sp)
    136c:	7274                	ld	a3,224(a2)
    136e:	0100                	addi	s0,sp,128
    1370:	01d9                	addi	gp,gp,22
    1372:	00063417          	auipc	s0,0x63
    1376:	0000                	unimp
    1378:	0000                	unimp
    137a:	2700                	fld	fs0,8(a4)
    137c:	6572                	ld	a0,280(sp)
    137e:	db010073          	0xdb010073
    1382:	0801                	addi	a6,a6,0
    1384:	00000057          	0x57
    1388:	0036                	c.slli	zero,0xd
    138a:	0000                	unimp
    138c:	ca28                	sw	a0,80(a2)
    138e:	0001                	nop
    1390:	0100                	addi	s0,sp,128
    1392:	01dc                	addi	a5,sp,196
    1394:	00004907          	flq	fs2,0(zero) # 0 <_tdata_begin>
    1398:	9300                	0x9300
    139a:	0000                	unimp
    139c:	0000                	unimp
    139e:	3d29                	addiw	s10,s10,-22
    13a0:	0005                	c.nop	1
    13a2:	0900                	addi	s0,sp,144
    13a4:	0826                	slli	a6,a6,0x9
    13a6:	05fe                	slli	a1,a1,0x1f
    13a8:	0000                	unimp
    13aa:	15f6                	slli	a1,a1,0x3d
    13ac:	8000                	0x8000
    13ae:	0000                	unimp
    13b0:	0000                	unimp
    13b2:	0012                	c.slli	zero,0x4
    13b4:	0000                	unimp
    13b6:	0000                	unimp
    13b8:	0000                	unimp
    13ba:	9c01                	subw	s0,s0,s0
    13bc:	00000a8b          	0xa8b
    13c0:	cb2a                	sw	a0,148(sp)
    13c2:	0006                	c.slli	zero,0x1
    13c4:	0100                	addi	s0,sp,128
    13c6:	01d1                	addi	gp,gp,20
    13c8:	fe14                	sd	a3,56(a2)
    13ca:	0005                	c.nop	1
    13cc:	0100                	addi	s0,sp,128
    13ce:	265a                	fld	fa2,400(sp)
    13d0:	00637273          	csrrci	tp,0x6,6
    13d4:	d101                	beqz	a0,12d4 <_tbss_end+0x1290>
    13d6:	2601                	sext.w	a2,a2
    13d8:	0634                	addi	a3,sp,776
    13da:	0000                	unimp
    13dc:	00dd                	addi	ra,ra,23
    13de:	0000                	unimp
    13e0:	01006427          	0x1006427
    13e4:	fe0901d3          	0xfe0901d3
    13e8:	0005                	c.nop	1
    13ea:	2800                	fld	fs0,16(s0)
    13ec:	0001                	nop
    13ee:	0000                	unimp
    13f0:	ab29                	j	190a <_tbss_end+0x18c6>
    13f2:	0005                	c.nop	1
    13f4:	0900                	addi	s0,sp,144
    13f6:	0624                	addi	s1,sp,776
    13f8:	0049                	c.nop	18
    13fa:	0000                	unimp
    13fc:	15de                	slli	a1,a1,0x37
    13fe:	8000                	0x8000
    1400:	0000                	unimp
    1402:	0000                	unimp
    1404:	0018                	0x18
    1406:	0000                	unimp
    1408:	0000                	unimp
    140a:	0000                	unimp
    140c:	9c01                	subw	s0,s0,s0
    140e:	0aec                	addi	a1,sp,348
    1410:	0000                	unimp
    1412:	0031732b          	0x31732b
    1416:	c501                	beqz	a0,141e <_tbss_end+0x13da>
    1418:	1801                	addi	a6,a6,-32
    141a:	0634                	addi	a3,sp,776
    141c:	0000                	unimp
    141e:	f304                	sd	s1,32(a4)
    1420:	5a01                	li	s4,-32
    1422:	2b9f 3273 0100      	0x10032732b9f
    1428:	01c5                	addi	gp,gp,17
    142a:	3428                	fld	fa0,104(s0)
    142c:	0006                	c.slli	zero,0x1
    142e:	0400                	addi	s0,sp,512
    1430:	9f5b01f3          	0x9f5b01f3
    1434:	632c                	ld	a1,64(a4)
    1436:	0031                	c.nop	12
    1438:	c701                	beqz	a4,1440 <_tbss_end+0x13fc>
    143a:	1101                	addi	sp,sp,-32
    143c:	0034                	addi	a3,sp,8
    143e:	0000                	unimp
    1440:	5e01                	li	t3,-32
    1442:	632c                	ld	a1,64(a4)
    1444:	0032                	c.slli	zero,0xc
    1446:	c701                	beqz	a4,144e <_tbss_end+0x140a>
    1448:	1501                	addi	a0,a0,-32
    144a:	0034                	addi	a3,sp,8
    144c:	0000                	unimp
    144e:	5f01                	li	t5,-32
    1450:	2900                	fld	fs0,16(a0)
    1452:	04ec                	addi	a1,sp,588
    1454:	0000                	unimp
    1456:	7709                	lui	a4,0xfffe2
    1458:	9f09                	subw	a4,a4,a0
    145a:	0000                	unimp
    145c:	cc00                	sw	s0,24(s0)
    145e:	0012                	c.slli	zero,0x4
    1460:	0080                	addi	s0,sp,64
    1462:	0000                	unimp
    1464:	1a00                	addi	s0,sp,304
    1466:	0000                	unimp
    1468:	0000                	unimp
    146a:	0000                	unimp
    146c:	0100                	addi	s0,sp,128
    146e:	3c9c                	fld	fa5,56(s1)
    1470:	2600000b          	0x2600000b
    1474:	bd010073          	0xbd010073
    1478:	1c01                	addi	s8,s8,-32
    147a:	0634                	addi	a3,sp,776
    147c:	0000                	unimp
    147e:	00000173          	0x173
    1482:	6e26                	ld	t3,72(sp)
    1484:	0100                	addi	s0,sp,128
    1486:	01bd                	addi	gp,gp,15
    1488:	9f26                	add	t5,t5,s1
    148a:	0000                	unimp
    148c:	ac00                	fsd	fs0,24(s0)
    148e:	0001                	nop
    1490:	2700                	fld	fs0,8(a4)
    1492:	0070                	addi	a2,sp,12
    1494:	bf01                	j	13a4 <_tbss_end+0x1360>
    1496:	0f01                	addi	t5,t5,0
    1498:	0634                	addi	a3,sp,776
    149a:	0000                	unimp
    149c:	01e2                	slli	gp,gp,0x18
    149e:	0000                	unimp
    14a0:	2900                	fld	fs0,16(a0)
    14a2:	04df 0000 2909      	0x2909000004df
    14a8:	9f09                	subw	a4,a4,a0
    14aa:	0000                	unimp
    14ac:	3c00                	fld	fs0,56(s0)
    14ae:	0012                	c.slli	zero,0x4
    14b0:	0080                	addi	s0,sp,64
    14b2:	0000                	unimp
    14b4:	1200                	addi	s0,sp,288
    14b6:	0000                	unimp
    14b8:	0000                	unimp
    14ba:	0000                	unimp
    14bc:	0100                	addi	s0,sp,128
    14be:	7d9c                	ld	a5,56(a1)
    14c0:	2600000b          	0x2600000b
    14c4:	b5010073          	0xb5010073
    14c8:	1b01                	addi	s6,s6,-32
    14ca:	0634                	addi	a3,sp,776
    14cc:	0000                	unimp
    14ce:	0218                	addi	a4,sp,256
    14d0:	0000                	unimp
    14d2:	01007027          	0x1007027
    14d6:	340f01b7          	lui	gp,0x340f0
    14da:	0006                	c.slli	zero,0x1
    14dc:	5100                	lw	s0,32(a0)
    14de:	0002                	c.slli64	zero
    14e0:	0000                	unimp
    14e2:	bd29                	j	12fc <_tbss_end+0x12b8>
    14e4:	0005                	c.nop	1
    14e6:	0900                	addi	s0,sp,144
    14e8:	0921                	addi	s2,s2,8
    14ea:	0145                	addi	sp,sp,17
    14ec:	0000                	unimp
    14ee:	11f8                	addi	a4,sp,236
    14f0:	8000                	0x8000
    14f2:	0000                	unimp
    14f4:	0000                	unimp
    14f6:	0044                	addi	s1,sp,4
    14f8:	0000                	unimp
    14fa:	0000                	unimp
    14fc:	0000                	unimp
    14fe:	9c01                	subw	s0,s0,s0
    1500:	0c26                	slli	s8,s8,0x9
    1502:	0000                	unimp
    1504:	cb2a                	sw	a0,148(sp)
    1506:	0006                	c.slli	zero,0x1
    1508:	0100                	addi	s0,sp,128
    150a:	01a2                	slli	gp,gp,0x8
    150c:	4514                	lw	a3,8(a0)
    150e:	0001                	nop
    1510:	0100                	addi	s0,sp,128
    1512:	2d5a                	fld	fs10,400(sp)
    1514:	066c                	addi	a1,sp,780
    1516:	0000                	unimp
    1518:	a201                	j	1618 <_tbss_end+0x15d4>
    151a:	1e01                	addi	t3,t3,-32
    151c:	0049                	c.nop	18
    151e:	0000                	unimp
    1520:	00000287          	0x287
    1524:	6e656c2b          	0x6e656c2b
    1528:	0100                	addi	s0,sp,128
    152a:	01a2                	slli	gp,gp,0x8
    152c:	00009f2b          	0x9f2b
    1530:	0100                	addi	s0,sp,128
    1532:	2e5c                	fld	fa5,152(a2)
    1534:	1200                	addi	s0,sp,288
    1536:	8000                	0x8000
    1538:	0000                	unimp
    153a:	0000                	unimp
    153c:	0028                	addi	a0,sp,8
    153e:	0000                	unimp
    1540:	0000                	unimp
    1542:	0000                	unimp
    1544:	0c04                	addi	s1,sp,528
    1546:	0000                	unimp
    1548:	4d28                	lw	a0,88(a0)
    154a:	0006                	c.slli	zero,0x1
    154c:	0100                	addi	s0,sp,128
    154e:	01a5                	addi	gp,gp,9
    1550:	00008e0f          	0x8e0f
    1554:	d300                	sw	s0,32(a4)
    1556:	0002                	c.slli64	zero
    1558:	2700                	fld	fs0,8(a4)
    155a:	0064                	addi	s1,sp,12
    155c:	aa01                	j	166c <_tbss_end+0x1628>
    155e:	1001                	c.nop	-32
    1560:	0c26                	slli	s8,s8,0x9
    1562:	0000                	unimp
    1564:	031c                	addi	a5,sp,384
    1566:	0000                	unimp
    1568:	2f00                	fld	fs0,24(a4)
    156a:	1228                	addi	a0,sp,296
    156c:	8000                	0x8000
    156e:	0000                	unimp
    1570:	0000                	unimp
    1572:	0012                	c.slli	zero,0x4
    1574:	0000                	unimp
    1576:	0000                	unimp
    1578:	0000                	unimp
    157a:	01006427          	0x1006427
    157e:	01ae                	slli	gp,gp,0xb
    1580:	0005fe0b          	0x5fe0b
    1584:	7a00                	ld	s0,48(a2)
    1586:	00000003          	lb	zero,0(zero) # 0 <_tdata_begin>
    158a:	1200                	addi	s0,sp,288
    158c:	8e08                	0x8e08
    158e:	0000                	unimp
    1590:	2900                	fld	fs0,16(a0)
    1592:	069e                	slli	a3,a3,0x7
    1594:	0000                	unimp
    1596:	1f09                	addi	t5,t5,-30
    1598:	4509                	li	a0,2
    159a:	0001                	nop
    159c:	be00                	fsd	fs0,56(a2)
    159e:	0011                	c.nop	4
    15a0:	0080                	addi	s0,sp,64
    15a2:	0000                	unimp
    15a4:	3a00                	fld	fs0,48(a2)
    15a6:	0000                	unimp
    15a8:	0000                	unimp
    15aa:	0000                	unimp
    15ac:	0100                	addi	s0,sp,128
    15ae:	e29c                	sd	a5,0(a3)
    15b0:	000c                	0xc
    15b2:	2a00                	fld	fs0,16(a2)
    15b4:	000006cb          	fnmsub.s	fa3,ft0,ft0,ft0,rne
    15b8:	9201                	srli	a2,a2,0x20
    15ba:	1401                	addi	s0,s0,-32
    15bc:	0145                	addi	sp,sp,17
    15be:	0000                	unimp
    15c0:	5a01                	li	s4,-32
    15c2:	7326                	ld	t1,104(sp)
    15c4:	6372                	ld	t1,280(sp)
    15c6:	0100                	addi	s0,sp,128
    15c8:	0192                	slli	gp,gp,0x4
    15ca:	e226                	sd	s1,256(sp)
    15cc:	000c                	0xc
    15ce:	c500                	sw	s0,8(a0)
    15d0:	2b000003          	lb	zero,688(zero) # 2b0 <_tbss_end+0x26c>
    15d4:	656c                	ld	a1,200(a0)
    15d6:	006e                	c.slli	zero,0x1b
    15d8:	9201                	srli	a2,a2,0x20
    15da:	3201                	addiw	tp,tp,-32
    15dc:	009f 0000 5c01      	0x5c010000009f
    15e2:	e02e                	sd	a1,0(sp)
    15e4:	0011                	c.nop	4
    15e6:	0080                	addi	s0,sp,64
    15e8:	0000                	unimp
    15ea:	1600                	addi	s0,sp,800
    15ec:	0000                	unimp
    15ee:	0000                	unimp
    15f0:	0000                	unimp
    15f2:	b100                	fsd	fs0,32(a0)
    15f4:	000c                	0xc
    15f6:	2700                	fld	fs0,8(a4)
    15f8:	95010073          	0x95010073
    15fc:	1601                	addi	a2,a2,-32
    15fe:	0ce9                	addi	s9,s9,26
    1600:	0000                	unimp
    1602:	00000427          	0x427
    1606:	01006427          	0x1006427
    160a:	0196                	slli	gp,gp,0x5
    160c:	2610                	fld	fa2,8(a2)
    160e:	000c                	0xc
    1610:	7200                	ld	s0,32(a2)
    1612:	0004                	0x4
    1614:	0000                	unimp
    1616:	0011c82f          	0x11c82f
    161a:	0080                	addi	s0,sp,64
    161c:	0000                	unimp
    161e:	1800                	addi	s0,sp,48
    1620:	0000                	unimp
    1622:	0000                	unimp
    1624:	0000                	unimp
    1626:	2700                	fld	fs0,8(a4)
    1628:	9a010073          	0x9a010073
    162c:	1101                	addi	sp,sp,-32
    162e:	0634                	addi	a3,sp,776
    1630:	0000                	unimp
    1632:	04bd                	addi	s1,s1,15
    1634:	0000                	unimp
    1636:	01006427          	0x1006427
    163a:	fe0b019b          	addiw	gp,s6,-32
    163e:	0005                	c.nop	1
    1640:	1b00                	addi	s0,sp,432
    1642:	0005                	c.nop	1
    1644:	0000                	unimp
    1646:	1200                	addi	s0,sp,288
    1648:	e808                	sd	a0,16(s0)
    164a:	000c                	0xc
    164c:	3000                	fld	fs0,32(s0)
    164e:	0812                	slli	a6,a6,0x4
    1650:	009a                	slli	ra,ra,0x6
    1652:	0000                	unimp
    1654:	0f29                	addi	t5,t5,10
    1656:	0006                	c.slli	zero,0x1
    1658:	0a00                	addi	s0,sp,272
    165a:	05f4                	addi	a3,sp,716
    165c:	0049                	c.nop	18
    165e:	0000                	unimp
    1660:	15a2                	slli	a1,a1,0x28
    1662:	8000                	0x8000
    1664:	0000                	unimp
    1666:	0000                	unimp
    1668:	003c                	addi	a5,sp,8
    166a:	0000                	unimp
    166c:	0000                	unimp
    166e:	0000                	unimp
    1670:	9c01                	subw	s0,s0,s0
    1672:	0dd1                	addi	s11,s11,20
    1674:	0000                	unimp
    1676:	7326                	ld	t1,104(sp)
    1678:	7274                	ld	a3,224(a2)
    167a:	0100                	addi	s0,sp,128
    167c:	017e                	slli	sp,sp,0x1f
    167e:	0005fe13          	andi	t3,a1,0
    1682:	7900                	ld	s0,48(a0)
    1684:	0005                	c.nop	1
    1686:	2600                	fld	fs0,8(a2)
    1688:	6d66                	ld	s10,88(sp)
    168a:	0074                	addi	a3,sp,12
    168c:	7e01                	lui	t3,0xfffe0
    168e:	2401                	sext.w	s0,s0
    1690:	0634                	addi	a3,sp,776
    1692:	0000                	unimp
    1694:	000005af          	0x5af
    1698:	2c31                	addiw	s8,s8,12
    169a:	7061                	c.lui	zero,0xffff8
    169c:	0100                	addi	s0,sp,128
    169e:	0180                	addi	s0,sp,192
    16a0:	0009720b          	0x9720b
    16a4:	0300                	addi	s0,sp,384
    16a6:	b891                	j	efa <_tbss_end+0xeb6>
    16a8:	287f                	0x287f
    16aa:	0574                	addi	a3,sp,652
    16ac:	0000                	unimp
    16ae:	8101                	c.srli64	a0
    16b0:	0901                	addi	s2,s2,0
    16b2:	05fe                	slli	a1,a1,0x1f
    16b4:	0000                	unimp
    16b6:	000005fb          	0x5fb
    16ba:	5e32                	lw	t3,44(sp)
    16bc:	0006                	c.slli	zero,0x1
    16be:	0100                	addi	s0,sp,128
    16c0:	0184                	addi	s1,sp,192
    16c2:	ba08                	fsd	fa0,48(a2)
    16c4:	0010                	0x10
    16c6:	0080                	addi	s0,sp,64
    16c8:	0000                	unimp
    16ca:	0e00                	addi	s0,sp,784
    16cc:	0000                	unimp
    16ce:	0000                	unimp
    16d0:	0000                	unimp
    16d2:	0100                	addi	s0,sp,128
    16d4:	a19c                	fsd	fa5,0(a1)
    16d6:	000d                	c.nop	3
    16d8:	2b00                	fld	fs0,16(a4)
    16da:	01006863          	bltu	zero,a6,16ea <_tbss_end+0x16a6>
    16de:	0184                	addi	s1,sp,192
    16e0:	491a                	lw	s2,132(sp)
    16e2:	0000                	unimp
    16e4:	0100                	addi	s0,sp,128
    16e6:	2a5a                	fld	fs4,400(sp)
    16e8:	0026                	c.slli	zero,0x9
    16ea:	0000                	unimp
    16ec:	8401                	c.srai64	s0
    16ee:	2501                	sext.w	a0,a0
    16f0:	0dd1                	addi	s11,s11,20
    16f2:	0000                	unimp
    16f4:	5b01                	li	s6,-32
    16f6:	0005b833          	sltu	a6,a1,zero
    16fa:	0100                	addi	s0,sp,128
    16fc:	0186                	slli	gp,gp,0x1
    16fe:	d70c                	sw	a1,40(a4)
    1700:	000d                	c.nop	3
    1702:	0100                	addi	s0,sp,128
    1704:	cc34005b          	0xcc34005b
    1708:	0015                	c.nop	5
    170a:	0080                	addi	s0,sp,64
    170c:	0000                	unimp
    170e:	4f00                	lw	s0,24(a4)
    1710:	000e                	c.slli	zero,0x3
    1712:	3500                	fld	fs0,40(a0)
    1714:	5a01                	li	s4,-32
    1716:	0309                	addi	t1,t1,2
    1718:	10ba                	slli	ra,ra,0x2e
    171a:	8000                	0x8000
    171c:	0000                	unimp
    171e:	0000                	unimp
    1720:	0135                	addi	sp,sp,13
    1722:	a891035b          	0xa891035b
    1726:	357f                	0x357f
    1728:	5c01                	li	s8,-32
    172a:	5b01f303          	0x5b01f303
    172e:	0135                	addi	sp,sp,13
    1730:	025d                	addi	tp,tp,23
    1732:	5091                	li	ra,-28
    1734:	0000                	unimp
    1736:	0812                	slli	a6,a6,0x4
    1738:	0145                	addi	sp,sp,17
    173a:	0000                	unimp
    173c:	0812                	slli	a6,a6,0x4
    173e:	05fe                	slli	a1,a1,0x1f
    1740:	0000                	unimp
    1742:	2e29                	addiw	t3,t3,10
    1744:	0001                	nop
    1746:	0a00                	addi	s0,sp,272
    1748:	05c8                	addi	a0,sp,708
    174a:	0049                	c.nop	18
    174c:	0000                	unimp
    174e:	150c                	addi	a1,sp,672
    1750:	8000                	0x8000
    1752:	0000                	unimp
    1754:	0000                	unimp
    1756:	002e                	c.slli	zero,0xb
    1758:	0000                	unimp
    175a:	0000                	unimp
    175c:	0000                	unimp
    175e:	9c01                	subw	s0,s0,s0
    1760:	00000e4f          	fnmadd.s	ft8,ft0,ft0,ft0,rne
    1764:	6626                	ld	a2,72(sp)
    1766:	746d                	lui	s0,0xffffb
    1768:	0100                	addi	s0,sp,128
    176a:	34180173          	0x34180173
    176e:	0006                	c.slli	zero,0x1
    1770:	4700                	lw	s0,8(a4)
    1772:	0006                	c.slli	zero,0x1
    1774:	3100                	fld	fs0,32(a0)
    1776:	612c                	ld	a1,64(a0)
    1778:	0070                	addi	a2,sp,12
    177a:	7501                	lui	a0,0xfffe0
    177c:	0b01                	addi	s6,s6,0
    177e:	0972                	slli	s2,s2,0x1c
    1780:	0000                	unimp
    1782:	7fa89103          	lh	sp,2042(a7)
    1786:	3234                	fld	fa3,96(a2)
    1788:	0015                	c.nop	5
    178a:	0080                	addi	s0,sp,64
    178c:	0000                	unimp
    178e:	4f00                	lw	s0,24(a4)
    1790:	000e                	c.slli	zero,0x3
    1792:	3500                	fld	fs0,40(a0)
    1794:	5a01                	li	s4,-32
    1796:	0309                	addi	t1,t1,2
    1798:	1102                	slli	sp,sp,0x20
    179a:	8000                	0x8000
    179c:	0000                	unimp
    179e:	0000                	unimp
    17a0:	0135                	addi	sp,sp,13
    17a2:	3530015b          	0x3530015b
    17a6:	5c01                	li	s8,-32
    17a8:	5a01f303          	0x5a01f303
    17ac:	0135                	addi	sp,sp,13
    17ae:	025d                	addi	tp,tp,23
    17b0:	4891                	li	a7,4
    17b2:	0000                	unimp
    17b4:	d036                	sw	a3,32(sp)
    17b6:	0006                	c.slli	zero,0x1
    17b8:	0100                	addi	s0,sp,128
    17ba:	0ddc                	addi	a5,sp,724
    17bc:	12e6                	slli	t0,t0,0x39
    17be:	8000                	0x8000
    17c0:	0000                	unimp
    17c2:	0000                	unimp
    17c4:	0226                	slli	tp,tp,0x9
    17c6:	0000                	unimp
    17c8:	0000                	unimp
    17ca:	0000                	unimp
    17cc:	9c01                	subw	s0,s0,s0
    17ce:	00001163          	bnez	zero,17d0 <_tbss_end+0x178c>
    17d2:	00066637          	lui	a2,0x66
    17d6:	0100                	addi	s0,sp,128
    17d8:	1edc                	addi	a5,sp,884
    17da:	00001173          	csrrw	sp,ustatus,zero
    17de:	00000693          	li	a3,0
    17e2:	0005f837          	lui	a6,0x5f
    17e6:	0100                	addi	s0,sp,128
    17e8:	3adc                	fld	fa5,176(a3)
    17ea:	0dd1                	addi	s11,s11,20
    17ec:	0000                	unimp
    17ee:	06df 0000 6638      	0x6638000006df
    17f4:	746d                	lui	s0,0xffffb
    17f6:	0100                	addi	s0,sp,128
    17f8:	4edc                	lw	a5,28(a3)
    17fa:	0634                	addi	a3,sp,776
    17fc:	0000                	unimp
    17fe:	0000072b          	0x72b
    1802:	6138                	ld	a4,64(a0)
    1804:	0070                	addi	a2,sp,12
    1806:	dc01                	beqz	s0,171e <_tbss_end+0x16da>
    1808:	0009725b          	0x9725b
    180c:	c000                	sw	s0,0(s0)
    180e:	39000007          	0x39000007
    1812:	0070                	addi	a2,sp,12
    1814:	de01                	beqz	a2,172c <_tbss_end+0x16e8>
    1816:	3418                	fld	fa4,40(s0)
    1818:	0006                	c.slli	zero,0x1
    181a:	e300                	sd	s0,0(a4)
    181c:	3a000007          	0x3a000007
    1820:	0592                	slli	a1,a1,0x4
    1822:	0000                	unimp
    1824:	df01                	beqz	a4,173c <_tbss_end+0x16f8>
    1826:	0006340f          	0x6340f
    182a:	1900                	addi	s0,sp,176
    182c:	0008                	0x8
    182e:	3900                	fld	fs0,48(a0)
    1830:	01006863          	bltu	zero,a6,1840 <_tbss_end+0x17fc>
    1834:	10e0                	addi	s0,sp,108
    1836:	0049                	c.nop	18
    1838:	0000                	unimp
    183a:	08ae                	slli	a7,a7,0xb
    183c:	0000                	unimp
    183e:	7272653b          	0x7272653b
    1842:	0100                	addi	s0,sp,128
    1844:	14e0                	addi	s0,sp,620
    1846:	0049                	c.nop	18
    1848:	0000                	unimp
    184a:	6e39                	lui	t3,0xe
    184c:	6d75                	lui	s10,0x1d
    184e:	0100                	addi	s0,sp,128
    1850:	16e1                	addi	a3,a3,-8
    1852:	085e                	slli	a6,a6,0x17
    1854:	0000                	unimp
    1856:	09ee                	slli	s3,s3,0x1b
    1858:	0000                	unimp
    185a:	3c3a                	fld	fs8,424(sp)
    185c:	0001                	nop
    185e:	0100                	addi	s0,sp,128
    1860:	07e2                	slli	a5,a5,0x18
    1862:	0049                	c.nop	18
    1864:	0000                	unimp
    1866:	0a4a                	slli	s4,s4,0x12
    1868:	0000                	unimp
    186a:	b23a                	fsd	fa4,288(sp)
    186c:	0005                	c.nop	1
    186e:	0100                	addi	s0,sp,128
    1870:	0de2                	slli	s11,s11,0x18
    1872:	0049                	c.nop	18
    1874:	0000                	unimp
    1876:	0aa8                	addi	a0,sp,344
    1878:	0000                	unimp
    187a:	6e3a                	ld	t3,392(sp)
    187c:	0005                	c.nop	1
    187e:	0100                	addi	s0,sp,128
    1880:	14e2                	slli	s1,s1,0x38
    1882:	0049                	c.nop	18
    1884:	0000                	unimp
    1886:	00000b8b          	0xb8b
    188a:	fc3a                	sd	a4,56(sp)
    188c:	0004                	0x4
    188e:	0100                	addi	s0,sp,128
    1890:	1be2                	slli	s7,s7,0x38
    1892:	0049                	c.nop	18
    1894:	0000                	unimp
    1896:	00000c0f          	0xc0f
    189a:	373a                	fld	fa4,424(sp)
    189c:	0006                	c.slli	zero,0x1
    189e:	0100                	addi	s0,sp,128
    18a0:	26e2                	fld	fa3,24(sp)
    18a2:	0049                	c.nop	18
    18a4:	0000                	unimp
    18a6:	00000ce3          	beqz	zero,20be <_tbss_end+0x207a>
    18aa:	693a                	ld	s2,392(sp)
    18ac:	0005                	c.nop	1
    18ae:	0100                	addi	s0,sp,128
    18b0:	060408e3          	beqz	s0,2120 <_tbss_end+0x20dc>
    18b4:	0000                	unimp
    18b6:	00000d1b          	sext.w	s10,zero
    18ba:	a23c                	fsd	fa5,64(a2)
    18bc:	0005                	c.nop	1
    18be:	0100                	addi	s0,sp,128
    18c0:	03f5                	addi	t2,t2,29
    18c2:	13bc                	addi	a5,sp,488
    18c4:	8000                	0x8000
    18c6:	0000                	unimp
    18c8:	0000                	unimp
    18ca:	f43d                	bnez	s0,1838 <_tbss_end+0x17f4>
    18cc:	0004                	0x4
    18ce:	0100                	addi	s0,sp,128
    18d0:	0121                	addi	sp,sp,8
    18d2:	9a05                	andi	a2,a2,-31
    18d4:	00800013          	li	zero,8
    18d8:	0000                	unimp
    18da:	3d00                	fld	fs0,56(a0)
    18dc:	05ea                	slli	a1,a1,0x1a
    18de:	0000                	unimp
    18e0:	6101                	0x6101
    18e2:	0501                	addi	a0,a0,0
    18e4:	1462                	slli	s0,s0,0x38
    18e6:	8000                	0x8000
    18e8:	0000                	unimp
    18ea:	0000                	unimp
    18ec:	e83d                	bnez	s0,1962 <_tbss_end+0x191e>
    18ee:	0005                	c.nop	1
    18f0:	0100                	addi	s0,sp,128
    18f2:	015f 5c05 0014      	0x145c05015f
    18f8:	0080                	addi	s0,sp,64
    18fa:	0000                	unimp
    18fc:	3e00                	fld	fs0,56(a2)
    18fe:	11ff                	0x11ff
    1900:	0000                	unimp
    1902:	1468                	addi	a0,sp,556
    1904:	8000                	0x8000
	...
    190e:	6201                	0x6201
    1910:	0701                	addi	a4,a4,0
    1912:	102a                	c.slli	zero,0x2a
    1914:	0000                	unimp
    1916:	0012483f 000d9f00 	0xd9f000012483f
    191e:	3f00                	fld	fs0,56(a4)
    1920:	123c                	addi	a5,sp,296
    1922:	0000                	unimp
    1924:	0dd5                	addi	s11,s11,21
    1926:	0000                	unimp
    1928:	0012303f 000e2000 	0xe20000012303f
    1930:	3f00                	fld	fs0,56(a4)
    1932:	1224                	addi	s1,sp,296
    1934:	0000                	unimp
    1936:	00000e43          	fmadd.s	ft8,ft0,ft0,ft0,rne
    193a:	0012183f 000e6600 	0xe66000012183f
    1942:	3f00                	fld	fs0,56(a4)
    1944:	120c                	addi	a1,sp,288
    1946:	0000                	unimp
    1948:	0e9c                	addi	a5,sp,848
    194a:	0000                	unimp
    194c:	0040                	addi	s0,sp,4
    194e:	0000                	unimp
    1950:	4100                	lw	s0,0(a0)
    1952:	1254                	addi	a3,sp,292
    1954:	0000                	unimp
    1956:	7dc09103          	lh	sp,2012(ra)
    195a:	6042                	0x6042
    195c:	0012                	c.slli	zero,0x4
    195e:	d200                	sw	s0,32(a2)
    1960:	000e                	c.slli	zero,0x3
    1962:	4300                	lw	s0,0(a4)
    1964:	14b6                	slli	s1,s1,0x2d
    1966:	8000                	0x8000
    1968:	0000                	unimp
    196a:	0000                	unimp
    196c:	1018                	addi	a4,sp,32
    196e:	0000                	unimp
    1970:	0135                	addi	sp,sp,13
    1972:	025a                	slli	tp,tp,0x16
    1974:	0085                	addi	ra,ra,1
    1976:	0135                	addi	sp,sp,13
    1978:	0079025b          	0x79025b
    197c:	4400                	lw	s0,8(s0)
    197e:	14c4                	addi	s1,sp,612
    1980:	8000                	0x8000
    1982:	0000                	unimp
    1984:	0000                	unimp
    1986:	0135                	addi	sp,sp,13
    1988:	0079025b          	0x79025b
    198c:	0000                	unimp
    198e:	4300                	lw	s0,0(a4)
    1990:	1316                	slli	t1,t1,0x25
    1992:	8000                	0x8000
    1994:	0000                	unimp
    1996:	0000                	unimp
    1998:	103e                	c.slli	zero,0x2f
    199a:	0000                	unimp
    199c:	0135                	addi	sp,sp,13
    199e:	0079025b          	0x79025b
    19a2:	4300                	lw	s0,0(a4)
    19a4:	13cc                	addi	a1,sp,484
    19a6:	8000                	0x8000
    19a8:	0000                	unimp
    19aa:	0000                	unimp
    19ac:	1052                	c.slli	zero,0x34
    19ae:	0000                	unimp
    19b0:	0135                	addi	sp,sp,13
    19b2:	0079025b          	0x79025b
    19b6:	4500                	lw	s0,8(a0)
    19b8:	13f2                	slli	t2,t2,0x3c
    19ba:	8000                	0x8000
    19bc:	0000                	unimp
    19be:	0000                	unimp
    19c0:	0aec                	addi	a1,sp,348
    19c2:	0000                	unimp
    19c4:	1070                	addi	a2,sp,44
    19c6:	0000                	unimp
    19c8:	0135                	addi	sp,sp,13
    19ca:	025a                	slli	tp,tp,0x16
    19cc:	01350083          	lb	ra,19(a0) # fffffffffffe0013 <__global_pointer$+0xffffffff7ffddfcf>
    19d0:	0086025b          	0x86025b
    19d4:	4300                	lw	s0,0(a4)
    19d6:	140a                	slli	s0,s0,0x22
    19d8:	8000                	0x8000
    19da:	0000                	unimp
    19dc:	0000                	unimp
    19de:	108a                	slli	ra,ra,0x22
    19e0:	0000                	unimp
    19e2:	0135                	addi	sp,sp,13
    19e4:	025a                	slli	tp,tp,0x16
    19e6:	0085                	addi	ra,ra,1
    19e8:	0135                	addi	sp,sp,13
    19ea:	0079025b          	0x79025b
    19ee:	4300                	lw	s0,0(a4)
    19f0:	1416                	slli	s0,s0,0x25
    19f2:	8000                	0x8000
    19f4:	0000                	unimp
    19f6:	0000                	unimp
    19f8:	109e                	slli	ra,ra,0x27
    19fa:	0000                	unimp
    19fc:	0135                	addi	sp,sp,13
    19fe:	0079025b          	0x79025b
    1a02:	4300                	lw	s0,0(a4)
    1a04:	1434                	addi	a3,sp,552
    1a06:	8000                	0x8000
    1a08:	0000                	unimp
    1a0a:	0000                	unimp
    1a0c:	10b8                	addi	a4,sp,104
    1a0e:	0000                	unimp
    1a10:	0135                	addi	sp,sp,13
    1a12:	025a                	slli	tp,tp,0x16
    1a14:	2008                	fld	fa0,0(s0)
    1a16:	0135                	addi	sp,sp,13
    1a18:	0079025b          	0x79025b
    1a1c:	4500                	lw	s0,8(a0)
    1a1e:	1442                	slli	s0,s0,0x30
    1a20:	8000                	0x8000
    1a22:	0000                	unimp
    1a24:	0000                	unimp
    1a26:	1179                	addi	sp,sp,-2
    1a28:	0000                	unimp
    1a2a:	10d1                	addi	ra,ra,-12
    1a2c:	0000                	unimp
    1a2e:	0135                	addi	sp,sp,13
    1a30:	035a                	slli	t1,t1,0x16
    1a32:	b891                	j	1286 <_tbss_end+0x1242>
    1a34:	007d                	c.nop	31
    1a36:	00145443          	fmadd.s	fs0,fs0,ft1,ft0,unknown
    1a3a:	0080                	addi	s0,sp,64
    1a3c:	0000                	unimp
    1a3e:	eb00                	sd	s0,16(a4)
    1a40:	0010                	0x10
    1a42:	3500                	fld	fs0,40(a0)
    1a44:	5a01                	li	s4,-32
    1a46:	0802                	c.slli64	a6
    1a48:	352d                	addiw	a0,a0,-21
    1a4a:	5b01                	li	s6,-32
    1a4c:	7902                	ld	s2,32(sp)
    1a4e:	0000                	unimp
    1a50:	6245                	lui	tp,0x11
    1a52:	0014                	0x14
    1a54:	0080                	addi	s0,sp,64
    1a56:	0000                	unimp
    1a58:	bf00                	fsd	fs0,56(a4)
    1a5a:	0011                	c.nop	4
    1a5c:	0400                	addi	s0,sp,512
    1a5e:	0011                	c.nop	4
    1a60:	3500                	fld	fs0,40(a0)
    1a62:	5a01                	li	s4,-32
    1a64:	7db89103          	lh	sp,2011(a7)
    1a68:	4300                	lw	s0,0(a4)
    1a6a:	1496                	slli	s1,s1,0x25
    1a6c:	8000                	0x8000
    1a6e:	0000                	unimp
    1a70:	0000                	unimp
    1a72:	111e                	slli	sp,sp,0x27
    1a74:	0000                	unimp
    1a76:	0135                	addi	sp,sp,13
    1a78:	025a                	slli	tp,tp,0x16
    1a7a:	3008                	fld	fa0,32(s0)
    1a7c:	0135                	addi	sp,sp,13
    1a7e:	0079025b          	0x79025b
    1a82:	4300                	lw	s0,0(a4)
    1a84:	149e                	slli	s1,s1,0x27
    1a86:	8000                	0x8000
    1a88:	0000                	unimp
    1a8a:	0000                	unimp
    1a8c:	1138                	addi	a4,sp,168
    1a8e:	0000                	unimp
    1a90:	0135                	addi	sp,sp,13
    1a92:	025a                	slli	tp,tp,0x16
    1a94:	7808                	ld	a0,48(s0)
    1a96:	0135                	addi	sp,sp,13
    1a98:	0079025b          	0x79025b
    1a9c:	4300                	lw	s0,0(a4)
    1a9e:	14ea                	slli	s1,s1,0x3a
    1aa0:	8000                	0x8000
    1aa2:	0000                	unimp
    1aa4:	0000                	unimp
    1aa6:	114c                	addi	a1,sp,164
    1aa8:	0000                	unimp
    1aaa:	0135                	addi	sp,sp,13
    1aac:	0079025b          	0x79025b
    1ab0:	4400                	lw	s0,8(s0)
    1ab2:	14f4                	addi	a3,sp,620
    1ab4:	8000                	0x8000
    1ab6:	0000                	unimp
    1ab8:	0000                	unimp
    1aba:	0135                	addi	sp,sp,13
    1abc:	025a                	slli	tp,tp,0x16
    1abe:	2508                	fld	fa0,8(a0)
    1ac0:	0135                	addi	sp,sp,13
    1ac2:	0079025b          	0x79025b
    1ac6:	0000                	unimp
    1ac8:	7321                	lui	t1,0xfffe8
    1aca:	0011                	c.nop	4
    1acc:	1700                	addi	s0,sp,928
    1ace:	0049                	c.nop	18
    1ad0:	0000                	unimp
    1ad2:	000dd117          	auipc	sp,0xdd
    1ad6:	0000                	unimp
    1ad8:	0812                	slli	a6,a6,0x4
    1ada:	00001163          	bnez	zero,1adc <_tbss_end+0x1a98>
    1ade:	e146                	sd	a7,128(sp)
    1ae0:	0005                	c.nop	1
    1ae2:	0100                	addi	s0,sp,128
    1ae4:	12d2                	slli	t0,t0,0x34
    1ae6:	00c4                	addi	s1,sp,68
    1ae8:	0000                	unimp
    1aea:	108e                	slli	ra,ra,0x23
    1aec:	8000                	0x8000
    1aee:	0000                	unimp
    1af0:	0000                	unimp
    1af2:	002c                	addi	a1,sp,8
    1af4:	0000                	unimp
    1af6:	0000                	unimp
    1af8:	0000                	unimp
    1afa:	9c01                	subw	s0,s0,s0
    1afc:	11b9                	addi	gp,gp,-18
    1afe:	0000                	unimp
    1b00:	6138                	ld	a4,64(a0)
    1b02:	0070                	addi	a2,sp,12
    1b04:	d201                	beqz	a2,1a04 <_tbss_end+0x19c0>
    1b06:	b922                	fsd	fs0,176(sp)
    1b08:	0011                	c.nop	4
    1b0a:	5b00                	lw	s0,48(a4)
    1b0c:	4700000f          	0x4700000f
    1b10:	05b2                	slli	a1,a1,0xc
    1b12:	0000                	unimp
    1b14:	d201                	beqz	a2,1a14 <_tbss_end+0x19d0>
    1b16:	492a                	lw	s2,136(sp)
    1b18:	0000                	unimp
    1b1a:	0100                	addi	s0,sp,128
    1b1c:	0812005b          	0x812005b
    1b20:	0972                	slli	s2,s2,0x1c
    1b22:	0000                	unimp
    1b24:	0646                	slli	a2,a2,0x11
    1b26:	0005                	c.nop	1
    1b28:	0100                	addi	s0,sp,128
    1b2a:	1bc8                	addi	a0,sp,500
    1b2c:	085e                	slli	a6,a6,0x17
    1b2e:	0000                	unimp
    1b30:	1060                	addi	s0,sp,44
    1b32:	8000                	0x8000
    1b34:	0000                	unimp
    1b36:	0000                	unimp
    1b38:	002e                	c.slli	zero,0xb
    1b3a:	0000                	unimp
    1b3c:	0000                	unimp
    1b3e:	0000                	unimp
    1b40:	9c01                	subw	s0,s0,s0
    1b42:	11ff                	0x11ff
    1b44:	0000                	unimp
    1b46:	6138                	ld	a4,64(a0)
    1b48:	0070                	addi	a2,sp,12
    1b4a:	c801                	beqz	s0,1b5a <_tbss_end+0x1b16>
    1b4c:	b92c                	fsd	fa1,112(a0)
    1b4e:	0011                	c.nop	4
    1b50:	e600                	sd	s0,8(a2)
    1b52:	4700000f          	0x4700000f
    1b56:	05b2                	slli	a1,a1,0xc
    1b58:	0000                	unimp
    1b5a:	c801                	beqz	s0,1b6a <_tbss_end+0x1b26>
    1b5c:	4934                	lw	a3,80(a0)
    1b5e:	0000                	unimp
    1b60:	0100                	addi	s0,sp,128
    1b62:	4448005b          	0x4448005b
    1b66:	0005                	c.nop	1
    1b68:	0100                	addi	s0,sp,128
    1b6a:	6d0314b3          	0x6d0314b3
    1b6e:	0012                	c.slli	zero,0x4
    1b70:	4900                	lw	s0,16(a0)
    1b72:	0666                	slli	a2,a2,0x19
    1b74:	0000                	unimp
    1b76:	b301                	j	1876 <_tbss_end+0x1832>
    1b78:	7324                	ld	s1,96(a4)
    1b7a:	0011                	c.nop	4
    1b7c:	4900                	lw	s0,16(a0)
    1b7e:	05f8                	addi	a4,sp,716
    1b80:	0000                	unimp
    1b82:	b301                	j	1882 <_tbss_end+0x183e>
    1b84:	d140                	sw	s0,36(a0)
    1b86:	000d                	c.nop	3
    1b88:	4a00                	lw	s0,16(a2)
    1b8a:	756e                	ld	a0,248(sp)
    1b8c:	006d                	c.nop	27
    1b8e:	b401                	j	158e <_tbss_end+0x154a>
    1b90:	5e28                	lw	a0,120(a2)
    1b92:	0008                	0x8
    1b94:	4900                	lw	s0,16(a0)
    1b96:	013c                	addi	a5,sp,136
    1b98:	0000                	unimp
    1b9a:	b401                	j	159a <_tbss_end+0x1556>
    1b9c:	5036                	0x5036
    1b9e:	0000                	unimp
    1ba0:	4900                	lw	s0,16(a0)
    1ba2:	056e                	slli	a0,a0,0x1b
    1ba4:	0000                	unimp
    1ba6:	b401                	j	15a6 <_tbss_end+0x1562>
    1ba8:	4940                	lw	s0,20(a0)
    1baa:	0000                	unimp
    1bac:	4900                	lw	s0,16(a0)
    1bae:	0569                	addi	a0,a0,26
    1bb0:	0000                	unimp
    1bb2:	b401                	j	15b2 <_tbss_end+0x156e>
    1bb4:	0000494b          	fnmsub.s	fs2,ft0,ft0,ft0,rmm
    1bb8:	4b00                	lw	s0,16(a4)
    1bba:	0659                	addi	a2,a2,22
    1bbc:	0000                	unimp
    1bbe:	b601                	j	16be <_tbss_end+0x167a>
    1bc0:	6d0c                	ld	a1,24(a0)
    1bc2:	0012                	c.slli	zero,0x4
    1bc4:	3b00                	fld	fs0,48(a4)
    1bc6:	6f70                	ld	a2,216(a4)
    1bc8:	b7010073          	0xb7010073
    1bcc:	00004907          	flq	fs2,0(zero) # 0 <_tdata_begin>
    1bd0:	0000                	unimp
    1bd2:	500a                	0x500a
    1bd4:	0000                	unimp
    1bd6:	7d00                	ld	s0,56(a0)
    1bd8:	0012                	c.slli	zero,0x4
    1bda:	0b00                	addi	s0,sp,400
    1bdc:	006a                	c.slli	zero,0x1a
    1bde:	0000                	unimp
    1be0:	714c003f 01000006 	0x1000006714c003f
    1be8:	06a5                	addi	a3,a3,9
    1bea:	1288                	addi	a0,sp,352
    1bec:	8000                	0x8000
    1bee:	0000                	unimp
    1bf0:	0000                	unimp
    1bf2:	0044                	addi	s1,sp,4
    1bf4:	0000                	unimp
    1bf6:	0000                	unimp
    1bf8:	0000                	unimp
    1bfa:	9c01                	subw	s0,s0,s0
    1bfc:	000012db          	0x12db
    1c00:	7838                	ld	a4,112(s0)
    1c02:	0100                	addi	s0,sp,128
    1c04:	18a5                	addi	a7,a7,-23
    1c06:	007d                	c.nop	31
    1c08:	0000                	unimp
    1c0a:	1071                	c.nop	-4
    1c0c:	0000                	unimp
    1c0e:	734d                	lui	t1,0xffff3
    1c10:	7274                	ld	a3,224(a2)
    1c12:	0100                	addi	s0,sp,128
    1c14:	12db08a7          	0x12db08a7
    1c18:	0000                	unimp
    1c1a:	9102                	jalr	sp
    1c1c:	3958                	fld	fa4,176(a0)
    1c1e:	0069                	c.nop	26
    1c20:	a801                	j	1c30 <_tbss_end+0x1bec>
    1c22:	00004907          	flq	fs2,0(zero) # 0 <_tdata_begin>
    1c26:	a700                	fsd	fs0,8(a4)
    1c28:	0010                	0x10
    1c2a:	3400                	fld	fs0,40(s0)
    1c2c:	12c6                	slli	t0,t0,0x31
    1c2e:	8000                	0x8000
    1c30:	0000                	unimp
    1c32:	0000                	unimp
    1c34:	14d2                	slli	s1,s1,0x34
    1c36:	0000                	unimp
    1c38:	0135                	addi	sp,sp,13
    1c3a:	025a                	slli	tp,tp,0x16
    1c3c:	5891                	li	a7,-28
    1c3e:	0000                	unimp
    1c40:	040a                	slli	s0,s0,0x2
    1c42:	0006                	c.slli	zero,0x1
    1c44:	eb00                	sd	s0,16(a4)
    1c46:	0012                	c.slli	zero,0x4
    1c48:	0b00                	addi	s0,sp,400
    1c4a:	006a                	c.slli	zero,0x1a
    1c4c:	0000                	unimp
    1c4e:	0010                	0x10
    1c50:	d34c                	sw	a1,36(a4)
    1c52:	0005                	c.nop	1
    1c54:	0100                	addi	s0,sp,128
    1c56:	0696                	slli	a3,a3,0x5
    1c58:	1552                	slli	a0,a0,0x34
    1c5a:	8000                	0x8000
    1c5c:	0000                	unimp
    1c5e:	0000                	unimp
    1c60:	0050                	addi	a2,sp,4
    1c62:	0000                	unimp
    1c64:	0000                	unimp
    1c66:	0000                	unimp
    1c68:	9c01                	subw	s0,s0,s0
    1c6a:	13c6                	slli	t2,t2,0x31
    1c6c:	0000                	unimp
    1c6e:	6338                	ld	a4,64(a4)
    1c70:	6469                	lui	s0,0x1a
    1c72:	0100                	addi	s0,sp,128
    1c74:	1096                	slli	ra,ra,0x25
    1c76:	0049                	c.nop	18
    1c78:	0000                	unimp
    1c7a:	10de                	slli	ra,ra,0x37
    1c7c:	0000                	unimp
    1c7e:	6e38                	ld	a4,88(a2)
    1c80:	96010063          	beqz	sp,de0 <_tbss_end+0xd9c>
    1c84:	4919                	li	s2,6
    1c86:	0000                	unimp
    1c88:	1700                	addi	s0,sp,928
    1c8a:	0011                	c.nop	4
    1c8c:	4d00                	lw	s0,24(a0)
    1c8e:	6572                	ld	a0,280(sp)
    1c90:	0074                	addi	a3,sp,12
    1c92:	9901                	andi	a0,a0,-32
    1c94:	00004907          	flq	fs2,0(zero) # 0 <_tdata_begin>
    1c98:	0100                	addi	s0,sp,128
    1c9a:	4e59                	li	t3,22
    1c9c:	7562                	ld	a0,56(sp)
    1c9e:	0066                	c.slli	zero,0x19
    1ca0:	9b01                	andi	a4,a4,-32
    1ca2:	c608                	sw	a0,8(a2)
    1ca4:	40000013          	li	zero,1024
    1ca8:	00067a23          	0x67a23
    1cac:	0100                	addi	s0,sp,128
    1cae:	099c                	addi	a5,sp,208
    1cb0:	05fe                	slli	a1,a1,0x1f
    1cb2:	0000                	unimp
    1cb4:	f206                	sd	ra,288(sp)
    1cb6:	00001c9b          	slliw	s9,zero,0x0
    1cba:	2e00                	fld	fs0,24(a2)
    1cbc:	1564                	addi	s1,sp,684
    1cbe:	8000                	0x8000
    1cc0:	0000                	unimp
    1cc2:	0000                	unimp
    1cc4:	0038                	addi	a4,sp,8
    1cc6:	0000                	unimp
    1cc8:	0000                	unimp
    1cca:	0000                	unimp
    1ccc:	1395                	addi	t2,t2,-27
    1cce:	0000                	unimp
    1cd0:	6939                	lui	s2,0xe
    1cd2:	0100                	addi	s0,sp,128
    1cd4:	0c9d                	addi	s9,s9,7
    1cd6:	0049                	c.nop	18
    1cd8:	0000                	unimp
    1cda:	1150                	addi	a2,sp,164
    1cdc:	0000                	unimp
    1cde:	8034                	0x8034
    1ce0:	0015                	c.nop	5
    1ce2:	0080                	addi	s0,sp,64
    1ce4:	0000                	unimp
    1ce6:	dd00                	sw	s0,56(a0)
    1ce8:	000d                	c.nop	3
    1cea:	3500                	fld	fs0,40(a0)
    1cec:	5a01                	li	s4,-32
    1cee:	0309                	addi	t1,t1,2
    1cf0:	16e0                	addi	s0,sp,876
    1cf2:	8000                	0x8000
    1cf4:	0000                	unimp
    1cf6:	0000                	unimp
    1cf8:	0000                	unimp
    1cfa:	6245                	lui	tp,0x11
    1cfc:	0015                	c.nop	5
    1cfe:	0080                	addi	s0,sp,64
    1d00:	0000                	unimp
    1d02:	3a00                	fld	fs0,48(a2)
    1d04:	0014                	0x14
    1d06:	b100                	fsd	fs0,32(a0)
    1d08:	35000013          	li	zero,848
    1d0c:	5a01                	li	s4,-32
    1d0e:	3001                	0x3001
    1d10:	0135                	addi	sp,sp,13
    1d12:	0030015b          	0x30015b
    1d16:	a234                	fsd	fa3,64(a2)
    1d18:	0015                	c.nop	5
    1d1a:	0080                	addi	s0,sp,64
    1d1c:	0000                	unimp
    1d1e:	b400                	fsd	fs0,40(s0)
    1d20:	0016                	c.slli	zero,0x5
    1d22:	3500                	fld	fs0,40(a0)
    1d24:	5a01                	li	s4,-32
    1d26:	7902                	ld	s2,32(sp)
    1d28:	0000                	unimp
    1d2a:	0a00                	addi	s0,sp,272
    1d2c:	0604                	addi	s1,sp,768
    1d2e:	0000                	unimp
    1d30:	13d6                	slli	t2,t2,0x35
    1d32:	0000                	unimp
    1d34:	00006a0b          	0x6a0b
    1d38:	3f00                	fld	fs0,56(a4)
    1d3a:	2900                	fld	fs0,16(a0)
    1d3c:	050e                	slli	a0,a0,0x3
    1d3e:	0000                	unimp
    1d40:	dc0a                	sw	sp,56(sp)
    1d42:	4905                	li	s2,1
    1d44:	0000                	unimp
    1d46:	0200                	addi	s0,sp,256
    1d48:	0011                	c.nop	4
    1d4a:	0080                	addi	s0,sp,64
    1d4c:	0000                	unimp
    1d4e:	4a00                	lw	s0,16(a2)
    1d50:	0000                	unimp
    1d52:	0000                	unimp
    1d54:	0000                	unimp
    1d56:	0100                	addi	s0,sp,128
    1d58:	3a9c                	fld	fa5,48(a3)
    1d5a:	0014                	0x14
    1d5c:	3800                	fld	fs0,48(s0)
    1d5e:	01006863          	bltu	zero,a6,1d6e <_tbss_end+0x1d2a>
    1d62:	1185                	addi	gp,gp,-31
    1d64:	0049                	c.nop	18
    1d66:	0000                	unimp
    1d68:	00001187          	0x1187
    1d6c:	624e                	ld	tp,208(sp)
    1d6e:	6675                	lui	a2,0x1d
    1d70:	0100                	addi	s0,sp,128
    1d72:	13c61887          	0x13c61887
    1d76:	0000                	unimp
    1d78:	4b40                	lw	s0,20(a4)
    1d7a:	0000059b          	sext.w	a1,zero
    1d7e:	8801                	andi	s0,s0,0
    1d80:	00004917          	auipc	s2,0x4
    1d84:	3400                	fld	fs0,40(s0)
    1d86:	1140                	addi	s0,sp,164
    1d88:	8000                	0x8000
    1d8a:	0000                	unimp
    1d8c:	0000                	unimp
    1d8e:	00001713          	slli	a4,zero,0x0
    1d92:	0135                	addi	sp,sp,13
    1d94:	025a                	slli	tp,tp,0x16
    1d96:	4008                	lw	a0,0(s0)
    1d98:	0135                	addi	sp,sp,13
    1d9a:	0031015b          	0x31015b
    1d9e:	2900                	fld	fs0,16(a0)
    1da0:	04d0                	addi	a2,sp,580
    1da2:	0000                	unimp
    1da4:	6c01                	0x6c01
    1da6:	0000491b          	0x491b
    1daa:	7000                	ld	s0,32(s0)
    1dac:	0012                	c.slli	zero,0x4
    1dae:	0080                	addi	s0,sp,64
    1db0:	0000                	unimp
    1db2:	1800                	addi	s0,sp,48
    1db4:	0000                	unimp
    1db6:	0000                	unimp
    1db8:	0000                	unimp
    1dba:	0100                	addi	s0,sp,128
    1dbc:	989c                	0x989c
    1dbe:	0014                	0x14
    1dc0:	3700                	fld	fs0,40(a4)
    1dc2:	05ff                	0x5ff
    1dc4:	0000                	unimp
    1dc6:	6c01                	0x6c01
    1dc8:	4924                	lw	s1,80(a0)
    1dca:	0000                	unimp
    1dcc:	e900                	sd	s0,16(a0)
    1dce:	0011                	c.nop	4
    1dd0:	3700                	fld	fs0,40(a4)
    1dd2:	060a                	slli	a2,a2,0x2
    1dd4:	0000                	unimp
    1dd6:	6c01                	0x6c01
    1dd8:	d731                	beqz	a4,1d24 <_tbss_end+0x1ce0>
    1dda:	000d                	c.nop	3
    1ddc:	2200                	fld	fs0,0(a2)
    1dde:	0012                	c.slli	zero,0x4
    1de0:	3400                	fld	fs0,40(s0)
    1de2:	1280                	addi	s0,sp,352
    1de4:	8000                	0x8000
    1de6:	0000                	unimp
    1de8:	0000                	unimp
    1dea:	14d2                	slli	s1,s1,0x34
    1dec:	0000                	unimp
    1dee:	0135                	addi	sp,sp,13
    1df0:	095a                	slli	s2,s2,0x16
    1df2:	00168803          	lb	a6,1(a3)
    1df6:	0080                	addi	s0,sp,64
    1df8:	0000                	unimp
    1dfa:	0000                	unimp
    1dfc:	4c00                	lw	s0,24(s0)
    1dfe:	0530                	addi	a2,sp,648
    1e00:	0000                	unimp
    1e02:	6501                	0x6501
    1e04:	ba1c                	fsd	fa5,48(a2)
    1e06:	0011                	c.nop	4
    1e08:	0080                	addi	s0,sp,64
    1e0a:	0000                	unimp
    1e0c:	0400                	addi	s0,sp,512
    1e0e:	0000                	unimp
    1e10:	0000                	unimp
    1e12:	0000                	unimp
    1e14:	0100                	addi	s0,sp,128
    1e16:	d29c                	sw	a5,32(a3)
    1e18:	0014                	0x14
    1e1a:	4f00                	lw	s0,24(a4)
    1e1c:	00646963          	bltu	s0,t1,1e2e <_tbss_end+0x1dea>
    1e20:	6501                	0x6501
    1e22:	492d                	li	s2,11
    1e24:	0000                	unimp
    1e26:	0100                	addi	s0,sp,128
    1e28:	4f5a                	lw	t5,148(sp)
    1e2a:	636e                	ld	t1,216(sp)
    1e2c:	0100                	addi	s0,sp,128
    1e2e:	3665                	addiw	a2,a2,-7
    1e30:	0049                	c.nop	18
    1e32:	0000                	unimp
    1e34:	5b01                	li	s6,-32
    1e36:	4c00                	lw	s0,24(s0)
    1e38:	0000051b          	sext.w	a0,zero
    1e3c:	6001                	0x6001
    1e3e:	4e06                	lw	t3,64(sp)
    1e40:	0012                	c.slli	zero,0x4
    1e42:	0080                	addi	s0,sp,64
    1e44:	0000                	unimp
    1e46:	2200                	fld	fs0,0(a2)
    1e48:	0000                	unimp
    1e4a:	0000                	unimp
    1e4c:	0000                	unimp
    1e4e:	0100                	addi	s0,sp,128
    1e50:	369c                	fld	fa5,40(a3)
    1e52:	0015                	c.nop	5
    1e54:	3800                	fld	fs0,48(s0)
    1e56:	60010073          	0x60010073
    1e5a:	0006341b          	0x6341b
    1e5e:	5b00                	lw	s0,48(a4)
    1e60:	0012                	c.slli	zero,0x4
    1e62:	4500                	lw	s0,8(a0)
    1e64:	125a                	slli	tp,tp,0x36
    1e66:	8000                	0x8000
    1e68:	0000                	unimp
    1e6a:	0000                	unimp
    1e6c:	0b3c                	addi	a5,sp,408
    1e6e:	0000                	unimp
    1e70:	1516                	slli	a0,a0,0x25
    1e72:	0000                	unimp
    1e74:	0135                	addi	sp,sp,13
    1e76:	025a                	slli	tp,tp,0x16
    1e78:	0078                	addi	a4,sp,12
    1e7a:	3400                	fld	fs0,40(s0)
    1e7c:	1268                	addi	a0,sp,300
    1e7e:	8000                	0x8000
    1e80:	0000                	unimp
    1e82:	0000                	unimp
    1e84:	00001713          	slli	a4,zero,0x0
    1e88:	0135                	addi	sp,sp,13
    1e8a:	025a                	slli	tp,tp,0x16
    1e8c:	4008                	lw	a0,0(s0)
    1e8e:	0135                	addi	sp,sp,13
    1e90:	3531015b          	0x3531015b
    1e94:	5c01                	li	s8,-32
    1e96:	7802                	ld	a6,32(sp)
    1e98:	0000                	unimp
    1e9a:	5000                	lw	s0,32(s0)
    1e9c:	0554                	addi	a3,sp,644
    1e9e:	0000                	unimp
    1ea0:	5b01                	li	s6,-32
    1ea2:	b206                	fsd	ft1,288(sp)
    1ea4:	0011                	c.nop	4
    1ea6:	0080                	addi	s0,sp,64
    1ea8:	0000                	unimp
    1eaa:	0800                	addi	s0,sp,16
    1eac:	0000                	unimp
    1eae:	0000                	unimp
    1eb0:	0000                	unimp
    1eb2:	0100                	addi	s0,sp,128
    1eb4:	629c                	ld	a5,0(a3)
    1eb6:	0015                	c.nop	5
    1eb8:	5100                	lw	s0,32(a0)
    1eba:	11ba                	slli	gp,gp,0x2e
    1ebc:	8000                	0x8000
    1ebe:	0000                	unimp
    1ec0:	0000                	unimp
    1ec2:	16b4                	addi	a3,sp,872
    1ec4:	0000                	unimp
    1ec6:	2900                	fld	fs0,16(a0)
    1ec8:	0524                	addi	s1,sp,648
    1eca:	0000                	unimp
    1ecc:	5501                	li	a0,-32
    1ece:	8e21                	xor	a2,a2,s0
    1ed0:	0000                	unimp
    1ed2:	3a00                	fld	fs0,48(a2)
    1ed4:	0015                	c.nop	5
    1ed6:	0080                	addi	s0,sp,64
    1ed8:	0000                	unimp
    1eda:	1800                	addi	s0,sp,48
    1edc:	0000                	unimp
    1ede:	0000                	unimp
    1ee0:	0000                	unimp
    1ee2:	0100                	addi	s0,sp,128
    1ee4:	ef9c                	sd	a5,24(a5)
    1ee6:	0015                	c.nop	5
    1ee8:	3700                	fld	fs0,40(a4)
    1eea:	04e6                	slli	s1,s1,0x19
    1eec:	0000                	unimp
    1eee:	5501                	li	a0,-32
    1ef0:	00008e37          	lui	t3,0x8
    1ef4:	a700                	fsd	fs0,8(a4)
    1ef6:	0012                	c.slli	zero,0x4
    1ef8:	3800                	fld	fs0,48(s0)
    1efa:	7065                	c.lui	zero,0xffff9
    1efc:	55010063          	beq	sp,a6,243c <_tbss_end+0x23f8>
    1f00:	8e48                	0x8e48
    1f02:	0000                	unimp
    1f04:	f300                	sd	s0,32(a4)
    1f06:	0012                	c.slli	zero,0x4
    1f08:	3700                	fld	fs0,40(a4)
    1f0a:	0516                	slli	a0,a0,0x5
    1f0c:	0000                	unimp
    1f0e:	5501                	li	a0,-32
    1f10:	000c2657          	0xc2657
    1f14:	3f00                	fld	fs0,56(a4)
    1f16:	45000013          	li	zero,1104
    1f1a:	154e                	slli	a0,a0,0x33
    1f1c:	8000                	0x8000
    1f1e:	0000                	unimp
    1f20:	0000                	unimp
    1f22:	0ddd                	addi	s11,s11,23
    1f24:	0000                	unimp
    1f26:	15e1                	addi	a1,a1,-8
    1f28:	0000                	unimp
    1f2a:	0135                	addi	sp,sp,13
    1f2c:	095a                	slli	s2,s2,0x16
    1f2e:	0016a803          	lw	a6,1(a3)
    1f32:	0080                	addi	s0,sp,64
    1f34:	0000                	unimp
    1f36:	3500                	fld	fs0,40(a0)
    1f38:	5b01                	li	s6,-32
    1f3a:	5a01f303          	0x5a01f303
    1f3e:	0135                	addi	sp,sp,13
    1f40:	035c                	addi	a5,sp,388
    1f42:	005b01f3          	0x5b01f3
    1f46:	5251                	li	tp,-12
    1f48:	0015                	c.nop	5
    1f4a:	0080                	addi	s0,sp,64
    1f4c:	0000                	unimp
    1f4e:	b400                	fsd	fs0,40(s0)
    1f50:	0016                	c.slli	zero,0x5
    1f52:	0000                	unimp
    1f54:	c24c                	sw	a1,4(a2)
    1f56:	0006                	c.slli	zero,0x1
    1f58:	0100                	addi	s0,sp,128
    1f5a:	0645                	addi	a2,a2,17
    1f5c:	1168                	addi	a0,sp,172
    1f5e:	8000                	0x8000
    1f60:	0000                	unimp
    1f62:	0000                	unimp
    1f64:	004a                	c.slli	zero,0x12
    1f66:	0000                	unimp
    1f68:	0000                	unimp
    1f6a:	0000                	unimp
    1f6c:	9c01                	subw	s0,s0,s0
    1f6e:	16b4                	addi	a3,sp,872
    1f70:	0000                	unimp
    1f72:	00054d47          	fmsub.s	fs10,fa0,ft0,ft0,rmm
    1f76:	0100                	addi	s0,sp,128
    1f78:	1345                	addi	t1,t1,-15
    1f7a:	0049                	c.nop	18
    1f7c:	0000                	unimp
    1f7e:	5a01                	li	s4,-32
    1f80:	6939                	lui	s2,0xe
    1f82:	0100                	addi	s0,sp,128
    1f84:	00490747          	fmsub.s	fa4,fs2,ft4,ft0,rne
    1f88:	0000                	unimp
    1f8a:	1378                	addi	a4,sp,428
    1f8c:	0000                	unimp
    1f8e:	682e                	ld	a6,200(sp)
    1f90:	0011                	c.nop	4
    1f92:	0080                	addi	s0,sp,64
    1f94:	0000                	unimp
    1f96:	2400                	fld	fs0,8(s0)
    1f98:	0000                	unimp
    1f9a:	0000                	unimp
    1f9c:	0000                	unimp
    1f9e:	7100                	ld	s0,32(a0)
    1fa0:	0016                	c.slli	zero,0x5
    1fa2:	3900                	fld	fs0,48(a0)
    1fa4:	00727363          	bgeu	tp,t2,1faa <_tbss_end+0x1f66>
    1fa8:	4f01                	li	t5,0
    1faa:	00008e03          	lb	t3,0(ra)
    1fae:	c400                	sw	s0,8(s0)
    1fb0:	2f000013          	li	zero,752
    1fb4:	1168                	addi	a0,sp,172
    1fb6:	8000                	0x8000
    1fb8:	0000                	unimp
    1fba:	0000                	unimp
    1fbc:	0004                	0x4
    1fbe:	0000                	unimp
    1fc0:	0000                	unimp
    1fc2:	0000                	unimp
    1fc4:	a53a                	fsd	fa4,136(sp)
    1fc6:	0006                	c.slli	zero,0x1
    1fc8:	0100                	addi	s0,sp,128
    1fca:	006a034f          	fnmadd.s	ft6,fs4,ft6,ft0,rne
    1fce:	0000                	unimp
    1fd0:	1402                	slli	s0,s0,0x20
    1fd2:	0000                	unimp
    1fd4:	0000                	unimp
    1fd6:	00118c2f          	0x118c2f
    1fda:	0080                	addi	s0,sp,64
    1fdc:	0000                	unimp
    1fde:	2400                	fld	fs0,8(s0)
    1fe0:	0000                	unimp
    1fe2:	0000                	unimp
    1fe4:	0000                	unimp
    1fe6:	4d00                	lw	s0,24(a0)
    1fe8:	00727363          	bgeu	tp,t2,1fee <_tbss_end+0x1faa>
    1fec:	5001                	c.li	zero,-32
    1fee:	00008e03          	lb	t3,0(ra)
    1ff2:	0100                	addi	s0,sp,128
    1ff4:	2f5f 118c 8000      	0x8000118c2f5f
    1ffa:	0000                	unimp
    1ffc:	0000                	unimp
    1ffe:	0004                	0x4
    2000:	0000                	unimp
    2002:	0000                	unimp
    2004:	0000                	unimp
    2006:	a53a                	fsd	fa4,136(sp)
    2008:	0006                	c.slli	zero,0x1
    200a:	0100                	addi	s0,sp,128
    200c:	0350                	addi	a2,sp,388
    200e:	006a                	c.slli	zero,0x1a
    2010:	0000                	unimp
    2012:	1425                	addi	s0,s0,-23
    2014:	0000                	unimp
    2016:	0000                	unimp
    2018:	5000                	lw	s0,32(s0)
    201a:	0690                	addi	a2,sp,832
    201c:	0000                	unimp
    201e:	2e01                	sext.w	t3,t3
    2020:	5e06                	lw	t3,96(sp)
    2022:	0011                	c.nop	4
    2024:	0080                	addi	s0,sp,64
    2026:	0000                	unimp
    2028:	0a00                	addi	s0,sp,272
    202a:	0000                	unimp
    202c:	0000                	unimp
    202e:	0000                	unimp
    2030:	0100                	addi	s0,sp,128
    2032:	e69c                	sd	a5,8(a3)
    2034:	0016                	c.slli	zero,0x5
    2036:	3400                	fld	fs0,40(s0)
    2038:	1168                	addi	a0,sp,172
    203a:	8000                	0x8000
    203c:	0000                	unimp
    203e:	0000                	unimp
    2040:	16e6                	slli	a3,a3,0x39
    2042:	0000                	unimp
    2044:	0135                	addi	sp,sp,13
    2046:	015a                	slli	sp,sp,0x16
    2048:	0030                	addi	a2,sp,8
    204a:	5200                	lw	s0,32(a2)
    204c:	0689                	addi	a3,a3,2
    204e:	0000                	unimp
    2050:	2801                	sext.w	a6,a6
    2052:	4c20                	lw	s0,88(s0)
    2054:	0011                	c.nop	4
    2056:	0080                	addi	s0,sp,64
    2058:	0000                	unimp
    205a:	1200                	addi	s0,sp,288
    205c:	0000                	unimp
    205e:	0000                	unimp
    2060:	0000                	unimp
    2062:	0100                	addi	s0,sp,128
    2064:	139c                	addi	a5,sp,480
    2066:	47000017          	auipc	zero,0x47000
    206a:	058d                	addi	a1,a1,3
    206c:	0000                	unimp
    206e:	2801                	sext.w	a6,a6
    2070:	8e36                	mv	t3,a3
    2072:	0000                	unimp
    2074:	0100                	addi	s0,sp,128
    2076:	005a                	c.slli	zero,0x16
    2078:	d946                	sw	a7,176(sp)
    207a:	0005                	c.nop	1
    207c:	0100                	addi	s0,sp,128
    207e:	1216                	slli	tp,tp,0x25
    2080:	008e                	slli	ra,ra,0x3
    2082:	0000                	unimp
    2084:	10c8                	addi	a0,sp,100
    2086:	8000                	0x8000
    2088:	0000                	unimp
    208a:	0000                	unimp
    208c:	003a                	c.slli	zero,0xe
    208e:	0000                	unimp
    2090:	0000                	unimp
    2092:	0000                	unimp
    2094:	9c01                	subw	s0,s0,s0
    2096:	1780                	addi	s0,sp,992
    2098:	0000                	unimp
    209a:	00060437          	lui	s0,0x60
    209e:	0100                	addi	s0,sp,128
    20a0:	2416                	fld	fs0,320(sp)
    20a2:	008e                	slli	ra,ra,0x3
    20a4:	0000                	unimp
    20a6:	1448                	addi	a0,sp,548
    20a8:	0000                	unimp
    20aa:	0005c447          	fmsub.s	fs0,fa1,ft0,ft0,rmm
    20ae:	0100                	addi	s0,sp,128
    20b0:	3416                	fld	fs0,352(sp)
    20b2:	007d                	c.nop	31
    20b4:	0000                	unimp
    20b6:	5b01                	li	s6,-32
    20b8:	0005c947          	fmsub.s	fs2,fa1,ft0,ft0,rmm
    20bc:	0100                	addi	s0,sp,128
    20be:	4316                	lw	t1,68(sp)
    20c0:	007d                	c.nop	31
    20c2:	0000                	unimp
    20c4:	5c01                	li	s8,-32
    20c6:	0005ce47          	fmsub.s	ft8,fa1,ft0,ft0,rmm
    20ca:	0100                	addi	s0,sp,128
    20cc:	5216                	lw	tp,100(sp)
    20ce:	007d                	c.nop	31
    20d0:	0000                	unimp
    20d2:	5d01                	li	s10,-32
    20d4:	00067f53          	fadd.s	ft10,fa2,ft0
    20d8:	0100                	addi	s0,sp,128
    20da:	1518                	addi	a4,sp,672
    20dc:	1790                	addi	a2,sp,992
    20de:	0000                	unimp
    20e0:	0240                	addi	s0,sp,260
    20e2:	007e                	c.slli	zero,0x1f
    20e4:	0a00                	addi	s0,sp,272
    20e6:	0089                	addi	ra,ra,2
    20e8:	0000                	unimp
    20ea:	1790                	addi	a2,sp,992
    20ec:	0000                	unimp
    20ee:	00006a0b          	0x6a0b
    20f2:	0700                	addi	s0,sp,896
    20f4:	0500                	addi	s0,sp,640
    20f6:	1780                	addi	s0,sp,992
    20f8:	0000                	unimp
    20fa:	2a00                	fld	fs0,16(a2)
    20fc:	0000                	unimp
    20fe:	0200                	addi	s0,sp,256
    2100:	e500                	sd	s0,8(a0)
    2102:	0006                	c.slli	zero,0x1
    2104:	0800                	addi	s0,sp,16
    2106:	1001                	c.nop	-32
    2108:	0014                	0x14
    210a:	0000                	unimp
    210c:	0000                	unimp
    210e:	0080                	addi	s0,sp,64
    2110:	0000                	unimp
    2112:	fc00                	sd	s0,56(s0)
    2114:	0000                	unimp
    2116:	0080                	addi	s0,sp,64
    2118:	0000                	unimp
    211a:	da00                	sw	s0,48(a2)
    211c:	0006                	c.slli	zero,0x1
    211e:	cc00                	sw	s0,24(s0)
    2120:	0002                	c.slli64	zero
    2122:	e900                	sd	s0,16(a0)
    2124:	0006                	c.slli	zero,0x1
    2126:	0100                	addi	s0,sp,128
    2128:	80              	Address 0x0000000000002128 is out of bounds.


Disassembly of section .debug_abbrev:

0000000000000000 <.debug_abbrev>:
   0:	1101                	addi	sp,sp,-32
   2:	2501                	sext.w	a0,a0
   4:	130e                	slli	t1,t1,0x23
   6:	1b0e030b          	0x1b0e030b
   a:	110e                	slli	sp,sp,0x23
   c:	1201                	addi	tp,tp,-32
   e:	00171007          	0x171007
  12:	0200                	addi	s0,sp,256
  14:	0024                	addi	s1,sp,8
  16:	0b3e0b0b          	0xb3e0b0b
  1a:	00000e03          	lb	t3,0(zero) # 0 <_tdata_begin>
  1e:	0b002403          	lw	s0,176(zero) # b0 <_tbss_end+0x6c>
  22:	030b3e0b          	0x30b3e0b
  26:	0008                	0x8
  28:	0400                	addi	s0,sp,512
  2a:	0016                	c.slli	zero,0x5
  2c:	0b3a0e03          	lb	t3,179(s4)
  30:	0b39053b          	0xb39053b
  34:	1349                	addi	t1,t1,-14
  36:	0000                	unimp
  38:	1605                	addi	a2,a2,-31
  3a:	0300                	addi	s0,sp,384
  3c:	3a0e                	fld	fs4,224(sp)
  3e:	390b3b0b          	0x390b3b0b
  42:	0013490b          	0x13490b
  46:	0600                	addi	s0,sp,768
  48:	0b0b0117          	auipc	sp,0xb0b0
  4c:	0b3a                	slli	s6,s6,0xe
  4e:	0b390b3b          	0xb390b3b
  52:	1301                	addi	t1,t1,-32
  54:	0000                	unimp
  56:	03000d07          	0x3000d07
  5a:	3a0e                	fld	fs4,224(sp)
  5c:	390b3b0b          	0x390b3b0b
  60:	0013490b          	0x13490b
  64:	0800                	addi	s0,sp,16
  66:	0101                	addi	sp,sp,0
  68:	1349                	addi	t1,t1,-14
  6a:	1301                	addi	t1,t1,-32
  6c:	0000                	unimp
  6e:	2109                	addiw	sp,sp,2
  70:	4900                	lw	s0,16(a0)
  72:	000b2f13          	slti	t5,s6,0
  76:	0a00                	addi	s0,sp,272
  78:	0b0b0113          	addi	sp,s6,176
  7c:	0b3a                	slli	s6,s6,0xe
  7e:	0b390b3b          	0xb390b3b
  82:	1301                	addi	t1,t1,-32
  84:	0000                	unimp
  86:	03000d0b          	0x3000d0b
  8a:	3a0e                	fld	fs4,224(sp)
  8c:	390b3b0b          	0x390b3b0b
  90:	3813490b          	0x3813490b
  94:	0c00000b          	0xc00000b
  98:	0b0b000f          	0xb0b000f
  9c:	0000                	unimp
  9e:	130d                	addi	t1,t1,-29
  a0:	0301                	addi	t1,t1,0
  a2:	0b0e                	slli	s6,s6,0x3
  a4:	3b0b3a0b          	0x3b0b3a0b
  a8:	010b390b          	0x10b390b
  ac:	0e000013          	li	zero,224
  b0:	000d                	c.nop	3
  b2:	0b3a0803          	lb	a6,179(s4)
  b6:	0b390b3b          	0xb390b3b
  ba:	1349                	addi	t1,t1,-14
  bc:	0b38                	addi	a4,sp,408
  be:	0000                	unimp
  c0:	0b000f0f          	0xb000f0f
  c4:	0013490b          	0x13490b
  c8:	1000                	addi	s0,sp,32
  ca:	0e030113          	addi	sp,t1,224 # ffffffffffff30e0 <__global_pointer$+0xffffffff7fff109c>
  ce:	0b3a050b          	0xb3a050b
  d2:	0b390b3b          	0xb390b3b
  d6:	1301                	addi	t1,t1,-32
  d8:	0000                	unimp
  da:	0d11                	addi	s10,s10,4
  dc:	0300                	addi	s0,sp,384
  de:	3a0e                	fld	fs4,224(sp)
  e0:	390b3b0b          	0x390b3b0b
  e4:	3813490b          	0x3813490b
  e8:	0005                	c.nop	1
  ea:	1200                	addi	s0,sp,288
  ec:	0015                	c.nop	5
  ee:	00001927          	0x1927
  f2:	27011513          	0x27011513
  f6:	4919                	li	s2,6
  f8:	00130113          	addi	sp,t1,1
  fc:	1400                	addi	s0,sp,544
  fe:	0005                	c.nop	1
 100:	1349                	addi	t1,t1,-14
 102:	0000                	unimp
 104:	2615                	addiw	a2,a2,5
 106:	4900                	lw	s0,16(a0)
 108:	16000013          	li	zero,352
 10c:	0e030113          	addi	sp,t1,224
 110:	0b3a050b          	0xb3a050b
 114:	0b39053b          	0xb39053b
 118:	1301                	addi	t1,t1,-32
 11a:	0000                	unimp
 11c:	03000d17          	auipc	s10,0x3000
 120:	3a0e                	fld	fs4,224(sp)
 122:	39053b0b          	0x39053b0b
 126:	3813490b          	0x3813490b
 12a:	1800000b          	0x1800000b
 12e:	000d                	c.nop	3
 130:	0b3a0e03          	lb	t3,179(s4)
 134:	0b39053b          	0xb39053b
 138:	1349                	addi	t1,t1,-14
 13a:	0538                	addi	a4,sp,648
 13c:	0000                	unimp
 13e:	1319                	addi	t1,t1,-26
 140:	0301                	addi	t1,t1,0
 142:	0b0e                	slli	s6,s6,0x3
 144:	3b0b3a0b          	0x3b0b3a0b
 148:	3905                	addiw	s2,s2,-31
 14a:	0013010b          	0x13010b
 14e:	1a00                	addi	s0,sp,304
 150:	0b0b0113          	addi	sp,s6,176
 154:	0b3a                	slli	s6,s6,0xe
 156:	0b39053b          	0xb39053b
 15a:	1301                	addi	t1,t1,-32
 15c:	0000                	unimp
 15e:	0b01131b          	0xb01131b
 162:	3a05                	addiw	s4,s4,-31
 164:	39053b0b          	0x39053b0b
 168:	0013010b          	0x13010b
 16c:	1c00                	addi	s0,sp,560
 16e:	050b0117          	auipc	sp,0x50b0
 172:	0b3a                	slli	s6,s6,0xe
 174:	0b39053b          	0xb39053b
 178:	1301                	addi	t1,t1,-32
 17a:	0000                	unimp
 17c:	0d1d                	addi	s10,s10,7
 17e:	0300                	addi	s0,sp,384
 180:	3a0e                	fld	fs4,224(sp)
 182:	39053b0b          	0x39053b0b
 186:	0013490b          	0x13490b
 18a:	1e00                	addi	s0,sp,816
 18c:	0e030013          	addi	zero,t1,224
 190:	193c                	addi	a5,sp,184
 192:	0000                	unimp
 194:	151f 2701 0119      	0x1192701151f
 19a:	20000013          	li	zero,512
 19e:	0034                	addi	a3,sp,8
 1a0:	0b3a0e03          	lb	t3,179(s4)
 1a4:	0b39053b          	0xb39053b
 1a8:	1349                	addi	t1,t1,-14
 1aa:	193c193f 2e210000 	0x2e210000193c193f
 1b2:	3f01                	addiw	t5,t5,-32
 1b4:	0319                	addi	t1,t1,6
 1b6:	3a0e                	fld	fs4,224(sp)
 1b8:	390b3b0b          	0x390b3b0b
 1bc:	1113490b          	0x1113490b
 1c0:	1201                	addi	tp,tp,-32
 1c2:	97184007          	flq	ft0,-1679(a6) # 5e971 <_tbss_end+0x5e92d>
 1c6:	1942                	slli	s2,s2,0x30
 1c8:	1301                	addi	t1,t1,-32
 1ca:	0000                	unimp
 1cc:	8922                	mv	s2,s0
 1ce:	0182                	c.slli64	gp
 1d0:	1101                	addi	sp,sp,-32
 1d2:	3101                	addiw	sp,sp,-32
 1d4:	23000013          	li	zero,560
 1d8:	828a                	mv	t0,sp
 1da:	0001                	nop
 1dc:	1802                	slli	a6,a6,0x20
 1de:	4291                	li	t0,4
 1e0:	0018                	0x18
 1e2:	2400                	fld	fs0,8(s0)
 1e4:	002e                	c.slli	zero,0xb
 1e6:	193c193f 0e030e6e 	0xe030e6e193c193f
 1ee:	0b3a                	slli	s6,s6,0xe
 1f0:	0b390b3b          	0xb390b3b
 1f4:	0000                	unimp
 1f6:	0100                	addi	s0,sp,128
 1f8:	0111                	addi	sp,sp,4
 1fa:	0e25                	addi	t3,t3,9
 1fc:	0e030b13          	addi	s6,t1,224
 200:	01110e1b          	addiw	t3,sp,17
 204:	0712                	slli	a4,a4,0x4
 206:	1710                	addi	a2,sp,928
 208:	0000                	unimp
 20a:	2402                	fld	fs0,0(sp)
 20c:	0b00                	addi	s0,sp,400
 20e:	030b3e0b          	0x30b3e0b
 212:	000e                	c.slli	zero,0x3
 214:	0300                	addi	s0,sp,384
 216:	0024                	addi	s1,sp,8
 218:	0b3e0b0b          	0xb3e0b0b
 21c:	00000803          	lb	a6,0(zero) # 0 <_tdata_begin>
 220:	1604                	addi	s1,sp,800
 222:	0300                	addi	s0,sp,384
 224:	3a0e                	fld	fs4,224(sp)
 226:	390b3b0b          	0x390b3b0b
 22a:	0013490b          	0x13490b
 22e:	0500                	addi	s0,sp,640
 230:	0035                	c.nop	13
 232:	1349                	addi	t1,t1,-14
 234:	0000                	unimp
 236:	2606                	fld	fa2,64(sp)
 238:	4900                	lw	s0,16(a0)
 23a:	07000013          	li	zero,112
 23e:	0016                	c.slli	zero,0x5
 240:	0b3a0e03          	lb	t3,179(s4)
 244:	0b39053b          	0xb39053b
 248:	1349                	addi	t1,t1,-14
 24a:	0000                	unimp
 24c:	1708                	addi	a0,sp,928
 24e:	0b01                	addi	s6,s6,0
 250:	3b0b3a0b          	0x3b0b3a0b
 254:	010b390b          	0x10b390b
 258:	09000013          	li	zero,144
 25c:	000d                	c.nop	3
 25e:	0b3a0e03          	lb	t3,179(s4)
 262:	0b390b3b          	0xb390b3b
 266:	1349                	addi	t1,t1,-14
 268:	0000                	unimp
 26a:	010a                	slli	sp,sp,0x2
 26c:	4901                	li	s2,0
 26e:	00130113          	addi	sp,t1,1
 272:	0b00                	addi	s0,sp,400
 274:	0021                	c.nop	8
 276:	1349                	addi	t1,t1,-14
 278:	00000b2f          	0xb2f
 27c:	130c                	addi	a1,sp,416
 27e:	0b01                	addi	s6,s6,0
 280:	3b0b3a0b          	0x3b0b3a0b
 284:	010b390b          	0x10b390b
 288:	0d000013          	li	zero,208
 28c:	000d                	c.nop	3
 28e:	0b3a0e03          	lb	t3,179(s4)
 292:	0b390b3b          	0xb390b3b
 296:	1349                	addi	t1,t1,-14
 298:	0b38                	addi	a4,sp,408
 29a:	0000                	unimp
 29c:	0f0e                	slli	t5,t5,0x3
 29e:	0b00                	addi	s0,sp,400
 2a0:	0f00000b          	0xf00000b
 2a4:	0b0b000f          	0xb0b000f
 2a8:	00000e03          	lb	t3,0(zero) # 0 <_tdata_begin>
 2ac:	1310                	addi	a2,sp,416
 2ae:	0301                	addi	t1,t1,0
 2b0:	0b0e                	slli	s6,s6,0x3
 2b2:	3b0b3a0b          	0x3b0b3a0b
 2b6:	010b390b          	0x10b390b
 2ba:	11000013          	li	zero,272
 2be:	000d                	c.nop	3
 2c0:	0b3a0803          	lb	a6,179(s4)
 2c4:	0b390b3b          	0xb390b3b
 2c8:	1349                	addi	t1,t1,-14
 2ca:	0b38                	addi	a4,sp,408
 2cc:	0000                	unimp
 2ce:	0f12                	slli	t5,t5,0x4
 2d0:	0b00                	addi	s0,sp,400
 2d2:	0013490b          	0x13490b
 2d6:	1300                	addi	s0,sp,416
 2d8:	0e030113          	addi	sp,t1,224
 2dc:	0b3a050b          	0xb3a050b
 2e0:	0b390b3b          	0xb390b3b
 2e4:	1301                	addi	t1,t1,-32
 2e6:	0000                	unimp
 2e8:	0d14                	addi	a3,sp,656
 2ea:	0300                	addi	s0,sp,384
 2ec:	3a0e                	fld	fs4,224(sp)
 2ee:	390b3b0b          	0x390b3b0b
 2f2:	3813490b          	0x3813490b
 2f6:	0005                	c.nop	1
 2f8:	1500                	addi	s0,sp,672
 2fa:	0015                	c.nop	5
 2fc:	00001927          	0x1927
 300:	1516                	slli	a0,a0,0x25
 302:	2701                	sext.w	a4,a4
 304:	4919                	li	s2,6
 306:	00130113          	addi	sp,t1,1
 30a:	1700                	addi	s0,sp,928
 30c:	0005                	c.nop	1
 30e:	1349                	addi	t1,t1,-14
 310:	0000                	unimp
 312:	1318                	addi	a4,sp,416
 314:	0301                	addi	t1,t1,0
 316:	0b0e                	slli	s6,s6,0x3
 318:	3a05                	addiw	s4,s4,-31
 31a:	39053b0b          	0x39053b0b
 31e:	0013010b          	0x13010b
 322:	1900                	addi	s0,sp,176
 324:	000d                	c.nop	3
 326:	0b3a0e03          	lb	t3,179(s4)
 32a:	0b39053b          	0xb39053b
 32e:	1349                	addi	t1,t1,-14
 330:	0b38                	addi	a4,sp,408
 332:	0000                	unimp
 334:	0d1a                	slli	s10,s10,0x6
 336:	0300                	addi	s0,sp,384
 338:	3a0e                	fld	fs4,224(sp)
 33a:	39053b0b          	0x39053b0b
 33e:	3813490b          	0x3813490b
 342:	0005                	c.nop	1
 344:	1b00                	addi	s0,sp,432
 346:	0e030113          	addi	sp,t1,224
 34a:	0b3a0b0b          	0xb3a0b0b
 34e:	0b39053b          	0xb39053b
 352:	1301                	addi	t1,t1,-32
 354:	0000                	unimp
 356:	131c                	addi	a5,sp,416
 358:	0b01                	addi	s6,s6,0
 35a:	3b0b3a0b          	0x3b0b3a0b
 35e:	3905                	addiw	s2,s2,-31
 360:	0013010b          	0x13010b
 364:	1d00                	addi	s0,sp,688
 366:	050b0113          	addi	sp,s6,80
 36a:	0b3a                	slli	s6,s6,0xe
 36c:	0b39053b          	0xb39053b
 370:	1301                	addi	t1,t1,-32
 372:	0000                	unimp
 374:	171e                	slli	a4,a4,0x27
 376:	0b01                	addi	s6,s6,0
 378:	3a05                	addiw	s4,s4,-31
 37a:	39053b0b          	0x39053b0b
 37e:	0013010b          	0x13010b
 382:	1f00                	addi	s0,sp,944
 384:	000d                	c.nop	3
 386:	0b3a0e03          	lb	t3,179(s4)
 38a:	0b39053b          	0xb39053b
 38e:	1349                	addi	t1,t1,-14
 390:	0000                	unimp
 392:	1320                	addi	s0,sp,424
 394:	0300                	addi	s0,sp,384
 396:	3c0e                	fld	fs8,224(sp)
 398:	0019                	c.nop	6
 39a:	2100                	fld	fs0,0(a0)
 39c:	0115                	addi	sp,sp,5
 39e:	13011927          	0x13011927
 3a2:	0000                	unimp
 3a4:	3422                	fld	fs0,40(sp)
 3a6:	0300                	addi	s0,sp,384
 3a8:	3a0e                	fld	fs4,224(sp)
 3aa:	39053b0b          	0x39053b0b
 3ae:	3f13490b          	0x3f13490b
 3b2:	3c19                	addiw	s8,s8,-26
 3b4:	0019                	c.nop	6
 3b6:	2300                	fld	fs0,0(a4)
 3b8:	0034                	addi	a3,sp,8
 3ba:	0b3a0e03          	lb	t3,179(s4)
 3be:	0b390b3b          	0xb390b3b
 3c2:	1349                	addi	t1,t1,-14
 3c4:	1802                	slli	a6,a6,0x20
 3c6:	0000                	unimp
 3c8:	3424                	fld	fs1,104(s0)
 3ca:	0300                	addi	s0,sp,384
 3cc:	3a0e                	fld	fs4,224(sp)
 3ce:	390b3b0b          	0x390b3b0b
 3d2:	3f13490b          	0x3f13490b
 3d6:	3c19                	addiw	s8,s8,-26
 3d8:	0019                	c.nop	6
 3da:	2500                	fld	fs0,8(a0)
 3dc:	012e                	slli	sp,sp,0xb
 3de:	0e03193f 053b0b3a 	0x53b0b3a0e03193f
 3e6:	0b39                	addi	s6,s6,14
 3e8:	13491927          	0x13491927
 3ec:	0111                	addi	sp,sp,4
 3ee:	0712                	slli	a4,a4,0x4
 3f0:	1840                	addi	s0,sp,52
 3f2:	01194297          	auipc	t0,0x1194
 3f6:	26000013          	li	zero,608
 3fa:	0005                	c.nop	1
 3fc:	0b3a0803          	lb	a6,179(s4)
 400:	0b39053b          	0xb39053b
 404:	1349                	addi	t1,t1,-14
 406:	1702                	slli	a4,a4,0x20
 408:	0000                	unimp
 40a:	03003427          	fsd	fa6,40(zero) # 28 <_tdata_begin+0x28>
 40e:	3a08                	fld	fa0,48(a2)
 410:	39053b0b          	0x39053b0b
 414:	0213490b          	0x213490b
 418:	28000017          	auipc	zero,0x28000
 41c:	0034                	addi	a3,sp,8
 41e:	0b3a0e03          	lb	t3,179(s4)
 422:	0b39053b          	0xb39053b
 426:	1349                	addi	t1,t1,-14
 428:	1702                	slli	a4,a4,0x20
 42a:	0000                	unimp
 42c:	2e29                	addiw	t3,t3,10
 42e:	3f01                	addiw	t5,t5,-32
 430:	0319                	addi	t1,t1,6
 432:	3a0e                	fld	fs4,224(sp)
 434:	390b3b0b          	0x390b3b0b
 438:	4919270b          	0x4919270b
 43c:	12011113          	0x12011113
 440:	97184007          	flq	ft0,-1679(a6)
 444:	1942                	slli	s2,s2,0x30
 446:	1301                	addi	t1,t1,-32
 448:	0000                	unimp
 44a:	052a                	slli	a0,a0,0xa
 44c:	0300                	addi	s0,sp,384
 44e:	3a0e                	fld	fs4,224(sp)
 450:	39053b0b          	0x39053b0b
 454:	0213490b          	0x213490b
 458:	0018                	0x18
 45a:	2b00                	fld	fs0,16(a4)
 45c:	0005                	c.nop	1
 45e:	0b3a0803          	lb	a6,179(s4)
 462:	0b39053b          	0xb39053b
 466:	1349                	addi	t1,t1,-14
 468:	1802                	slli	a6,a6,0x20
 46a:	0000                	unimp
 46c:	342c                	fld	fa1,104(s0)
 46e:	0300                	addi	s0,sp,384
 470:	3a08                	fld	fa0,48(a2)
 472:	39053b0b          	0x39053b0b
 476:	0213490b          	0x213490b
 47a:	0018                	0x18
 47c:	2d00                	fld	fs0,24(a0)
 47e:	0005                	c.nop	1
 480:	0b3a0e03          	lb	t3,179(s4)
 484:	0b39053b          	0xb39053b
 488:	1349                	addi	t1,t1,-14
 48a:	1702                	slli	a4,a4,0x20
 48c:	0000                	unimp
 48e:	0b2e                	slli	s6,s6,0xb
 490:	1101                	addi	sp,sp,-32
 492:	1201                	addi	tp,tp,-32
 494:	00130107          	0x130107
 498:	2f00                	fld	fs0,24(a4)
 49a:	0111010b          	0x111010b
 49e:	0712                	slli	a4,a4,0x4
 4a0:	0000                	unimp
 4a2:	2630                	fld	fa2,72(a2)
 4a4:	0000                	unimp
 4a6:	3100                	fld	fs0,32(a0)
 4a8:	0018                	0x18
 4aa:	0000                	unimp
 4ac:	2e32                	fld	ft8,264(sp)
 4ae:	0301                	addi	t1,t1,0
 4b0:	3a0e                	fld	fs4,224(sp)
 4b2:	39053b0b          	0x39053b0b
 4b6:	1119270b          	0x1119270b
 4ba:	1201                	addi	tp,tp,-32
 4bc:	97184007          	flq	ft0,-1679(a6)
 4c0:	1942                	slli	s2,s2,0x30
 4c2:	1301                	addi	t1,t1,-32
 4c4:	0000                	unimp
 4c6:	03003433          	mulhu	s0,zero,a6
 4ca:	3a0e                	fld	fs4,224(sp)
 4cc:	39053b0b          	0x39053b0b
 4d0:	0213490b          	0x213490b
 4d4:	0018                	0x18
 4d6:	3400                	fld	fs0,40(s0)
 4d8:	8289                	srli	a3,a3,0x2
 4da:	0101                	addi	sp,sp,0
 4dc:	0111                	addi	sp,sp,4
 4de:	1331                	addi	t1,t1,-20
 4e0:	0000                	unimp
 4e2:	8a35                	andi	a2,a2,13
 4e4:	0182                	c.slli64	gp
 4e6:	0200                	addi	s0,sp,256
 4e8:	9118                	0x9118
 4ea:	1842                	slli	a6,a6,0x30
 4ec:	0000                	unimp
 4ee:	2e36                	fld	ft8,328(sp)
 4f0:	0301                	addi	t1,t1,0
 4f2:	3a0e                	fld	fs4,224(sp)
 4f4:	390b3b0b          	0x390b3b0b
 4f8:	1119270b          	0x1119270b
 4fc:	1201                	addi	tp,tp,-32
 4fe:	97184007          	flq	ft0,-1679(a6)
 502:	1942                	slli	s2,s2,0x30
 504:	1301                	addi	t1,t1,-32
 506:	0000                	unimp
 508:	03000537          	lui	a0,0x3000
 50c:	3a0e                	fld	fs4,224(sp)
 50e:	390b3b0b          	0x390b3b0b
 512:	0213490b          	0x213490b
 516:	38000017          	auipc	zero,0x38000
 51a:	0005                	c.nop	1
 51c:	0b3a0803          	lb	a6,179(s4)
 520:	0b390b3b          	0xb390b3b
 524:	1349                	addi	t1,t1,-14
 526:	1702                	slli	a4,a4,0x20
 528:	0000                	unimp
 52a:	3439                	addiw	s0,s0,-18
 52c:	0300                	addi	s0,sp,384
 52e:	3a08                	fld	fa0,48(a2)
 530:	390b3b0b          	0x390b3b0b
 534:	0213490b          	0x213490b
 538:	3a000017          	auipc	zero,0x3a000
 53c:	0034                	addi	a3,sp,8
 53e:	0b3a0e03          	lb	t3,179(s4)
 542:	0b390b3b          	0xb390b3b
 546:	1349                	addi	t1,t1,-14
 548:	1702                	slli	a4,a4,0x20
 54a:	0000                	unimp
 54c:	0300343b          	0x300343b
 550:	3a08                	fld	fa0,48(a2)
 552:	390b3b0b          	0x390b3b0b
 556:	0013490b          	0x13490b
 55a:	3c00                	fld	fs0,56(s0)
 55c:	000a                	c.slli	zero,0x2
 55e:	0b3a0e03          	lb	t3,179(s4)
 562:	0b390b3b          	0xb390b3b
 566:	0111                	addi	sp,sp,4
 568:	0000                	unimp
 56a:	0a3d                	addi	s4,s4,15
 56c:	0300                	addi	s0,sp,384
 56e:	3a0e                	fld	fs4,224(sp)
 570:	39053b0b          	0x39053b0b
 574:	0001110b          	0x1110b
 578:	3e00                	fld	fs0,56(a2)
 57a:	011d                	addi	sp,sp,7
 57c:	1331                	addi	t1,t1,-20
 57e:	0152                	slli	sp,sp,0x14
 580:	1755                	addi	a4,a4,-11
 582:	0b58                	addi	a4,sp,404
 584:	0559                	addi	a0,a0,22
 586:	13010b57          	0x13010b57
 58a:	0000                	unimp
 58c:	3100053f 00170213 	0x1702133100053f
 594:	4000                	lw	s0,0(s0)
 596:	1755010b          	0x1755010b
 59a:	0000                	unimp
 59c:	3441                	addiw	s0,s0,-16
 59e:	3100                	fld	fs0,32(a0)
 5a0:	00180213          	addi	tp,a6,1
 5a4:	4200                	lw	s0,0(a2)
 5a6:	0034                	addi	a3,sp,8
 5a8:	1331                	addi	t1,t1,-20
 5aa:	1702                	slli	a4,a4,0x20
 5ac:	0000                	unimp
 5ae:	01828943          	fmadd.s	fs2,ft5,fs8,ft0,rne
 5b2:	1101                	addi	sp,sp,-32
 5b4:	0101                	addi	sp,sp,0
 5b6:	44000013          	li	zero,1088
 5ba:	8289                	srli	a3,a3,0x2
 5bc:	0101                	addi	sp,sp,0
 5be:	0111                	addi	sp,sp,4
 5c0:	0000                	unimp
 5c2:	8945                	andi	a0,a0,17
 5c4:	0182                	c.slli64	gp
 5c6:	1101                	addi	sp,sp,-32
 5c8:	3101                	addiw	sp,sp,-32
 5ca:	00130113          	addi	sp,t1,1
 5ce:	4600                	lw	s0,8(a2)
 5d0:	012e                	slli	sp,sp,0xb
 5d2:	0b3a0e03          	lb	t3,179(s4)
 5d6:	0b390b3b          	0xb390b3b
 5da:	13491927          	0x13491927
 5de:	0111                	addi	sp,sp,4
 5e0:	0712                	slli	a4,a4,0x4
 5e2:	1840                	addi	s0,sp,52
 5e4:	01194297          	auipc	t0,0x1194
 5e8:	47000013          	li	zero,1136
 5ec:	0005                	c.nop	1
 5ee:	0b3a0e03          	lb	t3,179(s4)
 5f2:	0b390b3b          	0xb390b3b
 5f6:	1349                	addi	t1,t1,-14
 5f8:	1802                	slli	a6,a6,0x20
 5fa:	0000                	unimp
 5fc:	2e48                	fld	fa0,152(a2)
 5fe:	0301                	addi	t1,t1,0
 600:	3a0e                	fld	fs4,224(sp)
 602:	390b3b0b          	0x390b3b0b
 606:	2019270b          	0x2019270b
 60a:	0013010b          	0x13010b
 60e:	4900                	lw	s0,16(a0)
 610:	0005                	c.nop	1
 612:	0b3a0e03          	lb	t3,179(s4)
 616:	0b390b3b          	0xb390b3b
 61a:	1349                	addi	t1,t1,-14
 61c:	0000                	unimp
 61e:	054a                	slli	a0,a0,0x12
 620:	0300                	addi	s0,sp,384
 622:	3a08                	fld	fa0,48(a2)
 624:	390b3b0b          	0x390b3b0b
 628:	0013490b          	0x13490b
 62c:	4b00                	lw	s0,16(a4)
 62e:	0034                	addi	a3,sp,8
 630:	0b3a0e03          	lb	t3,179(s4)
 634:	0b390b3b          	0xb390b3b
 638:	1349                	addi	t1,t1,-14
 63a:	0000                	unimp
 63c:	2e4c                	fld	fa1,152(a2)
 63e:	3f01                	addiw	t5,t5,-32
 640:	0319                	addi	t1,t1,6
 642:	3a0e                	fld	fs4,224(sp)
 644:	390b3b0b          	0x390b3b0b
 648:	1119270b          	0x1119270b
 64c:	1201                	addi	tp,tp,-32
 64e:	97184007          	flq	ft0,-1679(a6)
 652:	1942                	slli	s2,s2,0x30
 654:	1301                	addi	t1,t1,-32
 656:	0000                	unimp
 658:	344d                	addiw	s0,s0,-13
 65a:	0300                	addi	s0,sp,384
 65c:	3a08                	fld	fa0,48(a2)
 65e:	390b3b0b          	0x390b3b0b
 662:	0213490b          	0x213490b
 666:	0018                	0x18
 668:	4e00                	lw	s0,24(a2)
 66a:	0034                	addi	a3,sp,8
 66c:	0b3a0803          	lb	a6,179(s4)
 670:	0b390b3b          	0xb390b3b
 674:	1349                	addi	t1,t1,-14
 676:	0188                	addi	a0,sp,192
 678:	4f00000b          	0x4f00000b
 67c:	0005                	c.nop	1
 67e:	0b3a0803          	lb	a6,179(s4)
 682:	0b390b3b          	0xb390b3b
 686:	1349                	addi	t1,t1,-14
 688:	1802                	slli	a6,a6,0x20
 68a:	0000                	unimp
 68c:	2e50                	fld	fa2,152(a2)
 68e:	3f01                	addiw	t5,t5,-32
 690:	0319                	addi	t1,t1,6
 692:	3a0e                	fld	fs4,224(sp)
 694:	390b3b0b          	0x390b3b0b
 698:	1201110b          	0x1201110b
 69c:	97184007          	flq	ft0,-1679(a6)
 6a0:	1942                	slli	s2,s2,0x30
 6a2:	1301                	addi	t1,t1,-32
 6a4:	0000                	unimp
 6a6:	8951                	andi	a0,a0,20
 6a8:	0182                	c.slli64	gp
 6aa:	1100                	addi	s0,sp,160
 6ac:	3101                	addiw	sp,sp,-32
 6ae:	52000013          	li	zero,1312
 6b2:	012e                	slli	sp,sp,0xb
 6b4:	0e03193f 0b3b0b3a 	0xb3b0b3a0e03193f
 6bc:	0b39                	addi	s6,s6,14
 6be:	01871927          	0x1871927
 6c2:	1119                	addi	sp,sp,-26
 6c4:	1201                	addi	tp,tp,-32
 6c6:	97184007          	flq	ft0,-1679(a6)
 6ca:	1942                	slli	s2,s2,0x30
 6cc:	1301                	addi	t1,t1,-32
 6ce:	0000                	unimp
 6d0:	03003453          	fadd.d	fs0,ft0,fa6,rup
 6d4:	3a0e                	fld	fs4,224(sp)
 6d6:	390b3b0b          	0x390b3b0b
 6da:	8813490b          	0x8813490b
 6de:	0b01                	addi	s6,s6,0
 6e0:	1802                	slli	a6,a6,0x20
 6e2:	0000                	unimp
 6e4:	0100                	addi	s0,sp,128
 6e6:	0011                	c.nop	4
 6e8:	0610                	addi	a2,sp,768
 6ea:	0111                	addi	sp,sp,4
 6ec:	0112                	slli	sp,sp,0x4
 6ee:	0e1b0e03          	lb	t3,225(s6)
 6f2:	0e25                	addi	t3,t3,9
 6f4:	00000513          	li	a0,0
	...

Disassembly of section .debug_aranges:

0000000000000000 <.debug_aranges>:
   0:	002c                	addi	a1,sp,8
   2:	0000                	unimp
   4:	0002                	c.slli64	zero
   6:	0000                	unimp
   8:	0000                	unimp
   a:	0008                	0x8
   c:	0000                	unimp
   e:	0000                	unimp
  10:	1048                	addi	a0,sp,36
  12:	8000                	0x8000
  14:	0000                	unimp
  16:	0000                	unimp
  18:	0018                	0x18
	...
  2e:	0000                	unimp
  30:	002c                	addi	a1,sp,8
  32:	0000                	unimp
  34:	0002                	c.slli64	zero
  36:	0965                	addi	s2,s2,25
  38:	0000                	unimp
  3a:	0008                	0x8
  3c:	0000                	unimp
  3e:	0000                	unimp
  40:	1060                	addi	s0,sp,44
  42:	8000                	0x8000
  44:	0000                	unimp
  46:	0000                	unimp
  48:	05fc                	addi	a5,sp,716
	...
  5e:	0000                	unimp
  60:	002c                	addi	a1,sp,8
  62:	0000                	unimp
  64:	0002                	c.slli64	zero
  66:	000020fb          	0x20fb
  6a:	0008                	0x8
  6c:	0000                	unimp
  6e:	0000                	unimp
  70:	0000                	unimp
  72:	8000                	0x8000
  74:	0000                	unimp
  76:	0000                	unimp
  78:	00fc                	addi	a5,sp,76
	...

Disassembly of section .debug_line:

0000000000000000 <.debug_line>:
       0:	0149                	addi	sp,sp,18
       2:	0000                	unimp
       4:	011e0003          	lb	zero,17(t3) # 8011 <_tbss_end+0x7fcd>
       8:	0000                	unimp
       a:	0101                	addi	sp,sp,0
       c:	000d0efb          	0xd0efb
      10:	0101                	addi	sp,sp,0
      12:	0101                	addi	sp,sp,0
      14:	0000                	unimp
      16:	0100                	addi	s0,sp,128
      18:	0000                	unimp
      1a:	2e01                	sext.w	t3,t3
      1c:	2f00                	fld	fs0,24(a4)
      1e:	6e69                	lui	t3,0x1a
      20:	656e                	ld	a0,216(sp)
      22:	5f72                	lw	t5,60(sp)
      24:	63617073          	csrci	0x636,2
      28:	2f65                	addiw	t5,t5,25
      2a:	6f74                	ld	a3,216(a4)
      2c:	2f736c6f          	jal	s8,36b22 <_tbss_end+0x36ade>
      30:	6972                	ld	s2,280(sp)
      32:	2d766373          	csrrsi	t1,0x2d7,12
      36:	656e                	ld	a0,216(sp)
      38:	62696c77          	0x62696c77
      3c:	62696c2f          	0x62696c2f
      40:	6363672f          	0x6363672f
      44:	7369722f          	0x7369722f
      48:	34367663          	bgeu	a2,gp,394 <_tbss_end+0x350>
      4c:	752d                	lui	a0,0xfffeb
      4e:	6b6e                	ld	s6,216(sp)
      50:	6f6e                	ld	t5,216(sp)
      52:	652d6e77          	0x652d6e77
      56:	666c                	ld	a1,200(a2)
      58:	322e392f          	0x322e392f
      5c:	302e                	fld	ft0,232(sp)
      5e:	636e692f          	0x636e692f
      62:	756c                	ld	a1,232(a0)
      64:	6564                	ld	s1,200(a0)
      66:	2f00                	fld	fs0,24(a4)
      68:	6e69                	lui	t3,0x1a
      6a:	656e                	ld	a0,216(sp)
      6c:	5f72                	lw	t5,60(sp)
      6e:	63617073          	csrci	0x636,2
      72:	2f65                	addiw	t5,t5,25
      74:	6f74                	ld	a3,216(a4)
      76:	2f736c6f          	jal	s8,36b6c <_tbss_end+0x36b28>
      7a:	6972                	ld	s2,280(sp)
      7c:	2d766373          	csrrsi	t1,0x2d7,12
      80:	656e                	ld	a0,216(sp)
      82:	62696c77          	0x62696c77
      86:	7369722f          	0x7369722f
      8a:	34367663          	bgeu	a2,gp,3d6 <_tbss_end+0x392>
      8e:	752d                	lui	a0,0xfffeb
      90:	6b6e                	ld	s6,216(sp)
      92:	6f6e                	ld	t5,216(sp)
      94:	652d6e77          	0x652d6e77
      98:	666c                	ld	a1,200(a2)
      9a:	636e692f          	0x636e692f
      9e:	756c                	ld	a1,232(a0)
      a0:	6564                	ld	s1,200(a0)
      a2:	7379732f          	0x7379732f
      a6:	2f00                	fld	fs0,24(a4)
      a8:	6e69                	lui	t3,0x1a
      aa:	656e                	ld	a0,216(sp)
      ac:	5f72                	lw	t5,60(sp)
      ae:	63617073          	csrci	0x636,2
      b2:	2f65                	addiw	t5,t5,25
      b4:	6f74                	ld	a3,216(a4)
      b6:	2f736c6f          	jal	s8,36bac <_tbss_end+0x36b68>
      ba:	6972                	ld	s2,280(sp)
      bc:	2d766373          	csrrsi	t1,0x2d7,12
      c0:	656e                	ld	a0,216(sp)
      c2:	62696c77          	0x62696c77
      c6:	7369722f          	0x7369722f
      ca:	34367663          	bgeu	a2,gp,416 <_tbss_end+0x3d2>
      ce:	752d                	lui	a0,0xfffeb
      d0:	6b6e                	ld	s6,216(sp)
      d2:	6f6e                	ld	t5,216(sp)
      d4:	652d6e77          	0x652d6e77
      d8:	666c                	ld	a1,200(a2)
      da:	636e692f          	0x636e692f
      de:	756c                	ld	a1,232(a0)
      e0:	6564                	ld	s1,200(a0)
      e2:	0000                	unimp
      e4:	6568                	ld	a0,200(a0)
      e6:	6c6c                	ld	a1,216(s0)
      e8:	00632e6f          	jal	t3,320ee <_tbss_end+0x320aa>
      ec:	0001                	nop
      ee:	7300                	ld	s0,32(a4)
      f0:	6474                	ld	a3,200(s0)
      f2:	6564                	ld	s1,200(a0)
      f4:	2e66                	fld	ft8,88(sp)
      f6:	0068                	addi	a0,sp,12
      f8:	0002                	c.slli64	zero
      fa:	5f00                	lw	s0,56(a4)
      fc:	7974                	ld	a3,240(a0)
      fe:	6570                	ld	a2,200(a0)
     100:	00682e73          	csrrs	t3,0x6,a6
     104:	72000003          	lb	zero,1824(zero) # 720 <_tbss_end+0x6dc>
     108:	6565                	lui	a0,0x19
     10a:	746e                	ld	s0,248(sp)
     10c:	682e                	ld	a6,200(sp)
     10e:	0300                	addi	s0,sp,384
     110:	0000                	unimp
     112:	6f6c                	ld	a1,216(a4)
     114:	682e6b63          	bltu	t3,sp,7aa <_tbss_end+0x766>
     118:	0300                	addi	s0,sp,384
     11a:	0000                	unimp
     11c:	69647473          	csrrci	s0,0x696,8
     120:	00682e6f          	jal	t3,82126 <_tbss_end+0x820e2>
     124:	0004                	0x4
     126:	0000                	unimp
     128:	0c05                	addi	s8,s8,1
     12a:	0900                	addi	s0,sp,144
     12c:	4802                	lw	a6,0(sp)
     12e:	0010                	0x10
     130:	0080                	addi	s0,sp,64
     132:	0000                	unimp
     134:	1400                	addi	s0,sp,544
     136:	0505                	addi	a0,a0,1
     138:	04090103          	lb	sp,64(s2) # e040 <_tbss_end+0xdffc>
     13c:	0100                	addi	s0,sp,128
     13e:	0105                	addi	sp,sp,1
     140:	0306                	slli	t1,t1,0x1
     142:	0901                	addi	s2,s2,0
     144:	000c                	0xc
     146:	0901                	addi	s2,s2,0
     148:	0008                	0x8
     14a:	0100                	addi	s0,sp,128
     14c:	bf01                	j	5c <_tbss_end+0x18>
     14e:	0012                	c.slli	zero,0x4
     150:	0300                	addi	s0,sp,384
     152:	a500                	fsd	fs0,8(a0)
     154:	0001                	nop
     156:	0100                	addi	s0,sp,128
     158:	fb01                	bnez	a4,68 <_tbss_end+0x24>
     15a:	0d0e                	slli	s10,s10,0x3
     15c:	0100                	addi	s0,sp,128
     15e:	0101                	addi	sp,sp,0
     160:	0001                	nop
     162:	0000                	unimp
     164:	0001                	nop
     166:	0100                	addi	s0,sp,128
     168:	2f2e                	fld	ft10,200(sp)
     16a:	6d6d6f63          	bltu	s10,s6,848 <_tbss_end+0x804>
     16e:	2f006e6f          	jal	t3,645e <_tbss_end+0x641a>
     172:	6e69                	lui	t3,0x1a
     174:	656e                	ld	a0,216(sp)
     176:	5f72                	lw	t5,60(sp)
     178:	63617073          	csrci	0x636,2
     17c:	2f65                	addiw	t5,t5,25
     17e:	6f74                	ld	a3,216(a4)
     180:	2f736c6f          	jal	s8,36c76 <_tbss_end+0x36c32>
     184:	6972                	ld	s2,280(sp)
     186:	2d766373          	csrrsi	t1,0x2d7,12
     18a:	656e                	ld	a0,216(sp)
     18c:	62696c77          	0x62696c77
     190:	7369722f          	0x7369722f
     194:	34367663          	bgeu	a2,gp,4e0 <_tbss_end+0x49c>
     198:	752d                	lui	a0,0xfffeb
     19a:	6b6e                	ld	s6,216(sp)
     19c:	6f6e                	ld	t5,216(sp)
     19e:	652d6e77          	0x652d6e77
     1a2:	666c                	ld	a1,200(a2)
     1a4:	636e692f          	0x636e692f
     1a8:	756c                	ld	a1,232(a0)
     1aa:	6564                	ld	s1,200(a0)
     1ac:	63616d2f          	0x63616d2f
     1b0:	6968                	ld	a0,208(a0)
     1b2:	656e                	ld	a0,216(sp)
     1b4:	2f00                	fld	fs0,24(a4)
     1b6:	6e69                	lui	t3,0x1a
     1b8:	656e                	ld	a0,216(sp)
     1ba:	5f72                	lw	t5,60(sp)
     1bc:	63617073          	csrci	0x636,2
     1c0:	2f65                	addiw	t5,t5,25
     1c2:	6f74                	ld	a3,216(a4)
     1c4:	2f736c6f          	jal	s8,36cba <_tbss_end+0x36c76>
     1c8:	6972                	ld	s2,280(sp)
     1ca:	2d766373          	csrrsi	t1,0x2d7,12
     1ce:	656e                	ld	a0,216(sp)
     1d0:	62696c77          	0x62696c77
     1d4:	7369722f          	0x7369722f
     1d8:	34367663          	bgeu	a2,gp,524 <_tbss_end+0x4e0>
     1dc:	752d                	lui	a0,0xfffeb
     1de:	6b6e                	ld	s6,216(sp)
     1e0:	6f6e                	ld	t5,216(sp)
     1e2:	652d6e77          	0x652d6e77
     1e6:	666c                	ld	a1,200(a2)
     1e8:	636e692f          	0x636e692f
     1ec:	756c                	ld	a1,232(a0)
     1ee:	6564                	ld	s1,200(a0)
     1f0:	7379732f          	0x7379732f
     1f4:	2f00                	fld	fs0,24(a4)
     1f6:	6e69                	lui	t3,0x1a
     1f8:	656e                	ld	a0,216(sp)
     1fa:	5f72                	lw	t5,60(sp)
     1fc:	63617073          	csrci	0x636,2
     200:	2f65                	addiw	t5,t5,25
     202:	6f74                	ld	a3,216(a4)
     204:	2f736c6f          	jal	s8,36cfa <_tbss_end+0x36cb6>
     208:	6972                	ld	s2,280(sp)
     20a:	2d766373          	csrrsi	t1,0x2d7,12
     20e:	656e                	ld	a0,216(sp)
     210:	62696c77          	0x62696c77
     214:	62696c2f          	0x62696c2f
     218:	6363672f          	0x6363672f
     21c:	7369722f          	0x7369722f
     220:	34367663          	bgeu	a2,gp,56c <_tbss_end+0x528>
     224:	752d                	lui	a0,0xfffeb
     226:	6b6e                	ld	s6,216(sp)
     228:	6f6e                	ld	t5,216(sp)
     22a:	652d6e77          	0x652d6e77
     22e:	666c                	ld	a1,200(a2)
     230:	322e392f          	0x322e392f
     234:	302e                	fld	ft0,232(sp)
     236:	636e692f          	0x636e692f
     23a:	756c                	ld	a1,232(a0)
     23c:	6564                	ld	s1,200(a0)
     23e:	2f00                	fld	fs0,24(a4)
     240:	6e69                	lui	t3,0x1a
     242:	656e                	ld	a0,216(sp)
     244:	5f72                	lw	t5,60(sp)
     246:	63617073          	csrci	0x636,2
     24a:	2f65                	addiw	t5,t5,25
     24c:	6f74                	ld	a3,216(a4)
     24e:	2f736c6f          	jal	s8,36d44 <_tbss_end+0x36d00>
     252:	6972                	ld	s2,280(sp)
     254:	2d766373          	csrrsi	t1,0x2d7,12
     258:	656e                	ld	a0,216(sp)
     25a:	62696c77          	0x62696c77
     25e:	7369722f          	0x7369722f
     262:	34367663          	bgeu	a2,gp,5ae <_tbss_end+0x56a>
     266:	752d                	lui	a0,0xfffeb
     268:	6b6e                	ld	s6,216(sp)
     26a:	6f6e                	ld	t5,216(sp)
     26c:	652d6e77          	0x652d6e77
     270:	666c                	ld	a1,200(a2)
     272:	636e692f          	0x636e692f
     276:	756c                	ld	a1,232(a0)
     278:	6564                	ld	s1,200(a0)
     27a:	0000                	unimp
     27c:	63737973          	csrrci	s2,0x637,6
     280:	6c61                	lui	s8,0x18
     282:	736c                	ld	a1,224(a4)
     284:	632e                	ld	t1,200(sp)
     286:	0100                	addi	s0,sp,128
     288:	0000                	unimp
     28a:	645f 6665 7561      	0x75616665645f
     290:	746c                	ld	a1,232(s0)
     292:	745f 7079 7365      	0x73657079745f
     298:	682e                	ld	a6,200(sp)
     29a:	0200                	addi	s0,sp,256
     29c:	0000                	unimp
     29e:	735f 6474 6e69      	0x6e696474735f
     2a4:	2e74                	fld	fa3,216(a2)
     2a6:	0068                	addi	a0,sp,12
     2a8:	73000003          	lb	zero,1840(zero) # 730 <_tbss_end+0x6ec>
     2ac:	6474                	ld	a3,200(s0)
     2ae:	6564                	ld	s1,200(a0)
     2b0:	2e66                	fld	ft8,88(sp)
     2b2:	0068                	addi	a0,sp,12
     2b4:	0004                	0x4
     2b6:	5f00                	lw	s0,56(a4)
     2b8:	7974                	ld	a3,240(a0)
     2ba:	6570                	ld	a2,200(a0)
     2bc:	00682e73          	csrrs	t3,0x6,a6
     2c0:	72000003          	lb	zero,1824(zero) # 720 <_tbss_end+0x6dc>
     2c4:	6565                	lui	a0,0x19
     2c6:	746e                	ld	s0,248(sp)
     2c8:	682e                	ld	a6,200(sp)
     2ca:	0300                	addi	s0,sp,384
     2cc:	0000                	unimp
     2ce:	6f6c                	ld	a1,216(a4)
     2d0:	682e6b63          	bltu	t3,sp,966 <_tbss_end+0x922>
     2d4:	0300                	addi	s0,sp,384
     2d6:	0000                	unimp
     2d8:	61647473          	csrrci	s0,0x616,8
     2dc:	6772                	ld	a4,280(sp)
     2de:	682e                	ld	a6,200(sp)
     2e0:	0400                	addi	s0,sp,512
     2e2:	0000                	unimp
     2e4:	69727473          	csrrci	s0,0x697,4
     2e8:	676e                	ld	a4,216(sp)
     2ea:	682e                	ld	a6,200(sp)
     2ec:	0500                	addi	s0,sp,640
     2ee:	0000                	unimp
     2f0:	69647473          	csrrci	s0,0x696,8
     2f4:	00682e6f          	jal	t3,822fa <_tbss_end+0x822b6>
     2f8:	0005                	c.nop	1
     2fa:	0000                	unimp
     2fc:	0105                	addi	sp,sp,1
     2fe:	0900                	addi	s0,sp,144
     300:	6002                	0x6002
     302:	0010                	0x10
     304:	0080                	addi	s0,sp,64
     306:	0000                	unimp
     308:	0300                	addi	s0,sp,384
     30a:	01c8                	addi	a0,sp,196
     30c:	0501                	addi	a0,a0,0
     30e:	09010303          	lb	t1,144(sp) # 50b01fe <_tbss_end+0x50b01ba>
     312:	0000                	unimp
     314:	0501                	addi	a0,a0,0
     316:	0606                	slli	a2,a2,0x1
     318:	00090003          	lb	zero,0(s2)
     31c:	0100                	addi	s0,sp,128
     31e:	0805                	addi	a6,a6,1
     320:	0306                	slli	t1,t1,0x1
     322:	0902                	c.slli64	s2
     324:	0006                	c.slli	zero,0x1
     326:	0501                	addi	a0,a0,0
     328:	0003060b          	0x3060b
     32c:	0009                	c.nop	2
     32e:	0100                	addi	s0,sp,128
     330:	0505                	addi	a0,a0,1
     332:	0306                	slli	t1,t1,0x1
     334:	0901                	addi	s2,s2,0
     336:	0002                	c.slli64	zero
     338:	0501                	addi	a0,a0,0
     33a:	060c                	addi	a1,sp,768
     33c:	00090003          	lb	zero,0(s2)
     340:	0100                	addi	s0,sp,128
     342:	0505                	addi	a0,a0,1
     344:	0306                	slli	t1,t1,0x1
     346:	097e                	slli	s2,s2,0x1f
     348:	000c                	0xc
     34a:	0501                	addi	a0,a0,0
     34c:	060c                	addi	a1,sp,768
     34e:	00090003          	lb	zero,0(s2)
     352:	0100                	addi	s0,sp,128
     354:	0505                	addi	a0,a0,1
     356:	0306                	slli	t1,t1,0x1
     358:	0904                	addi	s1,sp,144
     35a:	000c                	0xc
     35c:	0501                	addi	a0,a0,0
     35e:	060c                	addi	a1,sp,768
     360:	00090003          	lb	zero,0(s2)
     364:	0100                	addi	s0,sp,128
     366:	0105                	addi	sp,sp,1
     368:	0c090103          	lb	sp,192(s2)
     36c:	0100                	addi	s0,sp,128
     36e:	0306                	slli	t1,t1,0x1
     370:	00020903          	lb	s2,0(tp) # 11000 <_tbss_end+0x10fbc>
     374:	0501                	addi	a0,a0,0
     376:	09010303          	lb	t1,144(sp)
     37a:	0000                	unimp
     37c:	0501                	addi	a0,a0,0
     37e:	0606                	slli	a2,a2,0x1
     380:	00090003          	lb	zero,0(s2)
     384:	0100                	addi	s0,sp,128
     386:	0805                	addi	a6,a6,1
     388:	0306                	slli	t1,t1,0x1
     38a:	0902                	c.slli64	s2
     38c:	0006                	c.slli	zero,0x1
     38e:	0501                	addi	a0,a0,0
     390:	0003060b          	0x3060b
     394:	0009                	c.nop	2
     396:	0100                	addi	s0,sp,128
     398:	0505                	addi	a0,a0,1
     39a:	0306                	slli	t1,t1,0x1
     39c:	0901                	addi	s2,s2,0
     39e:	0002                	c.slli64	zero
     3a0:	0501                	addi	a0,a0,0
     3a2:	060c                	addi	a1,sp,768
     3a4:	00090003          	lb	zero,0(s2)
     3a8:	0100                	addi	s0,sp,128
     3aa:	0505                	addi	a0,a0,1
     3ac:	0306                	slli	t1,t1,0x1
     3ae:	097e                	slli	s2,s2,0x1f
     3b0:	000c                	0xc
     3b2:	0501                	addi	a0,a0,0
     3b4:	060c                	addi	a1,sp,768
     3b6:	00090003          	lb	zero,0(s2)
     3ba:	0100                	addi	s0,sp,128
     3bc:	0505                	addi	a0,a0,1
     3be:	0306                	slli	t1,t1,0x1
     3c0:	0904                	addi	s1,sp,144
     3c2:	000c                	0xc
     3c4:	0501                	addi	a0,a0,0
     3c6:	060c                	addi	a1,sp,768
     3c8:	00090003          	lb	zero,0(s2)
     3cc:	0100                	addi	s0,sp,128
     3ce:	0105                	addi	sp,sp,1
     3d0:	0a090103          	lb	sp,160(s2)
     3d4:	0100                	addi	s0,sp,128
     3d6:	0305                	addi	t1,t1,1
     3d8:	0306                	slli	t1,t1,0x1
     3da:	020901ab          	0x20901ab
     3de:	0100                	addi	s0,sp,128
     3e0:	0505                	addi	a0,a0,1
     3e2:	00090103          	lb	sp,0(s2)
     3e6:	0100                	addi	s0,sp,128
     3e8:	00090103          	lb	sp,0(s2)
     3ec:	0100                	addi	s0,sp,128
     3ee:	0605                	addi	a2,a2,1
     3f0:	0306                	slli	t1,t1,0x1
     3f2:	0900                	addi	s0,sp,144
     3f4:	0000                	unimp
     3f6:	0501                	addi	a0,a0,0
     3f8:	030c                	addi	a1,sp,384
     3fa:	0900                	addi	s0,sp,144
     3fc:	0002                	c.slli64	zero
     3fe:	0501                	addi	a0,a0,0
     400:	0605                	addi	a2,a2,1
     402:	04090103          	lb	sp,64(s2)
     406:	0100                	addi	s0,sp,128
     408:	0605                	addi	a2,a2,1
     40a:	0306                	slli	t1,t1,0x1
     40c:	0900                	addi	s0,sp,144
     40e:	0000                	unimp
     410:	0501                	addi	a0,a0,0
     412:	030c                	addi	a1,sp,384
     414:	0900                	addi	s0,sp,144
     416:	0002                	c.slli64	zero
     418:	0501                	addi	a0,a0,0
     41a:	09010303          	lb	t1,144(sp)
     41e:	0004                	0x4
     420:	0501                	addi	a0,a0,0
     422:	0601                	addi	a2,a2,0
     424:	097d8e03          	lb	t3,151(s11)
     428:	0002                	c.slli64	zero
     42a:	0501                	addi	a0,a0,0
     42c:	09010303          	lb	t1,144(sp)
     430:	000a                	c.slli	zero,0x2
     432:	0301                	addi	t1,t1,0
     434:	0901                	addi	s2,s2,0
     436:	0000                	unimp
     438:	0501                	addi	a0,a0,0
     43a:	0610                	addi	a2,sp,768
     43c:	00090003          	lb	zero,0(s2)
     440:	0100                	addi	s0,sp,128
     442:	0305                	addi	t1,t1,1
     444:	0306                	slli	t1,t1,0x1
     446:	0901                	addi	s2,s2,0
     448:	0002                	c.slli64	zero
     44a:	0501                	addi	a0,a0,0
     44c:	0610                	addi	a2,sp,768
     44e:	00090003          	lb	zero,0(s2)
     452:	0100                	addi	s0,sp,128
     454:	0305                	addi	t1,t1,1
     456:	0306                	slli	t1,t1,0x1
     458:	0901                	addi	s2,s2,0
     45a:	0002                	c.slli64	zero
     45c:	0501                	addi	a0,a0,0
     45e:	0610                	addi	a2,sp,768
     460:	00090003          	lb	zero,0(s2)
     464:	0100                	addi	s0,sp,128
     466:	0305                	addi	t1,t1,1
     468:	0306                	slli	t1,t1,0x1
     46a:	0901                	addi	s2,s2,0
     46c:	0002                	c.slli64	zero
     46e:	0501                	addi	a0,a0,0
     470:	0610                	addi	a2,sp,768
     472:	00090003          	lb	zero,0(s2)
     476:	0100                	addi	s0,sp,128
     478:	0305                	addi	t1,t1,1
     47a:	0306                	slli	t1,t1,0x1
     47c:	0901                	addi	s2,s2,0
     47e:	0002                	c.slli64	zero
     480:	0301                	addi	t1,t1,0
     482:	0902                	c.slli64	s2
     484:	0004                	0x4
     486:	0501                	addi	a0,a0,0
     488:	060a                	slli	a2,a2,0x2
     48a:	00090003          	lb	zero,0(s2)
     48e:	0100                	addi	s0,sp,128
     490:	0305                	addi	t1,t1,1
     492:	0306                	slli	t1,t1,0x1
     494:	0901                	addi	s2,s2,0
     496:	0008                	0x8
     498:	0501                	addi	a0,a0,0
     49a:	0005                	c.nop	1
     49c:	0402                	c.slli64	s0
     49e:	0301                	addi	t1,t1,0
     4a0:	0901                	addi	s2,s2,0
     4a2:	0000                	unimp
     4a4:	0501                	addi	a0,a0,0
     4a6:	0009                	c.nop	2
     4a8:	0402                	c.slli64	s0
     4aa:	0301                	addi	t1,t1,0
     4ac:	097f                	0x97f
     4ae:	0000                	unimp
     4b0:	0501                	addi	a0,a0,0
     4b2:	04020013          	addi	zero,tp,64 # 40 <buflen.2955>
     4b6:	0601                	addi	a2,a2,0
     4b8:	00090003          	lb	zero,0(s2)
     4bc:	0100                	addi	s0,sp,128
     4be:	0905                	addi	s2,s2,1
     4c0:	0200                	addi	s0,sp,256
     4c2:	0104                	addi	s1,sp,128
     4c4:	08090003          	lb	zero,128(s2)
     4c8:	0100                	addi	s0,sp,128
     4ca:	0305                	addi	t1,t1,1
     4cc:	0306                	slli	t1,t1,0x1
     4ce:	0902                	c.slli64	s2
     4d0:	0002                	c.slli64	zero
     4d2:	0501                	addi	a0,a0,0
     4d4:	060c                	addi	a1,sp,768
     4d6:	00090003          	lb	zero,0(s2)
     4da:	0100                	addi	s0,sp,128
     4dc:	0305                	addi	t1,t1,1
     4de:	0306                	slli	t1,t1,0x1
     4e0:	0902                	c.slli64	s2
     4e2:	0008                	0x8
     4e4:	0301                	addi	t1,t1,0
     4e6:	0901                	addi	s2,s2,0
     4e8:	0004                	0x4
     4ea:	0501                	addi	a0,a0,0
     4ec:	00030613          	mv	a2,t1
     4f0:	0009                	c.nop	2
     4f2:	0100                	addi	s0,sp,128
     4f4:	0105                	addi	sp,sp,1
     4f6:	02090103          	lb	sp,32(s2)
     4fa:	0100                	addi	s0,sp,128
     4fc:	0306                	slli	t1,t1,0x1
     4fe:	00e0                	addi	s0,sp,76
     500:	0409                	addi	s0,s0,2
     502:	0100                	addi	s0,sp,128
     504:	0305                	addi	t1,t1,1
     506:	00090103          	lb	sp,0(s2)
     50a:	0100                	addi	s0,sp,128
     50c:	00090103          	lb	sp,0(s2)
     510:	0100                	addi	s0,sp,128
     512:	00090203          	lb	tp,0(s2)
     516:	0100                	addi	s0,sp,128
     518:	0d05                	addi	s10,s10,1
     51a:	0306                	slli	t1,t1,0x1
     51c:	0900                	addi	s0,sp,144
     51e:	0000                	unimp
     520:	0501                	addi	a0,a0,0
     522:	0311                	addi	t1,t1,4
     524:	0900                	addi	s0,sp,144
     526:	0010                	0x10
     528:	0501                	addi	a0,a0,0
     52a:	02030603          	lb	a2,32(t1)
     52e:	0a09                	addi	s4,s4,2
     530:	0100                	addi	s0,sp,128
     532:	0605                	addi	a2,a2,1
     534:	0306                	slli	t1,t1,0x1
     536:	0900                	addi	s0,sp,144
     538:	0000                	unimp
     53a:	0501                	addi	a0,a0,0
     53c:	0012                	c.slli	zero,0x4
     53e:	0402                	c.slli64	s0
     540:	0301                	addi	t1,t1,0
     542:	0900                	addi	s0,sp,144
     544:	0006                	c.slli	zero,0x1
     546:	0501                	addi	a0,a0,0
     548:	06030603          	lb	a2,96(t1)
     54c:	0809                	addi	a6,a6,2
     54e:	0100                	addi	s0,sp,128
     550:	0105                	addi	sp,sp,1
     552:	0306                	slli	t1,t1,0x1
     554:	0901                	addi	s2,s2,0
     556:	0000                	unimp
     558:	0301                	addi	t1,t1,0
     55a:	00040973          	0x40973
     55e:	0501                	addi	a0,a0,0
     560:	0605                	addi	a2,a2,1
     562:	04090803          	lb	a6,64(s2)
     566:	0100                	addi	s0,sp,128
     568:	0e090103          	lb	sp,224(s2)
     56c:	0100                	addi	s0,sp,128
     56e:	0c05                	addi	s8,s8,1
     570:	0306                	slli	t1,t1,0x1
     572:	0900                	addi	s0,sp,144
     574:	0000                	unimp
     576:	0501                	addi	a0,a0,0
     578:	03030603          	lb	a2,48(t1)
     57c:	0409                	addi	s0,s0,2
     57e:	0100                	addi	s0,sp,128
     580:	0105                	addi	sp,sp,1
     582:	0306                	slli	t1,t1,0x1
     584:	0901                	addi	s2,s2,0
     586:	0000                	unimp
     588:	0601                	addi	a2,a2,0
     58a:	097f9603          	lh	a2,151(t6)
     58e:	0008                	0x8
     590:	0501                	addi	a0,a0,0
     592:	09010303          	lb	t1,144(sp)
     596:	0000                	unimp
     598:	0501                	addi	a0,a0,0
     59a:	0612                	slli	a2,a2,0x4
     59c:	00090003          	lb	zero,0(s2)
     5a0:	0100                	addi	s0,sp,128
     5a2:	1805                	addi	a6,a6,-31
     5a4:	04090003          	lb	zero,64(s2)
     5a8:	0100                	addi	s0,sp,128
     5aa:	0a05                	addi	s4,s4,1
     5ac:	04090003          	lb	zero,64(s2)
     5b0:	0100                	addi	s0,sp,128
     5b2:	0305                	addi	t1,t1,1
     5b4:	0200                	addi	s0,sp,256
     5b6:	0104                	addi	s1,sp,128
     5b8:	0306                	slli	t1,t1,0x1
     5ba:	0901                	addi	s2,s2,0
     5bc:	0008                	0x8
     5be:	0501                	addi	a0,a0,0
     5c0:	000c                	0xc
     5c2:	0402                	c.slli64	s0
     5c4:	0301                	addi	t1,t1,0
     5c6:	0900                	addi	s0,sp,144
     5c8:	0000                	unimp
     5ca:	0501                	addi	a0,a0,0
     5cc:	0009                	c.nop	2
     5ce:	0402                	c.slli64	s0
     5d0:	0301                	addi	t1,t1,0
     5d2:	0900                	addi	s0,sp,144
     5d4:	0000                	unimp
     5d6:	0501                	addi	a0,a0,0
     5d8:	0301                	addi	t1,t1,0
     5da:	0904                	addi	s1,sp,144
     5dc:	0002                	c.slli64	zero
     5de:	0501                	addi	a0,a0,0
     5e0:	090f0303          	lb	t1,144(t5)
     5e4:	0004                	0x4
     5e6:	0501                	addi	a0,a0,0
     5e8:	0301                	addi	t1,t1,0
     5ea:	0908                	addi	a0,sp,144
     5ec:	0006                	c.slli	zero,0x1
     5ee:	0501                	addi	a0,a0,0
     5f0:	09010303          	lb	t1,144(sp)
     5f4:	0000                	unimp
     5f6:	0301                	addi	t1,t1,0
     5f8:	0908                	addi	a0,sp,144
     5fa:	0000                	unimp
     5fc:	0301                	addi	t1,t1,0
     5fe:	0900                	addi	s0,sp,144
     600:	0000                	unimp
     602:	0301                	addi	t1,t1,0
     604:	0900                	addi	s0,sp,144
     606:	0000                	unimp
     608:	0301                	addi	t1,t1,0
     60a:	0900                	addi	s0,sp,144
     60c:	0000                	unimp
     60e:	0301                	addi	t1,t1,0
     610:	0900                	addi	s0,sp,144
     612:	0000                	unimp
     614:	0301                	addi	t1,t1,0
     616:	0900                	addi	s0,sp,144
     618:	0000                	unimp
     61a:	0301                	addi	t1,t1,0
     61c:	0900                	addi	s0,sp,144
     61e:	0000                	unimp
     620:	0301                	addi	t1,t1,0
     622:	0900                	addi	s0,sp,144
     624:	0004                	0x4
     626:	0301                	addi	t1,t1,0
     628:	0900                	addi	s0,sp,144
     62a:	0000                	unimp
     62c:	0001                	nop
     62e:	0402                	c.slli64	s0
     630:	09000303          	lb	t1,144(zero) # 90 <_tbss_end+0x4c>
     634:	0002                	c.slli64	zero
     636:	0001                	nop
     638:	0402                	c.slli64	s0
     63a:	09000303          	lb	t1,144(zero) # 90 <_tbss_end+0x4c>
     63e:	000c                	0xc
     640:	0001                	nop
     642:	0402                	c.slli64	s0
     644:	0305                	addi	t1,t1,1
     646:	0900                	addi	s0,sp,144
     648:	000a                	c.slli	zero,0x2
     64a:	0001                	nop
     64c:	0402                	c.slli64	s0
     64e:	0305                	addi	t1,t1,1
     650:	0900                	addi	s0,sp,144
     652:	0008                	0x8
     654:	0001                	nop
     656:	0402                	c.slli64	s0
     658:	0305                	addi	t1,t1,1
     65a:	0901                	addi	s2,s2,0
     65c:	0000                	unimp
     65e:	0001                	nop
     660:	0402                	c.slli64	s0
     662:	0305                	addi	t1,t1,1
     664:	0900                	addi	s0,sp,144
     666:	0000                	unimp
     668:	0001                	nop
     66a:	0402                	c.slli64	s0
     66c:	0305                	addi	t1,t1,1
     66e:	0900                	addi	s0,sp,144
     670:	0000                	unimp
     672:	0001                	nop
     674:	0402                	c.slli64	s0
     676:	0305                	addi	t1,t1,1
     678:	0900                	addi	s0,sp,144
     67a:	0000                	unimp
     67c:	0001                	nop
     67e:	0402                	c.slli64	s0
     680:	0305                	addi	t1,t1,1
     682:	0900                	addi	s0,sp,144
     684:	0000                	unimp
     686:	0001                	nop
     688:	0402                	c.slli64	s0
     68a:	0305                	addi	t1,t1,1
     68c:	0900                	addi	s0,sp,144
     68e:	0000                	unimp
     690:	0001                	nop
     692:	0402                	c.slli64	s0
     694:	0305                	addi	t1,t1,1
     696:	0900                	addi	s0,sp,144
     698:	0000                	unimp
     69a:	0001                	nop
     69c:	0402                	c.slli64	s0
     69e:	0305                	addi	t1,t1,1
     6a0:	0900                	addi	s0,sp,144
     6a2:	0004                	0x4
     6a4:	0001                	nop
     6a6:	0402                	c.slli64	s0
     6a8:	0305                	addi	t1,t1,1
     6aa:	0900                	addi	s0,sp,144
     6ac:	0000                	unimp
     6ae:	0001                	nop
     6b0:	0402                	c.slli64	s0
     6b2:	09000303          	lb	t1,144(zero) # 90 <_tbss_end+0x4c>
     6b6:	0002                	c.slli64	zero
     6b8:	0001                	nop
     6ba:	0402                	c.slli64	s0
     6bc:	09000303          	lb	t1,144(zero) # 90 <_tbss_end+0x4c>
     6c0:	000c                	0xc
     6c2:	0001                	nop
     6c4:	0402                	c.slli64	s0
     6c6:	0305                	addi	t1,t1,1
     6c8:	0900                	addi	s0,sp,144
     6ca:	000a                	c.slli	zero,0x2
     6cc:	0001                	nop
     6ce:	0402                	c.slli64	s0
     6d0:	0305                	addi	t1,t1,1
     6d2:	0900                	addi	s0,sp,144
     6d4:	0008                	0x8
     6d6:	0501                	addi	a0,a0,0
     6d8:	0001                	nop
     6da:	0402                	c.slli64	s0
     6dc:	0605                	addi	a2,a2,1
     6de:	00090303          	lb	t1,0(s2)
     6e2:	0100                	addi	s0,sp,128
     6e4:	0306                	slli	t1,t1,0x1
     6e6:	0909                	addi	s2,s2,2
     6e8:	0002                	c.slli64	zero
     6ea:	0501                	addi	a0,a0,0
     6ec:	09010303          	lb	t1,144(sp)
     6f0:	0004                	0x4
     6f2:	0501                	addi	a0,a0,0
     6f4:	0301                	addi	t1,t1,0
     6f6:	0909                	addi	s2,s2,2
     6f8:	0004                	0x4
     6fa:	0501                	addi	a0,a0,0
     6fc:	04020013          	addi	zero,tp,64 # 40 <buflen.2955>
     700:	0301                	addi	t1,t1,0
     702:	00000903          	lb	s2,0(zero) # 0 <_tdata_begin>
     706:	0501                	addi	a0,a0,0
     708:	0009                	c.nop	2
     70a:	0402                	c.slli64	s0
     70c:	0301                	addi	t1,t1,0
     70e:	0900                	addi	s0,sp,144
     710:	0000                	unimp
     712:	0501                	addi	a0,a0,0
     714:	0601                	addi	a2,a2,0
     716:	02090103          	lb	sp,32(s2)
     71a:	0100                	addi	s0,sp,128
     71c:	0306                	slli	t1,t1,0x1
     71e:	02a9                	addi	t0,t0,10
     720:	0209                	addi	tp,tp,2
     722:	0100                	addi	s0,sp,128
     724:	0305                	addi	t1,t1,1
     726:	00090103          	lb	sp,0(s2)
     72a:	0100                	addi	s0,sp,128
     72c:	1905                	addi	s2,s2,-31
     72e:	0306                	slli	t1,t1,0x1
     730:	0900                	addi	s0,sp,144
     732:	0000                	unimp
     734:	0501                	addi	a0,a0,0
     736:	032a                	slli	t1,t1,0xa
     738:	0900                	addi	s0,sp,144
     73a:	0004                	0x4
     73c:	0501                	addi	a0,a0,0
     73e:	0331                	addi	t1,t1,12
     740:	0900                	addi	s0,sp,144
     742:	0002                	c.slli64	zero
     744:	0501                	addi	a0,a0,0
     746:	0306                	slli	t1,t1,0x1
     748:	0900                	addi	s0,sp,144
     74a:	0002                	c.slli64	zero
     74c:	0501                	addi	a0,a0,0
     74e:	0907030b          	0x907030b
     752:	0002                	c.slli64	zero
     754:	0601                	addi	a2,a2,0
     756:	02090103          	lb	sp,32(s2)
     75a:	0100                	addi	s0,sp,128
     75c:	1d05                	addi	s10,s10,-31
     75e:	0306                	slli	t1,t1,0x1
     760:	0900                	addi	s0,sp,144
     762:	0000                	unimp
     764:	0501                	addi	a0,a0,0
     766:	0900030b          	0x900030b
     76a:	0004                	0x4
     76c:	0501                	addi	a0,a0,0
     76e:	01030607          	0x1030607
     772:	0409                	addi	s0,s0,2
     774:	0100                	addi	s0,sp,128
     776:	0e05                	addi	t3,t3,1
     778:	0306                	slli	t1,t1,0x1
     77a:	0900                	addi	s0,sp,144
     77c:	0000                	unimp
     77e:	0501                	addi	a0,a0,0
     780:	030c                	addi	a1,sp,384
     782:	0900                	addi	s0,sp,144
     784:	0004                	0x4
     786:	0501                	addi	a0,a0,0
     788:	0309                	addi	t1,t1,2
     78a:	0900                	addi	s0,sp,144
     78c:	0004                	0x4
     78e:	0501                	addi	a0,a0,0
     790:	0310                	addi	a2,sp,384
     792:	0900                	addi	s0,sp,144
     794:	0002                	c.slli64	zero
     796:	0301                	addi	t1,t1,0
     798:	0979                	addi	s2,s2,30
     79a:	0004                	0x4
     79c:	0501                	addi	a0,a0,0
     79e:	0103060b          	0x103060b
     7a2:	0209                	addi	tp,tp,2
     7a4:	0100                	addi	s0,sp,128
     7a6:	2205                	addiw	tp,tp,1
     7a8:	0306                	slli	t1,t1,0x1
     7aa:	0900                	addi	s0,sp,144
     7ac:	0000                	unimp
     7ae:	0501                	addi	a0,a0,0
     7b0:	0900030b          	0x900030b
     7b4:	0004                	0x4
     7b6:	0501                	addi	a0,a0,0
     7b8:	01030607          	0x1030607
     7bc:	0409                	addi	s0,s0,2
     7be:	0100                	addi	s0,sp,128
     7c0:	0e05                	addi	t3,t3,1
     7c2:	0306                	slli	t1,t1,0x1
     7c4:	0900                	addi	s0,sp,144
     7c6:	0000                	unimp
     7c8:	0501                	addi	a0,a0,0
     7ca:	030c                	addi	a1,sp,384
     7cc:	0900                	addi	s0,sp,144
     7ce:	0002                	c.slli64	zero
     7d0:	0501                	addi	a0,a0,0
     7d2:	0309                	addi	t1,t1,2
     7d4:	0900                	addi	s0,sp,144
     7d6:	0002                	c.slli64	zero
     7d8:	0501                	addi	a0,a0,0
     7da:	0310                	addi	a2,sp,384
     7dc:	0900                	addi	s0,sp,144
     7de:	0002                	c.slli64	zero
     7e0:	0501                	addi	a0,a0,0
     7e2:	07030603          	lb	a2,112(t1)
     7e6:	0609                	addi	a2,a2,2
     7e8:	0100                	addi	s0,sp,128
     7ea:	0105                	addi	sp,sp,1
     7ec:	0306                	slli	t1,t1,0x1
     7ee:	0901                	addi	s2,s2,0
     7f0:	0000                	unimp
     7f2:	0601                	addi	a2,a2,0
     7f4:	02090303          	lb	t1,32(s2)
     7f8:	0100                	addi	s0,sp,128
     7fa:	0305                	addi	t1,t1,1
     7fc:	00090103          	lb	sp,0(s2)
     800:	0100                	addi	s0,sp,128
     802:	1905                	addi	s2,s2,-31
     804:	0306                	slli	t1,t1,0x1
     806:	0900                	addi	s0,sp,144
     808:	0000                	unimp
     80a:	0501                	addi	a0,a0,0
     80c:	0320                	addi	s0,sp,392
     80e:	0900                	addi	s0,sp,144
     810:	0004                	0x4
     812:	0501                	addi	a0,a0,0
     814:	0306                	slli	t1,t1,0x1
     816:	0900                	addi	s0,sp,144
     818:	0002                	c.slli64	zero
     81a:	0501                	addi	a0,a0,0
     81c:	0605                	addi	a2,a2,1
     81e:	02090103          	lb	sp,32(s2)
     822:	0100                	addi	s0,sp,128
     824:	0f05                	addi	t5,t5,1
     826:	0306                	slli	t1,t1,0x1
     828:	0900                	addi	s0,sp,144
     82a:	0000                	unimp
     82c:	0501                	addi	a0,a0,0
     82e:	0605                	addi	a2,a2,1
     830:	04090103          	lb	sp,64(s2)
     834:	0100                	addi	s0,sp,128
     836:	1205                	addi	tp,tp,-31
     838:	0306                	slli	t1,t1,0x1
     83a:	0900                	addi	s0,sp,144
     83c:	0000                	unimp
     83e:	0501                	addi	a0,a0,0
     840:	030a                	slli	t1,t1,0x2
     842:	0900                	addi	s0,sp,144
     844:	0004                	0x4
     846:	0501                	addi	a0,a0,0
     848:	0605                	addi	a2,a2,1
     84a:	02090103          	lb	sp,32(s2)
     84e:	0100                	addi	s0,sp,128
     850:	1205                	addi	tp,tp,-31
     852:	0306                	slli	t1,t1,0x1
     854:	0900                	addi	s0,sp,144
     856:	0000                	unimp
     858:	0501                	addi	a0,a0,0
     85a:	030a                	slli	t1,t1,0x2
     85c:	0900                	addi	s0,sp,144
     85e:	0004                	0x4
     860:	0501                	addi	a0,a0,0
     862:	0605                	addi	a2,a2,1
     864:	02090103          	lb	sp,32(s2)
     868:	0100                	addi	s0,sp,128
     86a:	1805                	addi	a6,a6,-31
     86c:	0306                	slli	t1,t1,0x1
     86e:	0900                	addi	s0,sp,144
     870:	0000                	unimp
     872:	0501                	addi	a0,a0,0
     874:	030a                	slli	t1,t1,0x2
     876:	0900                	addi	s0,sp,144
     878:	0004                	0x4
     87a:	0501                	addi	a0,a0,0
     87c:	0605                	addi	a2,a2,1
     87e:	02090203          	lb	tp,32(s2)
     882:	0100                	addi	s0,sp,128
     884:	00090103          	lb	sp,0(s2)
     888:	0100                	addi	s0,sp,128
     88a:	1005                	c.nop	-31
     88c:	0306                	slli	t1,t1,0x1
     88e:	097f                	0x97f
     890:	0000                	unimp
     892:	0501                	addi	a0,a0,0
     894:	0103060b          	0x103060b
     898:	0209                	addi	tp,tp,2
     89a:	0100                	addi	s0,sp,128
     89c:	2205                	addiw	tp,tp,1
     89e:	0306                	slli	t1,t1,0x1
     8a0:	0900                	addi	s0,sp,144
     8a2:	0000                	unimp
     8a4:	0501                	addi	a0,a0,0
     8a6:	0900030b          	0x900030b
     8aa:	0004                	0x4
     8ac:	0501                	addi	a0,a0,0
     8ae:	01030607          	0x1030607
     8b2:	0409                	addi	s0,s0,2
     8b4:	0100                	addi	s0,sp,128
     8b6:	0c05                	addi	s8,s8,1
     8b8:	0306                	slli	t1,t1,0x1
     8ba:	0900                	addi	s0,sp,144
     8bc:	0000                	unimp
     8be:	0501                	addi	a0,a0,0
     8c0:	0309                	addi	t1,t1,2
     8c2:	0900                	addi	s0,sp,144
     8c4:	0002                	c.slli64	zero
     8c6:	0501                	addi	a0,a0,0
     8c8:	0902030b          	0x902030b
     8cc:	0006                	c.slli	zero,0x1
     8ce:	0601                	addi	a2,a2,0
     8d0:	02090103          	lb	sp,32(s2)
     8d4:	0100                	addi	s0,sp,128
     8d6:	1d05                	addi	s10,s10,-31
     8d8:	0306                	slli	t1,t1,0x1
     8da:	0900                	addi	s0,sp,144
     8dc:	0000                	unimp
     8de:	0501                	addi	a0,a0,0
     8e0:	0900030b          	0x900030b
     8e4:	0004                	0x4
     8e6:	0501                	addi	a0,a0,0
     8e8:	01030607          	0x1030607
     8ec:	0409                	addi	s0,s0,2
     8ee:	0100                	addi	s0,sp,128
     8f0:	0c05                	addi	s8,s8,1
     8f2:	0306                	slli	t1,t1,0x1
     8f4:	0900                	addi	s0,sp,144
     8f6:	0000                	unimp
     8f8:	0501                	addi	a0,a0,0
     8fa:	0309                	addi	t1,t1,2
     8fc:	0900                	addi	s0,sp,144
     8fe:	0004                	0x4
     900:	0501                	addi	a0,a0,0
     902:	02030603          	lb	a2,32(t1)
     906:	0409                	addi	s0,s0,2
     908:	0100                	addi	s0,sp,128
     90a:	0105                	addi	sp,sp,1
     90c:	0306                	slli	t1,t1,0x1
     90e:	0901                	addi	s2,s2,0
     910:	0000                	unimp
     912:	0601                	addi	a2,a2,0
     914:	02090303          	lb	t1,32(s2)
     918:	0100                	addi	s0,sp,128
     91a:	0305                	addi	t1,t1,1
     91c:	00090103          	lb	sp,0(s2)
     920:	0100                	addi	s0,sp,128
     922:	00090103          	lb	sp,0(s2)
     926:	0100                	addi	s0,sp,128
     928:	0f05                	addi	t5,t5,1
     92a:	0306                	slli	t1,t1,0x1
     92c:	097f                	0x97f
     92e:	0000                	unimp
     930:	0501                	addi	a0,a0,0
     932:	0609                	addi	a2,a2,2
     934:	02090103          	lb	sp,32(s2)
     938:	0100                	addi	s0,sp,128
     93a:	0a05                	addi	s4,s4,1
     93c:	0306                	slli	t1,t1,0x1
     93e:	0900                	addi	s0,sp,144
     940:	0000                	unimp
     942:	0501                	addi	a0,a0,0
     944:	0309                	addi	t1,t1,2
     946:	0900                	addi	s0,sp,144
     948:	0004                	0x4
     94a:	0501                	addi	a0,a0,0
     94c:	0605                	addi	a2,a2,1
     94e:	02090103          	lb	sp,32(s2)
     952:	0100                	addi	s0,sp,128
     954:	0605                	addi	a2,a2,1
     956:	0306                	slli	t1,t1,0x1
     958:	0900                	addi	s0,sp,144
     95a:	0000                	unimp
     95c:	0501                	addi	a0,a0,0
     95e:	01030603          	lb	a2,16(t1)
     962:	0409                	addi	s0,s0,2
     964:	0100                	addi	s0,sp,128
     966:	0105                	addi	sp,sp,1
     968:	0306                	slli	t1,t1,0x1
     96a:	0901                	addi	s2,s2,0
     96c:	0000                	unimp
     96e:	0601                	addi	a2,a2,0
     970:	097da603          	lw	a2,151(s11)
     974:	0006                	c.slli	zero,0x1
     976:	0501                	addi	a0,a0,0
     978:	09010303          	lb	t1,144(sp)
     97c:	0008                	0x8
     97e:	0501                	addi	a0,a0,0
     980:	0601                	addi	a2,a2,0
     982:	12090103          	lb	sp,288(s2)
     986:	0100                	addi	s0,sp,128
     988:	0306                	slli	t1,t1,0x1
     98a:	090a                	slli	s2,s2,0x2
     98c:	0008                	0x8
     98e:	0501                	addi	a0,a0,0
     990:	09020303          	lb	t1,144(tp) # 90 <_tbss_end+0x4c>
     994:	0004                	0x4
     996:	0301                	addi	t1,t1,0
     998:	0901                	addi	s2,s2,0
     99a:	000c                	0xc
     99c:	0501                	addi	a0,a0,0
     99e:	0601                	addi	a2,a2,0
     9a0:	00090103          	lb	sp,0(s2)
     9a4:	0100                	addi	s0,sp,128
     9a6:	0306                	slli	t1,t1,0x1
     9a8:	0935                	addi	s2,s2,13
     9aa:	0008                	0x8
     9ac:	0501                	addi	a0,a0,0
     9ae:	09010303          	lb	t1,144(sp)
     9b2:	0004                	0x4
     9b4:	0301                	addi	t1,t1,0
     9b6:	0901                	addi	s2,s2,0
     9b8:	0000                	unimp
     9ba:	0301                	addi	t1,t1,0
     9bc:	0901                	addi	s2,s2,0
     9be:	0000                	unimp
     9c0:	0501                	addi	a0,a0,0
     9c2:	060a                	slli	a2,a2,0x2
     9c4:	00090003          	lb	zero,0(s2)
     9c8:	0100                	addi	s0,sp,128
     9ca:	0305                	addi	t1,t1,1
     9cc:	02090003          	lb	zero,32(s2)
     9d0:	0100                	addi	s0,sp,128
     9d2:	1b05                	addi	s6,s6,-31
     9d4:	02090203          	lb	tp,32(s2)
     9d8:	0100                	addi	s0,sp,128
     9da:	0b05                	addi	s6,s6,1
     9dc:	0200                	addi	s0,sp,256
     9de:	0404                	addi	s1,sp,512
     9e0:	04090003          	lb	zero,64(s2)
     9e4:	0100                	addi	s0,sp,128
     9e6:	1b05                	addi	s6,s6,-31
     9e8:	0200                	addi	s0,sp,256
     9ea:	0404                	addi	s1,sp,512
     9ec:	04090003          	lb	zero,64(s2)
     9f0:	0100                	addi	s0,sp,128
     9f2:	0f05                	addi	t5,t5,1
     9f4:	0200                	addi	s0,sp,256
     9f6:	0404                	addi	s1,sp,512
     9f8:	02090003          	lb	zero,32(s2)
     9fc:	0100                	addi	s0,sp,128
     9fe:	0505                	addi	a0,a0,1
     a00:	0200                	addi	s0,sp,256
     a02:	0404                	addi	s1,sp,512
     a04:	0306                	slli	t1,t1,0x1
     a06:	0901                	addi	s2,s2,0
     a08:	0008                	0x8
     a0a:	0501                	addi	a0,a0,0
     a0c:	04020007          	0x4020007
     a10:	0604                	addi	s1,sp,768
     a12:	00090003          	lb	zero,0(s2)
     a16:	0100                	addi	s0,sp,128
     a18:	1705                	addi	a4,a4,-31
     a1a:	0200                	addi	s0,sp,256
     a1c:	0404                	addi	s1,sp,512
     a1e:	0306                	slli	t1,t1,0x1
     a20:	097d                	addi	s2,s2,31
     a22:	0002                	c.slli64	zero
     a24:	0501                	addi	a0,a0,0
     a26:	0018                	0x18
     a28:	0402                	c.slli64	s0
     a2a:	0604                	addi	s1,sp,768
     a2c:	00090003          	lb	zero,0(s2)
     a30:	0100                	addi	s0,sp,128
     a32:	0f05                	addi	t5,t5,1
     a34:	0200                	addi	s0,sp,256
     a36:	0204                	addi	s1,sp,256
     a38:	0306                	slli	t1,t1,0x1
     a3a:	0900                	addi	s0,sp,144
     a3c:	0002                	c.slli64	zero
     a3e:	0501                	addi	a0,a0,0
     a40:	04020003          	lb	zero,64(tp) # 40 <buflen.2955>
     a44:	0602                	c.slli64	a2
     a46:	00090003          	lb	zero,0(s2)
     a4a:	0100                	addi	s0,sp,128
     a4c:	0505                	addi	a0,a0,1
     a4e:	0306                	slli	t1,t1,0x1
     a50:	0902                	c.slli64	s2
     a52:	0006                	c.slli	zero,0x1
     a54:	0501                	addi	a0,a0,0
     a56:	0614                	addi	a3,sp,768
     a58:	00090003          	lb	zero,0(s2)
     a5c:	0100                	addi	s0,sp,128
     a5e:	1b05                	addi	s6,s6,-31
     a60:	04090003          	lb	zero,64(s2)
     a64:	0100                	addi	s0,sp,128
     a66:	0305                	addi	t1,t1,1
     a68:	0306                	slli	t1,t1,0x1
     a6a:	000c0903          	lb	s2,0(s8) # 18000 <_tbss_end+0x17fbc>
     a6e:	0501                	addi	a0,a0,0
     a70:	0003060b          	0x3060b
     a74:	0009                	c.nop	2
     a76:	0100                	addi	s0,sp,128
     a78:	0305                	addi	t1,t1,1
     a7a:	0306                	slli	t1,t1,0x1
     a7c:	0902                	c.slli64	s2
     a7e:	0004                	0x4
     a80:	0501                	addi	a0,a0,0
     a82:	0601                	addi	a2,a2,0
     a84:	06090103          	lb	sp,96(s2)
     a88:	0100                	addi	s0,sp,128
     a8a:	0306                	slli	t1,t1,0x1
     a8c:	028d                	addi	t0,t0,3
     a8e:	0609                	addi	a2,a2,2
     a90:	0100                	addi	s0,sp,128
     a92:	0305                	addi	t1,t1,1
     a94:	00090103          	lb	sp,0(s2)
     a98:	0100                	addi	s0,sp,128
     a9a:	00090103          	lb	sp,0(s2)
     a9e:	0100                	addi	s0,sp,128
     aa0:	0f05                	addi	t5,t5,1
     aa2:	0306                	slli	t1,t1,0x1
     aa4:	097f                	0x97f
     aa6:	0000                	unimp
     aa8:	0501                	addi	a0,a0,0
     aaa:	0609                	addi	a2,a2,2
     aac:	02090103          	lb	sp,32(s2)
     ab0:	0100                	addi	s0,sp,128
     ab2:	0b05                	addi	s6,s6,1
     ab4:	0306                	slli	t1,t1,0x1
     ab6:	0900                	addi	s0,sp,144
     ab8:	0000                	unimp
     aba:	0501                	addi	a0,a0,0
     abc:	0309                	addi	t1,t1,2
     abe:	0900                	addi	s0,sp,144
     ac0:	0004                	0x4
     ac2:	0501                	addi	a0,a0,0
     ac4:	0011                	c.nop	4
     ac6:	0402                	c.slli64	s0
     ac8:	0301                	addi	t1,t1,0
     aca:	0900                	addi	s0,sp,144
     acc:	0002                	c.slli64	zero
     ace:	0501                	addi	a0,a0,0
     ad0:	000e                	c.slli	zero,0x3
     ad2:	0402                	c.slli64	s0
     ad4:	0301                	addi	t1,t1,0
     ad6:	0900                	addi	s0,sp,144
     ad8:	0004                	0x4
     ada:	0501                	addi	a0,a0,0
     adc:	0605                	addi	a2,a2,1
     ade:	02090103          	lb	sp,32(s2)
     ae2:	0100                	addi	s0,sp,128
     ae4:	0605                	addi	a2,a2,1
     ae6:	0306                	slli	t1,t1,0x1
     ae8:	0900                	addi	s0,sp,144
     aea:	0000                	unimp
     aec:	0501                	addi	a0,a0,0
     aee:	097f030b          	0x97f030b
     af2:	0002                	c.slli64	zero
     af4:	0501                	addi	a0,a0,0
     af6:	02030603          	lb	a2,32(t1)
     afa:	0409                	addi	s0,s0,2
     afc:	0100                	addi	s0,sp,128
     afe:	0105                	addi	sp,sp,1
     b00:	0306                	slli	t1,t1,0x1
     b02:	0901                	addi	s2,s2,0
     b04:	0000                	unimp
     b06:	0601                	addi	a2,a2,0
     b08:	097e9a03          	lh	s4,151(t4)
     b0c:	0006                	c.slli	zero,0x1
     b0e:	0501                	addi	a0,a0,0
     b10:	0909030b          	0x909030b
     b14:	001a                	c.slli	zero,0x6
     b16:	0501                	addi	a0,a0,0
     b18:	0610                	addi	a2,sp,768
     b1a:	00090003          	lb	zero,0(s2)
     b1e:	0100                	addi	s0,sp,128
     b20:	0b05                	addi	s6,s6,1
     b22:	04090003          	lb	zero,64(s2)
     b26:	0100                	addi	s0,sp,128
     b28:	0705                	addi	a4,a4,1
     b2a:	0306                	slli	t1,t1,0x1
     b2c:	0901                	addi	s2,s2,0
     b2e:	0008                	0x8
     b30:	0501                	addi	a0,a0,0
     b32:	060a                	slli	a2,a2,0x2
     b34:	00090003          	lb	zero,0(s2)
     b38:	0100                	addi	s0,sp,128
     b3a:	0705                	addi	a4,a4,1
     b3c:	0306                	slli	t1,t1,0x1
     b3e:	0902                	c.slli64	s2
     b40:	0004                	0x4
     b42:	0501                	addi	a0,a0,0
     b44:	060a                	slli	a2,a2,0x2
     b46:	00090003          	lb	zero,0(s2)
     b4a:	0100                	addi	s0,sp,128
     b4c:	0705                	addi	a4,a4,1
     b4e:	0306                	slli	t1,t1,0x1
     b50:	0901                	addi	s2,s2,0
     b52:	0002                	c.slli64	zero
     b54:	0501                	addi	a0,a0,0
     b56:	0305                	addi	t1,t1,1
     b58:	0902                	c.slli64	s2
     b5a:	0006                	c.slli	zero,0x1
     b5c:	0501                	addi	a0,a0,0
     b5e:	0608                	addi	a0,sp,768
     b60:	00090003          	lb	zero,0(s2)
     b64:	0100                	addi	s0,sp,128
     b66:	0505                	addi	a0,a0,1
     b68:	0306                	slli	t1,t1,0x1
     b6a:	00040903          	lb	s2,0(s0) # 60000 <_tbss_end+0x5ffbc>
     b6e:	0301                	addi	t1,t1,0
     b70:	0901                	addi	s2,s2,0
     b72:	0000                	unimp
     b74:	0301                	addi	t1,t1,0
     b76:	0901                	addi	s2,s2,0
     b78:	0000                	unimp
     b7a:	0301                	addi	t1,t1,0
     b7c:	0901                	addi	s2,s2,0
     b7e:	0000                	unimp
     b80:	0301                	addi	t1,t1,0
     b82:	0901                	addi	s2,s2,0
     b84:	0000                	unimp
     b86:	0301                	addi	t1,t1,0
     b88:	0901                	addi	s2,s2,0
     b8a:	0000                	unimp
     b8c:	0501                	addi	a0,a0,0
     b8e:	0608                	addi	a0,sp,768
     b90:	00097803          	0x97803
     b94:	0100                	addi	s0,sp,128
     b96:	0a05                	addi	s4,s4,1
     b98:	02090403          	lb	s0,32(s2)
     b9c:	0100                	addi	s0,sp,128
     b9e:	0f05                	addi	t5,t5,1
     ba0:	04090203          	lb	tp,64(s2)
     ba4:	0100                	addi	s0,sp,128
     ba6:	0b05                	addi	s6,s6,1
     ba8:	02097f03          	0x2097f03
     bac:	0100                	addi	s0,sp,128
     bae:	02090203          	lb	tp,32(s2)
     bb2:	0100                	addi	s0,sp,128
     bb4:	0505                	addi	a0,a0,1
     bb6:	0306                	slli	t1,t1,0x1
     bb8:	00020903          	lb	s2,0(tp) # 0 <_tdata_begin>
     bbc:	0501                	addi	a0,a0,0
     bbe:	00030613          	mv	a2,t1
     bc2:	0009                	c.nop	2
     bc4:	0100                	addi	s0,sp,128
     bc6:	1205                	addi	tp,tp,-31
     bc8:	04090003          	lb	zero,64(s2)
     bcc:	0100                	addi	s0,sp,128
     bce:	1005                	c.nop	-31
     bd0:	04090003          	lb	zero,64(s2)
     bd4:	0100                	addi	s0,sp,128
     bd6:	0c05                	addi	s8,s8,1
     bd8:	28090903          	lb	s2,640(s2)
     bdc:	0100                	addi	s0,sp,128
     bde:	1305                	addi	t1,t1,-31
     be0:	02097703          	0x2097703
     be4:	0100                	addi	s0,sp,128
     be6:	1005                	c.nop	-31
     be8:	04090003          	lb	zero,64(s2)
     bec:	0100                	addi	s0,sp,128
     bee:	0905                	addi	s2,s2,1
     bf0:	0306                	slli	t1,t1,0x1
     bf2:	00060917          	auipc	s2,0x60
     bf6:	0501                	addi	a0,a0,0
     bf8:	061f 0003 0009      	0x90003061f
     bfe:	0100                	addi	s0,sp,128
     c00:	2405                	addiw	s0,s0,1
     c02:	0c090003          	lb	zero,192(s2) # 60cb2 <_tbss_end+0x60c6e>
     c06:	0100                	addi	s0,sp,128
     c08:	1305                	addi	t1,t1,-31
     c0a:	02090003          	lb	zero,32(s2)
     c0e:	0100                	addi	s0,sp,128
     c10:	0905                	addi	s2,s2,1
     c12:	0306                	slli	t1,t1,0x1
     c14:	0901                	addi	s2,s2,0
     c16:	0004                	0x4
     c18:	0501                	addi	a0,a0,0
     c1a:	060e                	slli	a2,a2,0x3
     c1c:	00090003          	lb	zero,0(s2)
     c20:	0100                	addi	s0,sp,128
     c22:	0c05                	addi	s8,s8,1
     c24:	04090003          	lb	zero,64(s2)
     c28:	0100                	addi	s0,sp,128
     c2a:	0905                	addi	s2,s2,1
     c2c:	0306                	slli	t1,t1,0x1
     c2e:	0901                	addi	s2,s2,0
     c30:	0004                	0x4
     c32:	0501                	addi	a0,a0,0
     c34:	0616                	slli	a2,a2,0x5
     c36:	00090003          	lb	zero,0(s2)
     c3a:	0100                	addi	s0,sp,128
     c3c:	0c05                	addi	s8,s8,1
     c3e:	04090003          	lb	zero,64(s2)
     c42:	0100                	addi	s0,sp,128
     c44:	1d05                	addi	s10,s10,-31
     c46:	0306                	slli	t1,t1,0x1
     c48:	097d                	addi	s2,s2,31
     c4a:	0006                	c.slli	zero,0x1
     c4c:	0501                	addi	a0,a0,0
     c4e:	0900031b          	addiw	t1,zero,144
     c52:	0002                	c.slli64	zero
     c54:	0501                	addi	a0,a0,0
     c56:	01030613          	addi	a2,t1,16
     c5a:	0009                	c.nop	2
     c5c:	0100                	addi	s0,sp,128
     c5e:	0705                	addi	a4,a4,1
     c60:	0306                	slli	t1,t1,0x1
     c62:	0908                	addi	a0,sp,144
     c64:	0002                	c.slli64	zero
     c66:	0501                	addi	a0,a0,0
     c68:	0611                	addi	a2,a2,4
     c6a:	00090003          	lb	zero,0(s2)
     c6e:	0100                	addi	s0,sp,128
     c70:	0705                	addi	a4,a4,1
     c72:	0306                	slli	t1,t1,0x1
     c74:	0901                	addi	s2,s2,0
     c76:	000c                	0xc
     c78:	0501                	addi	a0,a0,0
     c7a:	60030613          	addi	a2,t1,1536
     c7e:	0009                	c.nop	2
     c80:	0100                	addi	s0,sp,128
     c82:	0705                	addi	a4,a4,1
     c84:	0306                	slli	t1,t1,0x1
     c86:	092c                	addi	a1,sp,152
     c88:	0002                	c.slli64	zero
     c8a:	0501                	addi	a0,a0,0
     c8c:	060a                	slli	a2,a2,0x2
     c8e:	00090003          	lb	zero,0(s2)
     c92:	0100                	addi	s0,sp,128
     c94:	0f05                	addi	t5,t5,1
     c96:	04090103          	lb	sp,64(s2)
     c9a:	0100                	addi	s0,sp,128
     c9c:	2605                	addiw	a2,a2,1
     c9e:	02090003          	lb	zero,32(s2)
     ca2:	0100                	addi	s0,sp,128
     ca4:	0705                	addi	a4,a4,1
     ca6:	0306                	slli	t1,t1,0x1
     ca8:	0901                	addi	s2,s2,0
     caa:	0002                	c.slli64	zero
     cac:	0301                	addi	t1,t1,0
     cae:	0975                	addi	s2,s2,29
     cb0:	0002                	c.slli64	zero
     cb2:	0501                	addi	a0,a0,0
     cb4:	060a                	slli	a2,a2,0x2
     cb6:	00090003          	lb	zero,0(s2)
     cba:	0100                	addi	s0,sp,128
     cbc:	0705                	addi	a4,a4,1
     cbe:	0306                	slli	t1,t1,0x1
     cc0:	0902                	c.slli64	s2
     cc2:	0004                	0x4
     cc4:	0501                	addi	a0,a0,0
     cc6:	5b030613          	addi	a2,t1,1456
     cca:	0009                	c.nop	2
     ccc:	0100                	addi	s0,sp,128
     cce:	0705                	addi	a4,a4,1
     cd0:	02092503          	lw	a0,32(s2)
     cd4:	0100                	addi	s0,sp,128
     cd6:	0f05                	addi	t5,t5,1
     cd8:	02097f03          	0x2097f03
     cdc:	0100                	addi	s0,sp,128
     cde:	0705                	addi	a4,a4,1
     ce0:	0306                	slli	t1,t1,0x1
     ce2:	0904                	addi	s1,sp,144
     ce4:	0004                	0x4
     ce6:	0301                	addi	t1,t1,0
     ce8:	0901                	addi	s2,s2,0
     cea:	0000                	unimp
     cec:	0501                	addi	a0,a0,0
     cee:	57030613          	addi	a2,t1,1392
     cf2:	0009                	c.nop	2
     cf4:	0100                	addi	s0,sp,128
     cf6:	0705                	addi	a4,a4,1
     cf8:	02092903          	lw	s2,32(s2)
     cfc:	0100                	addi	s0,sp,128
     cfe:	0306                	slli	t1,t1,0x1
     d00:	0909                	addi	s2,s2,2
     d02:	0006                	c.slli	zero,0x1
     d04:	0501                	addi	a0,a0,0
     d06:	060c                	addi	a1,sp,768
     d08:	00090003          	lb	zero,0(s2)
     d0c:	0100                	addi	s0,sp,128
     d0e:	0705                	addi	a4,a4,1
     d10:	0306                	slli	t1,t1,0x1
     d12:	0901                	addi	s2,s2,0
     d14:	0002                	c.slli64	zero
     d16:	0501                	addi	a0,a0,0
     d18:	4d030613          	addi	a2,t1,1232
     d1c:	0009                	c.nop	2
     d1e:	0100                	addi	s0,sp,128
     d20:	0705                	addi	a4,a4,1
     d22:	02093303          	ld	t1,32(s2)
     d26:	0100                	addi	s0,sp,128
     d28:	0306                	slli	t1,t1,0x1
     d2a:	0904                	addi	s1,sp,144
     d2c:	0002                	c.slli64	zero
     d2e:	0301                	addi	t1,t1,0
     d30:	0901                	addi	s2,s2,0
     d32:	000e                	c.slli	zero,0x3
     d34:	0301                	addi	t1,t1,0
     d36:	0904                	addi	s1,sp,144
     d38:	0002                	c.slli64	zero
     d3a:	0501                	addi	a0,a0,0
     d3c:	060e                	slli	a2,a2,0x3
     d3e:	00090003          	lb	zero,0(s2)
     d42:	0100                	addi	s0,sp,128
     d44:	0a05                	addi	s4,s4,1
     d46:	0c090003          	lb	zero,192(s2)
     d4a:	0100                	addi	s0,sp,128
     d4c:	0705                	addi	a4,a4,1
     d4e:	0306                	slli	t1,t1,0x1
     d50:	0902                	c.slli64	s2
     d52:	0004                	0x4
     d54:	0501                	addi	a0,a0,0
     d56:	060a                	slli	a2,a2,0x2
     d58:	00090003          	lb	zero,0(s2)
     d5c:	0100                	addi	s0,sp,128
     d5e:	1505                	addi	a0,a0,-31
     d60:	0200                	addi	s0,sp,256
     d62:	0104                	addi	s1,sp,128
     d64:	04090003          	lb	zero,64(s2)
     d68:	0100                	addi	s0,sp,128
     d6a:	0905                	addi	s2,s2,1
     d6c:	0306                	slli	t1,t1,0x1
     d6e:	0901                	addi	s2,s2,0
     d70:	0008                	0x8
     d72:	0501                	addi	a0,a0,0
     d74:	00030617          	auipc	a2,0x30
     d78:	0009                	c.nop	2
     d7a:	0100                	addi	s0,sp,128
     d7c:	1405                	addi	s0,s0,-31
     d7e:	08090003          	lb	zero,128(s2)
     d82:	0100                	addi	s0,sp,128
     d84:	0905                	addi	s2,s2,1
     d86:	04090003          	lb	zero,64(s2)
     d8a:	0100                	addi	s0,sp,128
     d8c:	0b05                	addi	s6,s6,1
     d8e:	02097e03          	0x2097e03
     d92:	0100                	addi	s0,sp,128
     d94:	0200                	addi	s0,sp,256
     d96:	0304                	addi	s1,sp,384
     d98:	0306                	slli	t1,t1,0x1
     d9a:	000a0903          	lb	s2,0(s4)
     d9e:	0501                	addi	a0,a0,0
     da0:	0039                	c.nop	14
     da2:	0402                	c.slli64	s0
     da4:	097f0303          	lb	t1,151(t5)
     da8:	0008                	0x8
     daa:	0501                	addi	a0,a0,0
     dac:	003e                	c.slli	zero,0xf
     dae:	0402                	c.slli64	s0
     db0:	00030603          	lb	a2,0(t1)
     db4:	0009                	c.nop	2
     db6:	0100                	addi	s0,sp,128
     db8:	2e05                	addiw	t3,t3,1
     dba:	0200                	addi	s0,sp,256
     dbc:	0104                	addi	s1,sp,128
     dbe:	0306                	slli	t1,t1,0x1
     dc0:	0900                	addi	s0,sp,144
     dc2:	0002                	c.slli64	zero
     dc4:	0501                	addi	a0,a0,0
     dc6:	0009                	c.nop	2
     dc8:	0402                	c.slli64	s0
     dca:	0601                	addi	a2,a2,0
     dcc:	00090003          	lb	zero,0(s2)
     dd0:	0100                	addi	s0,sp,128
     dd2:	0200                	addi	s0,sp,256
     dd4:	0504                	addi	s1,sp,640
     dd6:	0306                	slli	t1,t1,0x1
     dd8:	00060903          	lb	s2,0(a2) # 30d74 <_tbss_end+0x30d30>
     ddc:	0001                	nop
     dde:	0402                	c.slli64	s0
     de0:	0305                	addi	t1,t1,1
     de2:	0901                	addi	s2,s2,0
     de4:	0004                	0x4
     de6:	0501                	addi	a0,a0,0
     de8:	000a                	c.slli	zero,0x2
     dea:	0402                	c.slli64	s0
     dec:	0605                	addi	a2,a2,1
     dee:	00090003          	lb	zero,0(s2)
     df2:	0100                	addi	s0,sp,128
     df4:	4805                	li	a6,1
     df6:	0200                	addi	s0,sp,256
     df8:	0504                	addi	s1,sp,640
     dfa:	0306                	slli	t1,t1,0x1
     dfc:	097e                	slli	s2,s2,0x1f
     dfe:	0002                	c.slli64	zero
     e00:	0501                	addi	a0,a0,0
     e02:	004d                	c.nop	19
     e04:	0402                	c.slli64	s0
     e06:	0605                	addi	a2,a2,1
     e08:	00090003          	lb	zero,0(s2)
     e0c:	0100                	addi	s0,sp,128
     e0e:	0e05                	addi	t3,t3,1
     e10:	0200                	addi	s0,sp,256
     e12:	0104                	addi	s1,sp,128
     e14:	0306                	slli	t1,t1,0x1
     e16:	0900                	addi	s0,sp,144
     e18:	0002                	c.slli64	zero
     e1a:	0501                	addi	a0,a0,0
     e1c:	0012                	c.slli	zero,0x4
     e1e:	0402                	c.slli64	s0
     e20:	0601                	addi	a2,a2,0
     e22:	00090003          	lb	zero,0(s2)
     e26:	0100                	addi	s0,sp,128
     e28:	0705                	addi	a4,a4,1
     e2a:	0200                	addi	s0,sp,256
     e2c:	0104                	addi	s1,sp,128
     e2e:	04090003          	lb	zero,64(s2)
     e32:	0100                	addi	s0,sp,128
     e34:	2005                	0x2005
     e36:	0200                	addi	s0,sp,256
     e38:	0204                	addi	s1,sp,256
     e3a:	02090003          	lb	zero,32(s2)
     e3e:	0100                	addi	s0,sp,128
     e40:	3205                	addiw	tp,tp,-31
     e42:	0200                	addi	s0,sp,256
     e44:	0404                	addi	s1,sp,512
     e46:	04090003          	lb	zero,64(s2)
     e4a:	0100                	addi	s0,sp,128
     e4c:	0905                	addi	s2,s2,1
     e4e:	0200                	addi	s0,sp,256
     e50:	0204                	addi	s1,sp,256
     e52:	0306                	slli	t1,t1,0x1
     e54:	0905                	addi	s2,s2,1
     e56:	0008                	0x8
     e58:	0501                	addi	a0,a0,0
     e5a:	0019                	c.nop	6
     e5c:	0402                	c.slli64	s0
     e5e:	0302                	c.slli64	t1
     e60:	097f                	0x97f
     e62:	0008                	0x8
     e64:	0501                	addi	a0,a0,0
     e66:	001e                	c.slli	zero,0x7
     e68:	0402                	c.slli64	s0
     e6a:	0602                	c.slli64	a2
     e6c:	00090003          	lb	zero,0(s2)
     e70:	0100                	addi	s0,sp,128
     e72:	0e05                	addi	t3,t3,1
     e74:	0200                	addi	s0,sp,256
     e76:	0104                	addi	s1,sp,128
     e78:	0306                	slli	t1,t1,0x1
     e7a:	0900                	addi	s0,sp,144
     e7c:	0002                	c.slli64	zero
     e7e:	0501                	addi	a0,a0,0
     e80:	04020007          	0x4020007
     e84:	0601                	addi	a2,a2,0
     e86:	00090003          	lb	zero,0(s2)
     e8a:	0100                	addi	s0,sp,128
     e8c:	0306                	slli	t1,t1,0x1
     e8e:	0906                	slli	s2,s2,0x1
     e90:	0006                	c.slli	zero,0x1
     e92:	0501                	addi	a0,a0,0
     e94:	060d                	addi	a2,a2,3
     e96:	00090003          	lb	zero,0(s2)
     e9a:	0100                	addi	s0,sp,128
     e9c:	0705                	addi	a4,a4,1
     e9e:	0306                	slli	t1,t1,0x1
     ea0:	0901                	addi	s2,s2,0
     ea2:	0008                	0x8
     ea4:	0501                	addi	a0,a0,0
     ea6:	060a                	slli	a2,a2,0x2
     ea8:	00090003          	lb	zero,0(s2)
     eac:	0100                	addi	s0,sp,128
     eae:	0705                	addi	a4,a4,1
     eb0:	0306                	slli	t1,t1,0x1
     eb2:	0904                	addi	s1,sp,144
     eb4:	0004                	0x4
     eb6:	0301                	addi	t1,t1,0
     eb8:	0901                	addi	s2,s2,0
     eba:	0000                	unimp
     ebc:	0501                	addi	a0,a0,0
     ebe:	060c                	addi	a1,sp,768
     ec0:	00097f03          	0x97f03
     ec4:	0100                	addi	s0,sp,128
     ec6:	0705                	addi	a4,a4,1
     ec8:	02090103          	lb	sp,32(s2)
     ecc:	0100                	addi	s0,sp,128
     ece:	0905                	addi	s2,s2,1
     ed0:	0306                	slli	t1,t1,0x1
     ed2:	097c                	addi	a5,sp,156
     ed4:	0002                	c.slli64	zero
     ed6:	0301                	addi	t1,t1,0
     ed8:	0901                	addi	s2,s2,0
     eda:	0008                	0x8
     edc:	0501                	addi	a0,a0,0
     ede:	0003060f          	0x3060f
     ee2:	0009                	c.nop	2
     ee4:	0100                	addi	s0,sp,128
     ee6:	0705                	addi	a4,a4,1
     ee8:	0306                	slli	t1,t1,0x1
     eea:	090d                	addi	s2,s2,3
     eec:	0006                	c.slli	zero,0x1
     eee:	0301                	addi	t1,t1,0
     ef0:	0901                	addi	s2,s2,0
     ef2:	0000                	unimp
     ef4:	0501                	addi	a0,a0,0
     ef6:	060c                	addi	a1,sp,768
     ef8:	00097f03          	0x97f03
     efc:	0100                	addi	s0,sp,128
     efe:	0705                	addi	a4,a4,1
     f00:	0306                	slli	t1,t1,0x1
     f02:	0002090f          	0x2090f
     f06:	0501                	addi	a0,a0,0
     f08:	060d                	addi	a2,a2,3
     f0a:	00090003          	lb	zero,0(s2)
     f0e:	0100                	addi	s0,sp,128
     f10:	0705                	addi	a4,a4,1
     f12:	0306                	slli	t1,t1,0x1
     f14:	0902                	c.slli64	s2
     f16:	0006                	c.slli	zero,0x1
     f18:	0501                	addi	a0,a0,0
     f1a:	7ed40303          	lb	t1,2029(s0)
     f1e:	0609                	addi	a2,a2,2
     f20:	0100                	addi	s0,sp,128
     f22:	00090103          	lb	sp,0(s2)
     f26:	0100                	addi	s0,sp,128
     f28:	0705                	addi	a4,a4,1
     f2a:	0306                	slli	t1,t1,0x1
     f2c:	0900                	addi	s0,sp,144
     f2e:	0000                	unimp
     f30:	0501                	addi	a0,a0,0
     f32:	02030603          	lb	a2,32(t1)
     f36:	0209                	addi	tp,tp,2
     f38:	0100                	addi	s0,sp,128
     f3a:	0505                	addi	a0,a0,1
     f3c:	00090203          	lb	tp,0(s2)
     f40:	0100                	addi	s0,sp,128
     f42:	1705                	addi	a4,a4,-31
     f44:	0306                	slli	t1,t1,0x1
     f46:	0900                	addi	s0,sp,144
     f48:	0000                	unimp
     f4a:	0501                	addi	a0,a0,0
     f4c:	030d                	addi	t1,t1,3
     f4e:	0900                	addi	s0,sp,144
     f50:	000a                	c.slli	zero,0x2
     f52:	0501                	addi	a0,a0,0
     f54:	0311                	addi	t1,t1,4
     f56:	0900                	addi	s0,sp,144
     f58:	0004                	0x4
     f5a:	0501                	addi	a0,a0,0
     f5c:	0605                	addi	a2,a2,1
     f5e:	0a090103          	lb	sp,160(s2)
     f62:	0100                	addi	s0,sp,128
     f64:	0805                	addi	a6,a6,1
     f66:	0306                	slli	t1,t1,0x1
     f68:	0900                	addi	s0,sp,144
     f6a:	0000                	unimp
     f6c:	0501                	addi	a0,a0,0
     f6e:	0605                	addi	a2,a2,1
     f70:	04090203          	lb	tp,64(s2)
     f74:	0100                	addi	s0,sp,128
     f76:	0905                	addi	s2,s2,1
     f78:	0306                	slli	t1,t1,0x1
     f7a:	0900                	addi	s0,sp,144
     f7c:	0000                	unimp
     f7e:	0601                	addi	a2,a2,0
     f80:	04097b03          	0x4097b03
     f84:	0100                	addi	s0,sp,128
     f86:	0d05                	addi	s10,s10,1
     f88:	0306                	slli	t1,t1,0x1
     f8a:	0902                	c.slli64	s2
     f8c:	0000                	unimp
     f8e:	0501                	addi	a0,a0,0
     f90:	0311                	addi	t1,t1,4
     f92:	0900                	addi	s0,sp,144
     f94:	0002                	c.slli64	zero
     f96:	0501                	addi	a0,a0,0
     f98:	9b030607          	0x9b030607
     f9c:	0901                	addi	s2,s2,0
     f9e:	0002                	c.slli64	zero
     fa0:	0301                	addi	t1,t1,0
     fa2:	0900                	addi	s0,sp,144
     fa4:	0000                	unimp
     fa6:	0501                	addi	a0,a0,0
     fa8:	09000333          	0x9000333
     fac:	0000                	unimp
     fae:	0501                	addi	a0,a0,0
     fb0:	09010307          	0x9010307
     fb4:	0000                	unimp
     fb6:	0301                	addi	t1,t1,0
     fb8:	0901                	addi	s2,s2,0
     fba:	0000                	unimp
     fbc:	0301                	addi	t1,t1,0
     fbe:	0901                	addi	s2,s2,0
     fc0:	0008                	0x8
     fc2:	0501                	addi	a0,a0,0
     fc4:	060d                	addi	a2,a2,3
     fc6:	08097e03          	0x8097e03
     fca:	0100                	addi	s0,sp,128
     fcc:	0c05                	addi	s8,s8,1
     fce:	02090703          	lb	a4,32(s2)
     fd2:	0100                	addi	s0,sp,128
     fd4:	04096d03          	lwu	s10,64(s2)
     fd8:	0100                	addi	s0,sp,128
     fda:	0905                	addi	s2,s2,1
     fdc:	0306                	slli	t1,t1,0x1
     fde:	7ef6                	ld	t4,376(sp)
     fe0:	0409                	addi	s0,s0,2
     fe2:	0100                	addi	s0,sp,128
     fe4:	0f05                	addi	t5,t5,1
     fe6:	0306                	slli	t1,t1,0x1
     fe8:	0900                	addi	s0,sp,144
     fea:	0000                	unimp
     fec:	0501                	addi	a0,a0,0
     fee:	0309                	addi	t1,t1,2
     ff0:	0900                	addi	s0,sp,144
     ff2:	0004                	0x4
     ff4:	0501                	addi	a0,a0,0
     ff6:	0605                	addi	a2,a2,1
     ff8:	04090103          	lb	sp,64(s2)
     ffc:	0100                	addi	s0,sp,128
     ffe:	0f05                	addi	t5,t5,1
    1000:	0306                	slli	t1,t1,0x1
    1002:	097f                	0x97f
    1004:	0006                	c.slli	zero,0x1
    1006:	0501                	addi	a0,a0,0
    1008:	09040333          	0x9040333
    100c:	0004                	0x4
    100e:	0501                	addi	a0,a0,0
    1010:	0305                	addi	t1,t1,1
    1012:	0900                	addi	s0,sp,144
    1014:	0004                	0x4
    1016:	0501                	addi	a0,a0,0
    1018:	030d                	addi	t1,t1,3
    101a:	097f                	0x97f
    101c:	0006                	c.slli	zero,0x1
    101e:	0501                	addi	a0,a0,0
    1020:	0609                	addi	a2,a2,2
    1022:	02090003          	lb	zero,32(s2)
    1026:	0100                	addi	s0,sp,128
    1028:	0d05                	addi	s10,s10,1
    102a:	0306                	slli	t1,t1,0x1
    102c:	0900                	addi	s0,sp,144
    102e:	0000                	unimp
    1030:	0501                	addi	a0,a0,0
    1032:	0309                	addi	t1,t1,2
    1034:	0900                	addi	s0,sp,144
    1036:	0004                	0x4
    1038:	0501                	addi	a0,a0,0
    103a:	0605                	addi	a2,a2,1
    103c:	04090103          	lb	sp,64(s2)
    1040:	0100                	addi	s0,sp,128
    1042:	0f05                	addi	t5,t5,1
    1044:	0306                	slli	t1,t1,0x1
    1046:	0900                	addi	s0,sp,144
    1048:	0000                	unimp
    104a:	0501                	addi	a0,a0,0
    104c:	09000333          	0x9000333
    1050:	000c                	0xc
    1052:	0501                	addi	a0,a0,0
    1054:	a2030607          	0xa2030607
    1058:	0901                	addi	s2,s2,0
    105a:	000c                	0xc
    105c:	0301                	addi	t1,t1,0
    105e:	0901                	addi	s2,s2,0
    1060:	0004                	0x4
    1062:	0301                	addi	t1,t1,0
    1064:	0904                	addi	s1,sp,144
    1066:	0002                	c.slli64	zero
    1068:	0301                	addi	t1,t1,0
    106a:	0901                	addi	s2,s2,0
    106c:	0008                	0x8
    106e:	0301                	addi	t1,t1,0
    1070:	0901                	addi	s2,s2,0
    1072:	0000                	unimp
    1074:	0501                	addi	a0,a0,0
    1076:	7f03060b          	0x7f03060b
    107a:	0009                	c.nop	2
    107c:	0100                	addi	s0,sp,128
    107e:	0305                	addi	t1,t1,1
    1080:	0306                	slli	t1,t1,0x1
    1082:	7ef1                	lui	t4,0xffffc
    1084:	0209                	addi	tp,tp,2
    1086:	0100                	addi	s0,sp,128
    1088:	00090103          	lb	sp,0(s2)
    108c:	0100                	addi	s0,sp,128
    108e:	00090103          	lb	sp,0(s2)
    1092:	0100                	addi	s0,sp,128
    1094:	00090103          	lb	sp,0(s2)
    1098:	0100                	addi	s0,sp,128
    109a:	00090103          	lb	sp,0(s2)
    109e:	0100                	addi	s0,sp,128
    10a0:	00090103          	lb	sp,0(s2)
    10a4:	0100                	addi	s0,sp,128
    10a6:	00090203          	lb	tp,0(s2)
    10aa:	0100                	addi	s0,sp,128
    10ac:	0505                	addi	a0,a0,1
    10ae:	00090103          	lb	sp,0(s2)
    10b2:	0100                	addi	s0,sp,128
    10b4:	0b05                	addi	s6,s6,1
    10b6:	0306                	slli	t1,t1,0x1
    10b8:	0900                	addi	s0,sp,144
    10ba:	0000                	unimp
    10bc:	0501                	addi	a0,a0,0
    10be:	0301                	addi	t1,t1,0
    10c0:	0209018b          	0x209018b
    10c4:	0100                	addi	s0,sp,128
    10c6:	0306                	slli	t1,t1,0x1
    10c8:	00140903          	lb	s2,1(s0)
    10cc:	0501                	addi	a0,a0,0
    10ce:	09010303          	lb	t1,144(sp)
    10d2:	0012                	c.slli	zero,0x4
    10d4:	0301                	addi	t1,t1,0
    10d6:	0901                	addi	s2,s2,0
    10d8:	0000                	unimp
    10da:	0301                	addi	t1,t1,0
    10dc:	0902                	c.slli64	s2
    10de:	0004                	0x4
    10e0:	0301                	addi	t1,t1,0
    10e2:	0902                	c.slli64	s2
    10e4:	0010                	0x10
    10e6:	0301                	addi	t1,t1,0
    10e8:	0901                	addi	s2,s2,0
    10ea:	0000                	unimp
    10ec:	0501                	addi	a0,a0,0
    10ee:	0601                	addi	a2,a2,0
    10f0:	00090103          	lb	sp,0(s2)
    10f4:	0100                	addi	s0,sp,128
    10f6:	0306                	slli	t1,t1,0x1
    10f8:	7dda                	ld	s11,432(sp)
    10fa:	0809                	addi	a6,a6,2
    10fc:	0100                	addi	s0,sp,128
    10fe:	0305                	addi	t1,t1,1
    1100:	06090103          	lb	sp,96(s2)
    1104:	0100                	addi	s0,sp,128
    1106:	0e090103          	lb	sp,224(s2)
    110a:	0100                	addi	s0,sp,128
    110c:	0105                	addi	sp,sp,1
    110e:	04093f03          	ld	t5,64(s2)
    1112:	0100                	addi	s0,sp,128
    1114:	0305                	addi	t1,t1,1
    1116:	08090203          	lb	tp,128(s2)
    111a:	0100                	addi	s0,sp,128
    111c:	0d05                	addi	s10,s10,1
    111e:	0306                	slli	t1,t1,0x1
    1120:	0900                	addi	s0,sp,144
    1122:	0000                	unimp
    1124:	0501                	addi	a0,a0,0
    1126:	02030603          	lb	a2,32(t1)
    112a:	0a09                	addi	s4,s4,2
    112c:	0100                	addi	s0,sp,128
    112e:	00090103          	lb	sp,0(s2)
    1132:	0100                	addi	s0,sp,128
    1134:	00090103          	lb	sp,0(s2)
    1138:	0100                	addi	s0,sp,128
    113a:	0805                	addi	a6,a6,1
    113c:	00090003          	lb	zero,0(s2)
    1140:	0100                	addi	s0,sp,128
    1142:	0c05                	addi	s8,s8,1
    1144:	0306                	slli	t1,t1,0x1
    1146:	0900                	addi	s0,sp,144
    1148:	0000                	unimp
    114a:	0501                	addi	a0,a0,0
    114c:	09000303          	lb	t1,144(zero) # 90 <_tbss_end+0x4c>
    1150:	0002                	c.slli64	zero
    1152:	0501                	addi	a0,a0,0
    1154:	0604                	addi	s1,sp,768
    1156:	02090203          	lb	tp,32(s2)
    115a:	0100                	addi	s0,sp,128
    115c:	2505                	addiw	a0,a0,1
    115e:	0200                	addi	s0,sp,256
    1160:	0204                	addi	s1,sp,256
    1162:	18097e03          	0x18097e03
    1166:	0100                	addi	s0,sp,128
    1168:	2605                	addiw	a2,a2,1
    116a:	0200                	addi	s0,sp,256
    116c:	0204                	addi	s1,sp,256
    116e:	0306                	slli	t1,t1,0x1
    1170:	0900                	addi	s0,sp,144
    1172:	0000                	unimp
    1174:	0501                	addi	a0,a0,0
    1176:	04020013          	addi	zero,tp,64 # 40 <buflen.2955>
    117a:	0601                	addi	a2,a2,0
    117c:	02090003          	lb	zero,32(s2)
    1180:	0100                	addi	s0,sp,128
    1182:	0305                	addi	t1,t1,1
    1184:	0200                	addi	s0,sp,256
    1186:	0104                	addi	s1,sp,128
    1188:	0306                	slli	t1,t1,0x1
    118a:	0900                	addi	s0,sp,144
    118c:	0000                	unimp
    118e:	0501                	addi	a0,a0,0
    1190:	0605                	addi	a2,a2,1
    1192:	06090103          	lb	sp,96(s2)
    1196:	0100                	addi	s0,sp,128
    1198:	1105                	addi	sp,sp,-31
    119a:	0306                	slli	t1,t1,0x1
    119c:	0900                	addi	s0,sp,144
    119e:	0000                	unimp
    11a0:	0501                	addi	a0,a0,0
    11a2:	0308                	addi	a0,sp,384
    11a4:	0900                	addi	s0,sp,144
    11a6:	0010                	0x10
    11a8:	0501                	addi	a0,a0,0
    11aa:	03030603          	lb	a2,48(t1)
    11ae:	0409                	addi	s0,s0,2
    11b0:	0100                	addi	s0,sp,128
    11b2:	0105                	addi	sp,sp,1
    11b4:	0901de03          	lhu	t3,144(gp) # 340f0090 <_tbss_end+0x340f004c>
    11b8:	0006                	c.slli	zero,0x1
    11ba:	0501                	addi	a0,a0,0
    11bc:	09010303          	lb	t1,144(sp)
    11c0:	0014                	0x14
    11c2:	0301                	addi	t1,t1,0
    11c4:	0901                	addi	s2,s2,0
    11c6:	0000                	unimp
    11c8:	0501                	addi	a0,a0,0
    11ca:	0609                	addi	a2,a2,2
    11cc:	00090003          	lb	zero,0(s2)
    11d0:	0100                	addi	s0,sp,128
    11d2:	0305                	addi	t1,t1,1
    11d4:	0306                	slli	t1,t1,0x1
    11d6:	0901                	addi	s2,s2,0
    11d8:	0002                	c.slli64	zero
    11da:	0301                	addi	t1,t1,0
    11dc:	0902                	c.slli64	s2
    11de:	0004                	0x4
    11e0:	0301                	addi	t1,t1,0
    11e2:	00000907          	0x907
    11e6:	0301                	addi	t1,t1,0
    11e8:	0901                	addi	s2,s2,0
    11ea:	0010                	0x10
    11ec:	0501                	addi	a0,a0,0
    11ee:	0608                	addi	a0,sp,768
    11f0:	02090003          	lb	zero,32(s2)
    11f4:	0100                	addi	s0,sp,128
    11f6:	0305                	addi	t1,t1,1
    11f8:	0306                	slli	t1,t1,0x1
    11fa:	0902                	c.slli64	s2
    11fc:	0004                	0x4
    11fe:	0301                	addi	t1,t1,0
    1200:	0901                	addi	s2,s2,0
    1202:	0000                	unimp
    1204:	0501                	addi	a0,a0,0
    1206:	0601                	addi	a2,a2,0
    1208:	00090103          	lb	sp,0(s2)
    120c:	0100                	addi	s0,sp,128
    120e:	0306                	slli	t1,t1,0x1
    1210:	0936                	slli	s2,s2,0xd
    1212:	000c                	0xc
    1214:	0501                	addi	a0,a0,0
    1216:	04020003          	lb	zero,64(tp) # 40 <buflen.2955>
    121a:	0302                	c.slli64	t1
    121c:	0901                	addi	s2,s2,0
    121e:	0000                	unimp
    1220:	0001                	nop
    1222:	0402                	c.slli64	s0
    1224:	0302                	c.slli64	t1
    1226:	0902                	c.slli64	s2
    1228:	0000                	unimp
    122a:	0501                	addi	a0,a0,0
    122c:	0005                	c.nop	1
    122e:	0402                	c.slli64	s0
    1230:	0302                	c.slli64	t1
    1232:	0901                	addi	s2,s2,0
    1234:	0000                	unimp
    1236:	0501                	addi	a0,a0,0
    1238:	0008                	0x8
    123a:	0402                	c.slli64	s0
    123c:	0602                	c.slli64	a2
    123e:	00090003          	lb	zero,0(s2)
    1242:	0100                	addi	s0,sp,128
    1244:	0505                	addi	a0,a0,1
    1246:	0200                	addi	s0,sp,256
    1248:	0204                	addi	s1,sp,256
    124a:	0306                	slli	t1,t1,0x1
    124c:	0901                	addi	s2,s2,0
    124e:	0006                	c.slli	zero,0x1
    1250:	0501                	addi	a0,a0,0
    1252:	0008                	0x8
    1254:	0402                	c.slli64	s0
    1256:	0602                	c.slli64	a2
    1258:	00090003          	lb	zero,0(s2)
    125c:	0100                	addi	s0,sp,128
    125e:	0b05                	addi	s6,s6,1
    1260:	0200                	addi	s0,sp,256
    1262:	0204                	addi	s1,sp,256
    1264:	0306                	slli	t1,t1,0x1
    1266:	0901                	addi	s2,s2,0
    1268:	0006                	c.slli	zero,0x1
    126a:	0501                	addi	a0,a0,0
    126c:	04020003          	lb	zero,64(tp) # 40 <buflen.2955>
    1270:	0602                	c.slli64	a2
    1272:	00090003          	lb	zero,0(s2)
    1276:	0100                	addi	s0,sp,128
    1278:	1505                	addi	a0,a0,-31
    127a:	0200                	addi	s0,sp,256
    127c:	0104                	addi	s1,sp,128
    127e:	04090003          	lb	zero,64(s2)
    1282:	0100                	addi	s0,sp,128
    1284:	0305                	addi	t1,t1,1
    1286:	0306                	slli	t1,t1,0x1
    1288:	0902                	c.slli64	s2
    128a:	0002                	c.slli64	zero
    128c:	0501                	addi	a0,a0,0
    128e:	0601                	addi	a2,a2,0
    1290:	00090103          	lb	sp,0(s2)
    1294:	0100                	addi	s0,sp,128
    1296:	0306                	slli	t1,t1,0x1
    1298:	00060903          	lb	s2,0(a2)
    129c:	0501                	addi	a0,a0,0
    129e:	09010303          	lb	t1,144(sp)
    12a2:	0000                	unimp
    12a4:	0301                	addi	t1,t1,0
    12a6:	0901                	addi	s2,s2,0
    12a8:	0000                	unimp
    12aa:	0501                	addi	a0,a0,0
    12ac:	0609                	addi	a2,a2,2
    12ae:	00097f03          	0x97f03
    12b2:	0100                	addi	s0,sp,128
    12b4:	0505                	addi	a0,a0,1
    12b6:	0200                	addi	s0,sp,256
    12b8:	0104                	addi	s1,sp,128
    12ba:	0306                	slli	t1,t1,0x1
    12bc:	0902                	c.slli64	s2
    12be:	0002                	c.slli64	zero
    12c0:	0501                	addi	a0,a0,0
    12c2:	0009                	c.nop	2
    12c4:	0402                	c.slli64	s0
    12c6:	0301                	addi	t1,t1,0
    12c8:	097f                	0x97f
    12ca:	0000                	unimp
    12cc:	0501                	addi	a0,a0,0
    12ce:	0012                	c.slli	zero,0x4
    12d0:	0402                	c.slli64	s0
    12d2:	0601                	addi	a2,a2,0
    12d4:	00090003          	lb	zero,0(s2)
    12d8:	0100                	addi	s0,sp,128
    12da:	1005                	c.nop	-31
    12dc:	0200                	addi	s0,sp,256
    12de:	0104                	addi	s1,sp,128
    12e0:	06090003          	lb	zero,96(s2)
    12e4:	0100                	addi	s0,sp,128
    12e6:	0905                	addi	s2,s2,1
    12e8:	0200                	addi	s0,sp,256
    12ea:	0104                	addi	s1,sp,128
    12ec:	06090003          	lb	zero,96(s2)
    12f0:	0100                	addi	s0,sp,128
    12f2:	0105                	addi	sp,sp,1
    12f4:	02090303          	lb	t1,32(s2)
    12f8:	0100                	addi	s0,sp,128
    12fa:	0306                	slli	t1,t1,0x1
    12fc:	00020903          	lb	s2,0(tp) # 0 <_tdata_begin>
    1300:	0501                	addi	a0,a0,0
    1302:	09010303          	lb	t1,144(sp)
    1306:	0002                	c.slli64	zero
    1308:	0301                	addi	t1,t1,0
    130a:	0901                	addi	s2,s2,0
    130c:	0000                	unimp
    130e:	0301                	addi	t1,t1,0
    1310:	0902                	c.slli64	s2
    1312:	0000                	unimp
    1314:	0501                	addi	a0,a0,0
    1316:	0309                	addi	t1,t1,2
    1318:	0900                	addi	s0,sp,144
    131a:	0000                	unimp
    131c:	0501                	addi	a0,a0,0
    131e:	060a                	slli	a2,a2,0x2
    1320:	00090003          	lb	zero,0(s2)
    1324:	0100                	addi	s0,sp,128
    1326:	0905                	addi	s2,s2,1
    1328:	04090003          	lb	zero,64(s2)
    132c:	0100                	addi	s0,sp,128
    132e:	0505                	addi	a0,a0,1
    1330:	0306                	slli	t1,t1,0x1
    1332:	0901                	addi	s2,s2,0
    1334:	0008                	0x8
    1336:	0501                	addi	a0,a0,0
    1338:	0608                	addi	a0,sp,768
    133a:	00090003          	lb	zero,0(s2)
    133e:	0100                	addi	s0,sp,128
    1340:	0305                	addi	t1,t1,1
    1342:	0306                	slli	t1,t1,0x1
    1344:	0902                	c.slli64	s2
    1346:	0004                	0x4
    1348:	0501                	addi	a0,a0,0
    134a:	0606                	slli	a2,a2,0x1
    134c:	00090003          	lb	zero,0(s2)
    1350:	0100                	addi	s0,sp,128
    1352:	1305                	addi	t1,t1,-31
    1354:	0200                	addi	s0,sp,256
    1356:	0104                	addi	s1,sp,128
    1358:	08090003          	lb	zero,128(s2)
    135c:	0100                	addi	s0,sp,128
    135e:	0705                	addi	a4,a4,1
    1360:	08097b03          	0x8097b03
    1364:	0100                	addi	s0,sp,128
    1366:	0505                	addi	a0,a0,1
    1368:	0306                	slli	t1,t1,0x1
    136a:	0906                	slli	s2,s2,0x1
    136c:	0004                	0x4
    136e:	0501                	addi	a0,a0,0
    1370:	0611                	addi	a2,a2,4
    1372:	00090003          	lb	zero,0(s2)
    1376:	0100                	addi	s0,sp,128
    1378:	0a05                	addi	s4,s4,1
    137a:	04090003          	lb	zero,64(s2)
    137e:	0100                	addi	s0,sp,128
    1380:	0505                	addi	a0,a0,1
    1382:	0306                	slli	t1,t1,0x1
    1384:	0901                	addi	s2,s2,0
    1386:	0004                	0x4
    1388:	0501                	addi	a0,a0,0
    138a:	0608                	addi	a0,sp,768
    138c:	00090003          	lb	zero,0(s2)
    1390:	0100                	addi	s0,sp,128
    1392:	0705                	addi	a4,a4,1
    1394:	02097903          	0x2097903
    1398:	0100                	addi	s0,sp,128
    139a:	0505                	addi	a0,a0,1
    139c:	0306                	slli	t1,t1,0x1
    139e:	0004090b          	0x4090b
    13a2:	0501                	addi	a0,a0,0
    13a4:	0609                	addi	a2,a2,2
    13a6:	00090003          	lb	zero,0(s2)
    13aa:	0100                	addi	s0,sp,128
    13ac:	0505                	addi	a0,a0,1
    13ae:	0306                	slli	t1,t1,0x1
    13b0:	0901                	addi	s2,s2,0
    13b2:	0008                	0x8
    13b4:	0501                	addi	a0,a0,0
    13b6:	0610                	addi	a2,sp,768
    13b8:	00090003          	lb	zero,0(s2)
    13bc:	0100                	addi	s0,sp,128
    13be:	1305                	addi	t1,t1,-31
    13c0:	02090003          	lb	zero,32(s2)
    13c4:	0100                	addi	s0,sp,128
    13c6:	0905                	addi	s2,s2,1
    13c8:	04090003          	lb	zero,64(s2)
    13cc:	0100                	addi	s0,sp,128
    13ce:	0306                	slli	t1,t1,0x1
    13d0:	097e                	slli	s2,s2,0x1f
    13d2:	0004                	0x4
    13d4:	0501                	addi	a0,a0,0
    13d6:	060a                	slli	a2,a2,0x2
    13d8:	00090003          	lb	zero,0(s2)
    13dc:	0100                	addi	s0,sp,128
    13de:	0905                	addi	s2,s2,1
    13e0:	04090003          	lb	zero,64(s2)
    13e4:	0100                	addi	s0,sp,128
    13e6:	0305                	addi	t1,t1,1
    13e8:	0306                	slli	t1,t1,0x1
    13ea:	0905                	addi	s2,s2,1
    13ec:	0002                	c.slli64	zero
    13ee:	0501                	addi	a0,a0,0
    13f0:	0616                	slli	a2,a2,0x5
    13f2:	00090003          	lb	zero,0(s2)
    13f6:	0100                	addi	s0,sp,128
    13f8:	0200                	addi	s0,sp,256
    13fa:	0104                	addi	s1,sp,128
    13fc:	02090003          	lb	zero,32(s2)
    1400:	0100                	addi	s0,sp,128
    1402:	0105                	addi	sp,sp,1
    1404:	04090103          	lb	sp,64(s2)
    1408:	0100                	addi	s0,sp,128
    140a:	0209                	addi	tp,tp,2
    140c:	0000                	unimp
    140e:	0101                	addi	sp,sp,0
    1410:	0279                	addi	tp,tp,30
    1412:	0000                	unimp
    1414:	00250003          	lb	zero,2(a0) # 19002 <_tbss_end+0x18fbe>
    1418:	0000                	unimp
    141a:	0101                	addi	sp,sp,0
    141c:	000d0efb          	0xd0efb
    1420:	0101                	addi	sp,sp,0
    1422:	0101                	addi	sp,sp,0
    1424:	0000                	unimp
    1426:	0100                	addi	s0,sp,128
    1428:	0000                	unimp
    142a:	2e01                	sext.w	t3,t3
    142c:	6d6f632f          	0x6d6f632f
    1430:	6f6d                	lui	t5,0x1b
    1432:	006e                	c.slli	zero,0x1b
    1434:	6300                	ld	s0,0(a4)
    1436:	7472                	ld	s0,312(sp)
    1438:	532e                	lw	t1,232(sp)
    143a:	0100                	addi	s0,sp,128
    143c:	0000                	unimp
    143e:	0000                	unimp
    1440:	0209                	addi	tp,tp,2
    1442:	0000                	unimp
    1444:	8000                	0x8000
    1446:	0000                	unimp
    1448:	0000                	unimp
    144a:	03011303          	lh	t1,48(sp)
    144e:	0901                	addi	s2,s2,0
    1450:	0002                	c.slli64	zero
    1452:	0301                	addi	t1,t1,0
    1454:	00040903          	lb	s2,0(s0)
    1458:	0301                	addi	t1,t1,0
    145a:	0901                	addi	s2,s2,0
    145c:	0002                	c.slli64	zero
    145e:	0301                	addi	t1,t1,0
    1460:	0902                	c.slli64	s2
    1462:	0002                	c.slli64	zero
    1464:	0301                	addi	t1,t1,0
    1466:	0905                	addi	s2,s2,1
    1468:	0004                	0x4
    146a:	0301                	addi	t1,t1,0
    146c:	0901                	addi	s2,s2,0
    146e:	0002                	c.slli64	zero
    1470:	0301                	addi	t1,t1,0
    1472:	0905                	addi	s2,s2,1
    1474:	0004                	0x4
    1476:	0301                	addi	t1,t1,0
    1478:	0901                	addi	s2,s2,0
    147a:	0008                	0x8
    147c:	0301                	addi	t1,t1,0
    147e:	0902                	c.slli64	s2
    1480:	0004                	0x4
    1482:	0301                	addi	t1,t1,0
    1484:	0905                	addi	s2,s2,1
    1486:	0004                	0x4
    1488:	0301                	addi	t1,t1,0
    148a:	0901                	addi	s2,s2,0
    148c:	0008                	0x8
    148e:	0301                	addi	t1,t1,0
    1490:	0905                	addi	s2,s2,1
    1492:	0004                	0x4
    1494:	0301                	addi	t1,t1,0
    1496:	00080903          	lb	s2,0(a6)
    149a:	0301                	addi	t1,t1,0
    149c:	0901                	addi	s2,s2,0
    149e:	0004                	0x4
    14a0:	0301                	addi	t1,t1,0
    14a2:	00040903          	lb	s2,0(s0)
    14a6:	0301                	addi	t1,t1,0
    14a8:	0902                	c.slli64	s2
    14aa:	0004                	0x4
    14ac:	0301                	addi	t1,t1,0
    14ae:	0901                	addi	s2,s2,0
    14b0:	0002                	c.slli64	zero
    14b2:	0301                	addi	t1,t1,0
    14b4:	0904                	addi	s1,sp,144
    14b6:	0004                	0x4
    14b8:	0301                	addi	t1,t1,0
    14ba:	0901                	addi	s2,s2,0
    14bc:	0004                	0x4
    14be:	0301                	addi	t1,t1,0
    14c0:	0901                	addi	s2,s2,0
    14c2:	0002                	c.slli64	zero
    14c4:	0301                	addi	t1,t1,0
    14c6:	0901                	addi	s2,s2,0
    14c8:	0004                	0x4
    14ca:	0301                	addi	t1,t1,0
    14cc:	0901                	addi	s2,s2,0
    14ce:	0002                	c.slli64	zero
    14d0:	0301                	addi	t1,t1,0
    14d2:	0902                	c.slli64	s2
    14d4:	0002                	c.slli64	zero
    14d6:	0301                	addi	t1,t1,0
    14d8:	0904                	addi	s1,sp,144
    14da:	0004                	0x4
    14dc:	0301                	addi	t1,t1,0
    14de:	0902                	c.slli64	s2
    14e0:	0002                	c.slli64	zero
    14e2:	0301                	addi	t1,t1,0
    14e4:	0901                	addi	s2,s2,0
    14e6:	0002                	c.slli64	zero
    14e8:	0301                	addi	t1,t1,0
    14ea:	0901                	addi	s2,s2,0
    14ec:	0002                	c.slli64	zero
    14ee:	0301                	addi	t1,t1,0
    14f0:	0901                	addi	s2,s2,0
    14f2:	0002                	c.slli64	zero
    14f4:	0301                	addi	t1,t1,0
    14f6:	0901                	addi	s2,s2,0
    14f8:	0002                	c.slli64	zero
    14fa:	0301                	addi	t1,t1,0
    14fc:	0901                	addi	s2,s2,0
    14fe:	0002                	c.slli64	zero
    1500:	0301                	addi	t1,t1,0
    1502:	0901                	addi	s2,s2,0
    1504:	0002                	c.slli64	zero
    1506:	0301                	addi	t1,t1,0
    1508:	0901                	addi	s2,s2,0
    150a:	0002                	c.slli64	zero
    150c:	0301                	addi	t1,t1,0
    150e:	0901                	addi	s2,s2,0
    1510:	0002                	c.slli64	zero
    1512:	0301                	addi	t1,t1,0
    1514:	0901                	addi	s2,s2,0
    1516:	0002                	c.slli64	zero
    1518:	0301                	addi	t1,t1,0
    151a:	0901                	addi	s2,s2,0
    151c:	0002                	c.slli64	zero
    151e:	0301                	addi	t1,t1,0
    1520:	0901                	addi	s2,s2,0
    1522:	0002                	c.slli64	zero
    1524:	0301                	addi	t1,t1,0
    1526:	0901                	addi	s2,s2,0
    1528:	0002                	c.slli64	zero
    152a:	0301                	addi	t1,t1,0
    152c:	0901                	addi	s2,s2,0
    152e:	0002                	c.slli64	zero
    1530:	0301                	addi	t1,t1,0
    1532:	0901                	addi	s2,s2,0
    1534:	0002                	c.slli64	zero
    1536:	0301                	addi	t1,t1,0
    1538:	0901                	addi	s2,s2,0
    153a:	0002                	c.slli64	zero
    153c:	0301                	addi	t1,t1,0
    153e:	0901                	addi	s2,s2,0
    1540:	0002                	c.slli64	zero
    1542:	0301                	addi	t1,t1,0
    1544:	0901                	addi	s2,s2,0
    1546:	0002                	c.slli64	zero
    1548:	0301                	addi	t1,t1,0
    154a:	0901                	addi	s2,s2,0
    154c:	0002                	c.slli64	zero
    154e:	0301                	addi	t1,t1,0
    1550:	0901                	addi	s2,s2,0
    1552:	0002                	c.slli64	zero
    1554:	0301                	addi	t1,t1,0
    1556:	0901                	addi	s2,s2,0
    1558:	0002                	c.slli64	zero
    155a:	0301                	addi	t1,t1,0
    155c:	0901                	addi	s2,s2,0
    155e:	0002                	c.slli64	zero
    1560:	0301                	addi	t1,t1,0
    1562:	0901                	addi	s2,s2,0
    1564:	0002                	c.slli64	zero
    1566:	0301                	addi	t1,t1,0
    1568:	0901                	addi	s2,s2,0
    156a:	0002                	c.slli64	zero
    156c:	0301                	addi	t1,t1,0
    156e:	0901                	addi	s2,s2,0
    1570:	0002                	c.slli64	zero
    1572:	0301                	addi	t1,t1,0
    1574:	0901                	addi	s2,s2,0
    1576:	0002                	c.slli64	zero
    1578:	0301                	addi	t1,t1,0
    157a:	0901                	addi	s2,s2,0
    157c:	0002                	c.slli64	zero
    157e:	0301                	addi	t1,t1,0
    1580:	0901                	addi	s2,s2,0
    1582:	0002                	c.slli64	zero
    1584:	0301                	addi	t1,t1,0
    1586:	0901                	addi	s2,s2,0
    1588:	0002                	c.slli64	zero
    158a:	0301                	addi	t1,t1,0
    158c:	0901                	addi	s2,s2,0
    158e:	0002                	c.slli64	zero
    1590:	0301                	addi	t1,t1,0
    1592:	0901                	addi	s2,s2,0
    1594:	0002                	c.slli64	zero
    1596:	0301                	addi	t1,t1,0
    1598:	0902                	c.slli64	s2
    159a:	0002                	c.slli64	zero
    159c:	0301                	addi	t1,t1,0
    159e:	0901                	addi	s2,s2,0
    15a0:	0004                	0x4
    15a2:	0301                	addi	t1,t1,0
    15a4:	0901                	addi	s2,s2,0
    15a6:	0004                	0x4
    15a8:	0301                	addi	t1,t1,0
    15aa:	0901                	addi	s2,s2,0
    15ac:	0002                	c.slli64	zero
    15ae:	0301                	addi	t1,t1,0
    15b0:	0901                	addi	s2,s2,0
    15b2:	0004                	0x4
    15b4:	0301                	addi	t1,t1,0
    15b6:	00040903          	lb	s2,0(s0)
    15ba:	0301                	addi	t1,t1,0
    15bc:	0901                	addi	s2,s2,0
    15be:	0006                	c.slli	zero,0x1
    15c0:	0301                	addi	t1,t1,0
    15c2:	0902                	c.slli64	s2
    15c4:	0004                	0x4
    15c6:	0301                	addi	t1,t1,0
    15c8:	0901                	addi	s2,s2,0
    15ca:	0002                	c.slli64	zero
    15cc:	0301                	addi	t1,t1,0
    15ce:	0901                	addi	s2,s2,0
    15d0:	0002                	c.slli64	zero
    15d2:	0301                	addi	t1,t1,0
    15d4:	0901                	addi	s2,s2,0
    15d6:	0002                	c.slli64	zero
    15d8:	0301                	addi	t1,t1,0
    15da:	0901                	addi	s2,s2,0
    15dc:	0002                	c.slli64	zero
    15de:	0301                	addi	t1,t1,0
    15e0:	0901                	addi	s2,s2,0
    15e2:	0002                	c.slli64	zero
    15e4:	0301                	addi	t1,t1,0
    15e6:	0901                	addi	s2,s2,0
    15e8:	0002                	c.slli64	zero
    15ea:	0301                	addi	t1,t1,0
    15ec:	0901                	addi	s2,s2,0
    15ee:	0002                	c.slli64	zero
    15f0:	0301                	addi	t1,t1,0
    15f2:	0901                	addi	s2,s2,0
    15f4:	0002                	c.slli64	zero
    15f6:	0301                	addi	t1,t1,0
    15f8:	0901                	addi	s2,s2,0
    15fa:	0002                	c.slli64	zero
    15fc:	0301                	addi	t1,t1,0
    15fe:	0901                	addi	s2,s2,0
    1600:	0002                	c.slli64	zero
    1602:	0301                	addi	t1,t1,0
    1604:	0901                	addi	s2,s2,0
    1606:	0002                	c.slli64	zero
    1608:	0301                	addi	t1,t1,0
    160a:	0901                	addi	s2,s2,0
    160c:	0002                	c.slli64	zero
    160e:	0301                	addi	t1,t1,0
    1610:	0901                	addi	s2,s2,0
    1612:	0002                	c.slli64	zero
    1614:	0301                	addi	t1,t1,0
    1616:	0901                	addi	s2,s2,0
    1618:	0002                	c.slli64	zero
    161a:	0301                	addi	t1,t1,0
    161c:	0901                	addi	s2,s2,0
    161e:	0002                	c.slli64	zero
    1620:	0301                	addi	t1,t1,0
    1622:	0901                	addi	s2,s2,0
    1624:	0002                	c.slli64	zero
    1626:	0301                	addi	t1,t1,0
    1628:	0901                	addi	s2,s2,0
    162a:	0002                	c.slli64	zero
    162c:	0301                	addi	t1,t1,0
    162e:	0901                	addi	s2,s2,0
    1630:	0002                	c.slli64	zero
    1632:	0301                	addi	t1,t1,0
    1634:	0901                	addi	s2,s2,0
    1636:	0002                	c.slli64	zero
    1638:	0301                	addi	t1,t1,0
    163a:	0901                	addi	s2,s2,0
    163c:	0002                	c.slli64	zero
    163e:	0301                	addi	t1,t1,0
    1640:	0901                	addi	s2,s2,0
    1642:	0002                	c.slli64	zero
    1644:	0301                	addi	t1,t1,0
    1646:	0901                	addi	s2,s2,0
    1648:	0002                	c.slli64	zero
    164a:	0301                	addi	t1,t1,0
    164c:	0901                	addi	s2,s2,0
    164e:	0002                	c.slli64	zero
    1650:	0301                	addi	t1,t1,0
    1652:	0901                	addi	s2,s2,0
    1654:	0002                	c.slli64	zero
    1656:	0301                	addi	t1,t1,0
    1658:	0901                	addi	s2,s2,0
    165a:	0002                	c.slli64	zero
    165c:	0301                	addi	t1,t1,0
    165e:	0901                	addi	s2,s2,0
    1660:	0002                	c.slli64	zero
    1662:	0301                	addi	t1,t1,0
    1664:	0901                	addi	s2,s2,0
    1666:	0002                	c.slli64	zero
    1668:	0301                	addi	t1,t1,0
    166a:	0901                	addi	s2,s2,0
    166c:	0002                	c.slli64	zero
    166e:	0301                	addi	t1,t1,0
    1670:	0901                	addi	s2,s2,0
    1672:	0002                	c.slli64	zero
    1674:	0301                	addi	t1,t1,0
    1676:	0901                	addi	s2,s2,0
    1678:	0002                	c.slli64	zero
    167a:	0301                	addi	t1,t1,0
    167c:	0902                	c.slli64	s2
    167e:	0002                	c.slli64	zero
    1680:	0301                	addi	t1,t1,0
    1682:	0901                	addi	s2,s2,0
    1684:	0002                	c.slli64	zero
    1686:	0901                	addi	s2,s2,0
    1688:	0004                	0x4
    168a:	0100                	addi	s0,sp,128
    168c:	01              	Address 0x000000000000168c is out of bounds.


Disassembly of section .debug_str:

0000000000000000 <.debug_str>:
   0:	645f 6f73 685f      	0x685f6f73645f
   6:	6e61                	lui	t3,0x18
   8:	6c64                	ld	s1,216(s0)
   a:	0065                	c.nop	25
   c:	735f 7a69 0065      	0x657a69735f
  12:	725f 6e61 3464      	0x34646e61725f
  18:	0038                	addi	a4,sp,8
  1a:	655f 656d 6772      	0x6772656d655f
  20:	6e65                	lui	t3,0x19
  22:	5f007963          	bgeu	zero,a6,614 <_tbss_end+0x5d0>
  26:	6164                	ld	s1,192(a0)
  28:	6174                	ld	a3,192(a0)
  2a:	5f00                	lw	s0,56(a4)
  2c:	74726377          	0x74726377
  30:	5f626d6f          	jal	s10,26626 <_tbss_end+0x265e2>
  34:	74617473          	csrrci	s0,0x746,2
  38:	0065                	c.nop	25
  3a:	775f 7363 7472      	0x74727363775f
  40:	73626d6f          	jal	s10,26776 <_tbss_end+0x26732>
  44:	735f 6174 6574      	0x65746174735f
  4a:	6c00                	ld	s0,24(s0)
  4c:	20676e6f          	jal	t3,76252 <_tbss_end+0x7620e>
  50:	6f6c                	ld	a1,216(a4)
  52:	676e                	ld	a4,216(sp)
  54:	7520                	ld	s0,104(a0)
  56:	736e                	ld	t1,248(sp)
  58:	6769                	lui	a4,0x1a
  5a:	656e                	ld	a0,216(sp)
  5c:	2064                	fld	fs1,192(s0)
  5e:	6e69                	lui	t3,0x1a
  60:	0074                	addi	a3,sp,12
  62:	6c5f 6662 6973      	0x697366626c5f
  68:	657a                	ld	a0,408(sp)
  6a:	5f00                	lw	s0,56(a4)
  6c:	6c5f 636f 6c61      	0x6c61636f6c5f
  72:	5f65                	li	t5,-7
  74:	0074                	addi	a3,sp,12
  76:	6d5f 7262 6f74      	0x6f7472626d5f
  7c:	735f6377          	0x735f6377
  80:	6174                	ld	a3,192(a0)
  82:	6574                	ld	a3,200(a0)
  84:	5f00                	lw	s0,56(a4)
  86:	6f746377          	0x6f746377
  8a:	626d                	lui	tp,0x1b
  8c:	735f 6174 6574      	0x65746174735f
  92:	5f00                	lw	s0,56(a4)
  94:	745f 5f6d 6573      	0x65735f6d745f
  9a:	6f6c0063          	beq	s8,s6,77a <_tbss_end+0x736>
  9e:	676e                	ld	a4,216(sp)
  a0:	6c20                	ld	s0,88(s0)
  a2:	20676e6f          	jal	t3,762a8 <_tbss_end+0x76264>
  a6:	6e69                	lui	t3,0x1a
  a8:	0074                	addi	a3,sp,12
  aa:	20554e47          	fmsub.s	ft8,fa0,ft5,ft4,rmm
  ae:	20393943          	fmadd.s	fs2,fs2,ft3,ft4,rup
  b2:	2e39                	addiw	t3,t3,14
  b4:	2e32                	fld	ft8,264(sp)
  b6:	2030                	fld	fa2,64(s0)
  b8:	6d2d                	lui	s10,0xb
  ba:	646f6d63          	bltu	t5,t1,714 <_tbss_end+0x6d0>
  be:	6c65                	lui	s8,0x19
  c0:	6d3d                	lui	s10,0xf
  c2:	6465                	lui	s0,0x19
  c4:	6e61                	lui	t3,0x18
  c6:	2079                	0x2079
  c8:	6d2d                	lui	s10,0xb
  ca:	7261                	lui	tp,0xffff8
  cc:	723d6863          	bltu	s10,gp,7fc <_tbss_end+0x7b8>
  d0:	3676                	fld	fa2,376(sp)
  d2:	6934                	ld	a3,80(a0)
  d4:	616d                	addi	sp,sp,240
  d6:	6466                	ld	s0,88(sp)
  d8:	6d2d2063          	0x6d2d2063
  dc:	7574                	ld	a3,232(a0)
  de:	656e                	ld	a0,216(sp)
  e0:	723d                	lui	tp,0xfffef
  e2:	656b636f          	jal	t1,b6738 <_tbss_end+0xb66f4>
  e6:	2074                	fld	fa3,192(s0)
  e8:	6d2d                	lui	s10,0xb
  ea:	6261                	lui	tp,0x18
  ec:	3d69                	addiw	s10,s10,-6
  ee:	706c                	ld	a1,224(s0)
  f0:	3436                	fld	fs0,360(sp)
  f2:	2d20                	fld	fs0,88(a0)
  f4:	4f2d2067          	0x4f2d2067
  f8:	2032                	fld	ft0,264(sp)
  fa:	4f2d                	li	t5,11
  fc:	732d2067          	0x732d2067
 100:	6474                	ld	a3,200(s0)
 102:	673d                	lui	a4,0xf
 104:	756e                	ld	a0,248(sp)
 106:	3939                	addiw	s2,s2,-18
 108:	2d20                	fld	fs0,88(a0)
 10a:	6666                	ld	a2,88(sp)
 10c:	7361                	lui	t1,0xffff8
 10e:	2d74                	fld	fa3,216(a0)
 110:	616d                	addi	sp,sp,240
 112:	6874                	ld	a3,208(s0)
 114:	2d20                	fld	fs0,88(a0)
 116:	6e66                	ld	t3,88(sp)
 118:	6f632d6f          	jal	s10,3280e <_tbss_end+0x327ca>
 11c:	6d6d                	lui	s10,0x1b
 11e:	2d206e6f          	jal	t3,63f0 <_tbss_end+0x63ac>
 122:	6e66                	ld	t3,88(sp)
 124:	75622d6f          	jal	s10,2287a <_tbss_end+0x22836>
 128:	6c69                	lui	s8,0x1a
 12a:	6974                	ld	a3,208(a0)
 12c:	2d6e                	fld	fs10,216(sp)
 12e:	7270                	ld	a2,224(a2)
 130:	6e69                	lui	t3,0x1a
 132:	6674                	ld	a3,200(a2)
 134:	5f00                	lw	s0,56(a4)
 136:	6275                	lui	tp,0x1d
 138:	6675                	lui	a2,0x1d
 13a:	5f00                	lw	s0,56(a4)
 13c:	6162                	ld	sp,24(sp)
 13e:	5f006573          	csrrsi	a0,0x5f0,0
 142:	745f 5f6d 6f68      	0x6f685f6d745f
 148:	7275                	lui	tp,0xffffd
 14a:	5f00                	lw	s0,56(a4)
 14c:	735f 0066 6f5f      	0x6f5f0066735f
 152:	5f6e                	lw	t5,248(sp)
 154:	7865                	lui	a6,0xffff9
 156:	7469                	lui	s0,0xffffa
 158:	615f 6772 0073      	0x736772615f
 15e:	635f 6f6f 696b      	0x696b6f6f635f
 164:	0065                	c.nop	25
 166:	5f5f 6773 756c      	0x756c67735f5f
 16c:	0065                	c.nop	25
 16e:	665f 616c 7367      	0x7367616c665f
 174:	5f00                	lw	s0,56(a4)
 176:	7369                	lui	t1,0xffffa
 178:	635f 6178 5f00      	0x5f006178635f
 17e:	69647473          	csrrci	s0,0x696,8
 182:	006e                	c.slli	zero,0x1b
 184:	625f 6b6c 6973      	0x69736b6c625f
 18a:	657a                	ld	a0,408(sp)
 18c:	5f00                	lw	s0,56(a4)
 18e:	62747663          	bgeu	s0,t2,7ba <_tbss_end+0x776>
 192:	6675                	lui	a2,0x1d
 194:	5f00                	lw	s0,56(a4)
 196:	7366666f          	jal	a2,668cc <_tbss_end+0x66888>
 19a:	7465                	lui	s0,0xffff9
 19c:	5f00                	lw	s0,56(a4)
 19e:	626d                	lui	tp,0x1b
 1a0:	6f747273          	csrrci	tp,0x6f7,8
 1a4:	5f736377          	0x5f736377
 1a8:	74617473          	csrrci	s0,0x746,2
 1ac:	0065                	c.nop	25
 1ae:	6d5f 7262 656c      	0x656c72626d5f
 1b4:	5f6e                	lw	t5,248(sp)
 1b6:	74617473          	csrrci	s0,0x746,2
 1ba:	0065                	c.nop	25
 1bc:	665f 616e 6772      	0x6772616e665f
 1c2:	665f0073          	0x665f0073
 1c6:	736e                	ld	t1,248(sp)
 1c8:	5f00                	lw	s0,56(a4)
 1ca:	6e676973          	csrrsi	s2,0x6e6,14
 1ce:	5f00                	lw	s0,56(a4)
 1d0:	6c66                	ld	s8,88(sp)
 1d2:	5f6b636f          	jal	t1,b67c8 <_tbss_end+0xb6784>
 1d6:	0074                	addi	a3,sp,12
 1d8:	735f 6474 7265      	0x72656474735f
 1de:	0072                	c.slli	zero,0x1c
 1e0:	425f 6769 6e69      	0x6e696769425f
 1e6:	0074                	addi	a3,sp,12
 1e8:	675f 6d61 616d      	0x616d6d61675f
 1ee:	735f 6769 676e      	0x676e6769735f
 1f4:	6d61                	lui	s10,0x18
 1f6:	5f00                	lw	s0,56(a4)
 1f8:	6572                	ld	a0,280(sp)
 1fa:	6461                	lui	s0,0x18
 1fc:	5f00                	lw	s0,56(a4)
 1fe:	6572                	ld	a0,280(sp)
 200:	746c7573          	csrrci	a0,0x746,24
 204:	6b5f 5f00 745f      	0x745f5f006b5f
 20a:	006d                	c.nop	27
 20c:	5f5f 6377 6268      	0x626863775f5f
 212:	5f00                	lw	s0,56(a4)
 214:	6f647473          	csrrci	s0,0x6f6,8
 218:	7475                	lui	s0,0xffffd
 21a:	5f00                	lw	s0,56(a4)
 21c:	6c747663          	bgeu	s0,t2,8e8 <_tbss_end+0x8a4>
 220:	6e65                	lui	t3,0x19
 222:	5f00                	lw	s0,56(a4)
 224:	6966                	ld	s2,88(sp)
 226:	656c                	ld	a1,200(a0)
 228:	5f00                	lw	s0,56(a4)
 22a:	696e                	ld	s2,216(sp)
 22c:	0073626f          	jal	tp,36a32 <_tbss_end+0x369ee>
 230:	726f6873          	csrrsi	a6,0x726,30
 234:	2074                	fld	fa3,192(s0)
 236:	6e75                	lui	t3,0x1d
 238:	6e676973          	csrrsi	s2,0x6e6,14
 23c:	6465                	lui	s0,0x19
 23e:	6920                	ld	s0,80(a0)
 240:	746e                	ld	s0,248(sp)
 242:	5f00                	lw	s0,56(a4)
 244:	7461                	lui	s0,0xffff8
 246:	7865                	lui	a6,0xffff9
 248:	7469                	lui	s0,0xffffa
 24a:	0030                	addi	a2,sp,8
 24c:	735f 6769 616e      	0x616e6769735f
 252:	5f6c                	lw	a1,124(a4)
 254:	7562                	ld	a0,56(sp)
 256:	0066                	c.slli	zero,0x19
 258:	615f 6373 6974      	0x69746373615f
 25e:	656d                	lui	a0,0x1b
 260:	625f 6675 5f00      	0x5f006675625f
 266:	6572                	ld	a0,280(sp)
 268:	746c7573          	csrrci	a0,0x746,24
 26c:	5f00                	lw	s0,56(a4)
 26e:	775f 6863 7700      	0x77006863775f
 274:	6e69                	lui	t3,0x1a
 276:	5f74                	lw	a3,124(a4)
 278:	0074                	addi	a3,sp,12
 27a:	6c5f 636f 006b      	0x6b636f6c5f
 280:	665f 616c 7367      	0x7367616c665f
 286:	0032                	c.slli	zero,0xc
 288:	775f 6972 6574      	0x65746972775f
 28e:	5f00                	lw	s0,56(a4)
 290:	745f 5f6d 6579      	0x65795f6d745f
 296:	7261                	lui	tp,0xffff8
 298:	5f00                	lw	s0,56(a4)
 29a:	6d6e                	ld	s10,216(sp)
 29c:	6c61                	lui	s8,0x18
 29e:	6f6c                	ld	a1,216(a4)
 2a0:	6e5f0063          	beq	t5,t0,980 <_tbss_end+0x93c>
 2a4:	7865                	lui	a6,0xffff9
 2a6:	6674                	ld	a3,200(a2)
 2a8:	5f00                	lw	s0,56(a4)
 2aa:	745f 5f6d 6f6d      	0x6f6d5f6d745f
 2b0:	006e                	c.slli	zero,0x1b
 2b2:	615f 6574 6978      	0x69786574615f
 2b8:	0074                	addi	a3,sp,12
 2ba:	5f5f 6473 6469      	0x646964735f5f
 2c0:	6e69                	lui	t3,0x1a
 2c2:	7469                	lui	s0,0xffffa
 2c4:	5f00                	lw	s0,56(a4)
 2c6:	5f66666f          	jal	a2,668bc <_tbss_end+0x66878>
 2ca:	0074                	addi	a3,sp,12
 2cc:	6e6e692f          	0x6e6e692f
 2d0:	7265                	lui	tp,0xffff9
 2d2:	735f 6170 6563      	0x65636170735f
 2d8:	6769762f          	0x6769762f
 2dc:	6e68                	ld	a0,216(a2)
 2de:	7365                	lui	t1,0xffff9
 2e0:	2f68                	fld	fa0,216(a4)
 2e2:	75636573          	csrrsi	a0,0x756,6
 2e6:	6572                	ld	a0,280(sp)
 2e8:	625f 6f6f 2f74      	0x2f746f6f625f
 2ee:	696c                	ld	a1,208(a0)
 2f0:	0062                	c.slli	zero,0x18
 2f2:	665f 6572 6c65      	0x6c656572665f
 2f8:	7369                	lui	t1,0xffffa
 2fa:	0074                	addi	a3,sp,12
 2fc:	4c5f 434f 5f4b      	0x5f4b434f4c5f
 302:	4552                	lw	a0,20(sp)
 304:	53525543          	fmadd.d	fa0,ft4,fs5,fa0,unknown
 308:	5649                	li	a2,-14
 30a:	5f45                	li	t5,-15
 30c:	0054                	addi	a3,sp,4
 30e:	6e75                	lui	t3,0x1d
 310:	6e676973          	csrrsi	s2,0x6e6,14
 314:	6465                	lui	s0,0x19
 316:	6320                	ld	s0,64(a4)
 318:	6168                	ld	a0,192(a0)
 31a:	0072                	c.slli	zero,0x1c
 31c:	6e5f 7765 5f00      	0x5f0077656e5f
 322:	5f68                	lw	a0,124(a4)
 324:	7265                	lui	tp,0xffff9
 326:	6e72                	ld	t3,280(sp)
 328:	6873006f          	j	311ae <_tbss_end+0x3116a>
 32c:	2074726f          	jal	tp,47d32 <_tbss_end+0x47cee>
 330:	6e69                	lui	t3,0x1a
 332:	0074                	addi	a3,sp,12
 334:	5f5f 6d74 795f      	0x795f6d745f5f
 33a:	6164                	ld	s1,192(a0)
 33c:	0079                	c.nop	30
 33e:	5f5f 6273 6675      	0x667562735f5f
 344:	5f00                	lw	s0,56(a4)
 346:	6f69                	lui	t5,0x1a
 348:	7362                	ld	t1,56(sp)
 34a:	5f00                	lw	s0,56(a4)
 34c:	465f 4c49 0045      	0x454c49465f
 352:	6d5f 7362 6174      	0x617473626d5f
 358:	6574                	ld	a3,200(a0)
 35a:	745f 5f00 735f      	0x735f5f00745f
 360:	4946                	lw	s2,80(sp)
 362:	454c                	lw	a1,12(a0)
 364:	5f00                	lw	s0,56(a4)
 366:	626d                	lui	tp,0x1b
 368:	74617473          	csrrci	s0,0x746,2
 36c:	0065                	c.nop	25
 36e:	725f 6e61 5f64      	0x5f646e61725f
 374:	656e                	ld	a0,216(sp)
 376:	7478                	ld	a4,232(s0)
 378:	5f00                	lw	s0,56(a4)
 37a:	626d                	lui	tp,0x1b
 37c:	656c                	ld	a1,200(a0)
 37e:	5f6e                	lw	t5,248(sp)
 380:	74617473          	csrrci	s0,0x746,2
 384:	0065                	c.nop	25
 386:	695f 636e 5f00      	0x5f00636e695f
 38c:	6e69                	lui	t3,0x1a
 38e:	0064                	addi	s1,sp,12
 390:	6c5f 636f 6c61      	0x6c61636f6c5f
 396:	0065                	c.nop	25
 398:	5f5f 6c63 6165      	0x61656c635f5f
 39e:	756e                	ld	a0,248(sp)
 3a0:	0070                	addi	a2,sp,12
 3a2:	755f 736e 6570      	0x6570736e755f
 3a8:	69666963          	bltu	a2,s6,a3a <_tbss_end+0x9f6>
 3ac:	6465                	lui	s0,0x19
 3ae:	6c5f 636f 6c61      	0x6c61636f6c5f
 3b4:	5f65                	li	t5,-7
 3b6:	6e69                	lui	t3,0x1a
 3b8:	6f66                	ld	t5,88(sp)
 3ba:	5f00                	lw	s0,56(a4)
 3bc:	616d                	addi	sp,sp,240
 3be:	7778                	ld	a4,232(a4)
 3c0:	7364                	ld	s1,224(a4)
 3c2:	5f00                	lw	s0,56(a4)
 3c4:	6572                	ld	a0,280(sp)
 3c6:	6e65                	lui	t3,0x19
 3c8:	0074                	addi	a3,sp,12
 3ca:	735f 6565 0064      	0x646565735f
 3d0:	5f5f 6f63 6e75      	0x6e756f635f5f
 3d6:	0074                	addi	a3,sp,12
 3d8:	5f5f 6176 756c      	0x756c61765f5f
 3de:	0065                	c.nop	25
 3e0:	735f 6565 006b      	0x6b6565735f
 3e6:	665f 6f70 5f73      	0x5f736f70665f
 3ec:	0074                	addi	a3,sp,12
 3ee:	5f5f 6d74 6d5f      	0x6d5f6d745f5f
 3f4:	6e69                	lui	t3,0x1a
 3f6:	5f00                	lw	s0,56(a4)
 3f8:	756d                	lui	a0,0xffffb
 3fa:	746c                	ld	a1,232(s0)
 3fc:	5f00                	lw	s0,56(a4)
 3fe:	74727473          	csrrci	s0,0x747,4
 402:	6c5f6b6f          	jal	s6,f72c6 <_tbss_end+0xf7282>
 406:	7361                	lui	t1,0xffff8
 408:	0074                	addi	a3,sp,12
 40a:	665f 746e 7079      	0x7079746e665f
 410:	7365                	lui	t1,0xffff9
 412:	5f00                	lw	s0,56(a4)
 414:	6461                	lui	s0,0x18
 416:	0064                	addi	s1,sp,12
 418:	5f5f 4c55 6e6f      	0x6e6f4c555f5f
 41e:	675f0067          	jr	1653(t5) # 1a675 <_tbss_end+0x1a631>
 422:	7465                	lui	s0,0xffff9
 424:	6164                	ld	s1,192(a0)
 426:	6574                	ld	a3,200(a0)
 428:	655f 7272 5f00      	0x5f007272655f
 42e:	626f6c67          	0x626f6c67
 432:	6c61                	lui	s8,0x18
 434:	695f 706d 7275      	0x7275706d695f
 43a:	5f65                	li	t5,-7
 43c:	7470                	ld	a2,232(s0)
 43e:	0072                	c.slli	zero,0x1c
 440:	2f2e                	fld	ft10,200(sp)
 442:	6568                	ld	a0,200(a0)
 444:	6c6c                	ld	a1,216(s0)
 446:	00632e6f          	jal	t3,3244c <_tbss_end+0x32408>
 44a:	755f 756e 6573      	0x6573756e755f
 450:	5f64                	lw	s1,124(a4)
 452:	6172                	ld	sp,280(sp)
 454:	646e                	ld	s0,216(sp)
 456:	5f00                	lw	s0,56(a4)
 458:	00736477          	0x736477
 45c:	5f5f 6d74 775f      	0x775f6d745f5f
 462:	6164                	ld	s1,192(a0)
 464:	0079                	c.nop	30
 466:	675f 756c 0065      	0x65756c675f
 46c:	735f 6973 657a      	0x657a6973735f
 472:	745f 5f00 366c      	0x366c5f00745f
 478:	6134                	ld	a3,64(a0)
 47a:	625f 6675 5f00      	0x5f006675625f
 480:	5f676973          	csrrsi	s2,0x5f6,14
 484:	7566                	ld	a0,120(sp)
 486:	636e                	ld	t1,216(sp)
 488:	5f00                	lw	s0,56(a4)
 48a:	626e                	ld	tp,216(sp)
 48c:	6675                	lui	a2,0x1d
 48e:	5f00                	lw	s0,56(a4)
 490:	6e75                	lui	t3,0x1d
 492:	7375                	lui	t1,0xffffd
 494:	6465                	lui	s0,0x19
 496:	5f00                	lw	s0,56(a4)
 498:	745f 5f6d 7369      	0x73695f6d745f
 49e:	7364                	ld	s1,224(a4)
 4a0:	0074                	addi	a3,sp,12
 4a2:	6c5f 636f 6c61      	0x6c61636f6c5f
 4a8:	6974                	ld	a3,208(a0)
 4aa:	656d                	lui	a0,0x1b
 4ac:	625f 6675 5f00      	0x5f006675625f
 4b2:	736f6c63          	bltu	t5,s6,bea <_tbss_end+0xba6>
 4b6:	0065                	c.nop	25
 4b8:	725f 3834 5f00      	0x5f003834725f
 4be:	626d                	lui	tp,0x1b
 4c0:	6f74                	ld	a3,216(a4)
 4c2:	735f6377          	0x735f6377
 4c6:	6174                	ld	a3,192(a0)
 4c8:	6574                	ld	a3,200(a0)
 4ca:	5f00                	lw	s0,56(a4)
 4cc:	3570                	fld	fa2,232(a0)
 4ce:	616d0073          	0x616d0073
 4d2:	6e69                	lui	t3,0x1a
 4d4:	5f00                	lw	s0,56(a4)
 4d6:	745f 5f6d 646d      	0x646d5f6d745f
 4dc:	7961                	lui	s2,0xffff8
 4de:	7300                	ld	s0,32(a4)
 4e0:	7274                	ld	a3,224(a2)
 4e2:	656c                	ld	a1,200(a0)
 4e4:	006e                	c.slli	zero,0x1b
 4e6:	73756163          	bltu	a0,s7,c08 <_tbss_end+0xbc4>
 4ea:	0065                	c.nop	25
 4ec:	6e727473          	csrrci	s0,0x6e7,4
 4f0:	656c                	ld	a1,200(a0)
 4f2:	006e                	c.slli	zero,0x1b
 4f4:	7270                	ld	a2,224(a2)
 4f6:	7365636f          	jal	t1,56c2c <_tbss_end+0x56be8>
 4fa:	72705f73          	csrrwi	t5,0x727,0
 4fe:	6365                	lui	t1,0x19
 500:	7369                	lui	t1,0xffffa
 502:	6f69                	lui	t5,0x1a
 504:	006e                	c.slli	zero,0x1b
 506:	75746567          	0x75746567
 50a:	6e69                	lui	t3,0x1a
 50c:	0074                	addi	a3,sp,12
 50e:	7570                	ld	a2,232(a0)
 510:	6374                	ld	a3,192(a4)
 512:	6168                	ld	a0,192(a0)
 514:	0072                	c.slli	zero,0x1c
 516:	6572                	ld	a0,280(sp)
 518:	70007367          	0x70007367
 51c:	6972                	ld	s2,280(sp)
 51e:	746e                	ld	s0,248(sp)
 520:	00727473          	csrrci	s0,0x7,4
 524:	6168                	ld	a0,192(a0)
 526:	646e                	ld	s0,216(sp)
 528:	656c                	ld	a1,200(a0)
 52a:	745f 6172 0070      	0x706172745f
 530:	6874                	ld	a3,208(s0)
 532:	6572                	ld	a0,280(sp)
 534:	6461                	lui	s0,0x18
 536:	655f 746e 7972      	0x7972746e655f
 53c:	7300                	ld	s0,32(a4)
 53e:	7274                	ld	a3,224(a2)
 540:	00797063          	bgeu	s2,t2,540 <_tbss_end+0x4fc>
 544:	7270                	ld	a2,224(a2)
 546:	6e69                	lui	t3,0x1a
 548:	6e74                	ld	a3,216(a2)
 54a:	6d75                	lui	s10,0x1d
 54c:	6500                	ld	s0,8(a0)
 54e:	616e                	ld	sp,216(sp)
 550:	6c62                	ld	s8,24(sp)
 552:	0065                	c.nop	25
 554:	6261                	lui	tp,0x18
 556:	0074726f          	jal	tp,47d5c <_tbss_end+0x47d18>
 55a:	5f5f 6e67 6375      	0x63756e675f5f
 560:	765f 5f61 696c      	0x696c5f61765f
 566:	70007473          	csrrci	s0,0x700,0
 56a:	6461                	lui	s0,0x18
 56c:	69770063          	beq	a4,s7,bec <_tbss_end+0xba8>
 570:	7464                	ld	s1,232(s0)
 572:	0068                	addi	a0,sp,12
 574:	30727473          	csrrci	s0,0x307,4
 578:	5f00                	lw	s0,56(a4)
 57a:	755f 6e69 3674      	0x36746e69755f
 580:	5f34                	lw	a3,120(a4)
 582:	0074                	addi	a3,sp,12
 584:	6e756f63          	bltu	a0,t2,c82 <_tbss_end+0xc3e>
 588:	6574                	ld	a3,200(a0)
 58a:	7372                	ld	t1,312(sp)
 58c:	6300                	ld	s0,0(a4)
 58e:	0065646f          	jal	s0,56594 <_tbss_end+0x56550>
 592:	616c                	ld	a1,192(a0)
 594:	665f7473          	csrrci	s0,0x665,30
 598:	746d                	lui	s0,0xffffb
 59a:	6200                	ld	s0,0(a2)
 59c:	6675                	lui	a2,0x1d
 59e:	656c                	ld	a1,200(a0)
 5a0:	006e                	c.slli	zero,0x1b
 5a2:	6572                	ld	a0,280(sp)
 5a4:	74697773          	csrrci	a4,0x746,18
 5a8:	73006863          	bltu	zero,a6,cd8 <_tbss_end+0xc94>
 5ac:	7274                	ld	a3,224(a2)
 5ae:	00706d63          	bltu	zero,t2,5c8 <_tbss_end+0x584>
 5b2:	666c                	ld	a1,200(a2)
 5b4:	616c                	ld	a1,192(a0)
 5b6:	73700067          	jr	1847(zero) # 0 <_tdata_begin>
 5ba:	7274                	ld	a3,224(a2)
 5bc:	6d00                	ld	s0,24(a0)
 5be:	6d65                	lui	s10,0x19
 5c0:	00746573          	csrrsi	a0,0x7,8
 5c4:	7261                	lui	tp,0xffff8
 5c6:	61003067          	0x61003067
 5ca:	6772                	ld	a4,280(sp)
 5cc:	0031                	c.nop	12
 5ce:	7261                	lui	tp,0xffff8
 5d0:	5f003267          	0x5f003267
 5d4:	6e69                	lui	t3,0x1a
 5d6:	7469                	lui	s0,0xffffa
 5d8:	7300                	ld	s0,32(a4)
 5da:	7379                	lui	t1,0xffffe
 5dc:	6c6c6163          	bltu	s8,t1,c9e <_tbss_end+0xc5a>
 5e0:	6700                	ld	s0,8(a4)
 5e2:	7465                	lui	s0,0xffff9
 5e4:	6e69                	lui	t3,0x1a
 5e6:	0074                	addi	a3,sp,12
 5e8:	6e75                	lui	t3,0x1d
 5ea:	6e676973          	csrrsi	s2,0x6e6,14
 5ee:	6465                	lui	s0,0x19
 5f0:	6e5f 6d75 6562      	0x65626d756e5f
 5f6:	0072                	c.slli	zero,0x1c
 5f8:	7570                	ld	a2,232(a0)
 5fa:	6474                	ld	a3,200(s0)
 5fc:	7461                	lui	s0,0xffff8
 5fe:	6100                	ld	s0,0(a0)
 600:	6772                	ld	a4,280(sp)
 602:	68770063          	beq	a4,t2,c82 <_tbss_end+0xc3e>
 606:	6369                	lui	t1,0x1a
 608:	0068                	addi	a0,sp,12
 60a:	7261                	lui	tp,0xffff8
 60c:	73007667          	0x73007667
 610:	7270                	ld	a2,224(a2)
 612:	6e69                	lui	t3,0x1a
 614:	6674                	ld	a3,200(a2)
 616:	2e00                	fld	fs0,24(a2)
 618:	6d6f632f          	0x6d6f632f
 61c:	6f6d                	lui	t5,0x1b
 61e:	2f6e                	fld	ft10,216(sp)
 620:	63737973          	csrrci	s2,0x637,6
 624:	6c61                	lui	s8,0x18
 626:	736c                	ld	a1,224(a4)
 628:	632e                	ld	t1,200(sp)
 62a:	5f00                	lw	s0,56(a4)
 62c:	755f 6e69 7074      	0x70746e69755f
 632:	7274                	ld	a3,224(a2)
 634:	745f 6100 746c      	0x746c6100745f
 63a:	6c66                	ld	s8,88(sp)
 63c:	6761                	lui	a4,0x18
 63e:	6300                	ld	s0,0(a4)
 640:	746e756f          	jal	a0,e7d86 <_tbss_end+0xe7d42>
 644:	7265                	lui	tp,0xffff9
 646:	6e5f 6d61 7365      	0x73656d616e5f
 64c:	7700                	ld	s0,40(a4)
 64e:	0064726f          	jal	tp,47654 <_tbss_end+0x47610>
 652:	6f74                	ld	a3,216(a4)
 654:	6f68                	ld	a0,216(a4)
 656:	64007473          	csrrci	s0,0x640,0
 65a:	6769                	lui	a4,0x1a
 65c:	70730073          	0x70730073
 660:	6972                	ld	s2,280(sp)
 662:	746e                	ld	s0,248(sp)
 664:	5f66                	lw	t5,120(sp)
 666:	7570                	ld	a2,232(a0)
 668:	6374                	ld	a3,192(a4)
 66a:	0068                	addi	a0,sp,12
 66c:	7962                	ld	s2,56(sp)
 66e:	6574                	ld	a3,200(a0)
 670:	7000                	ld	s0,32(s0)
 672:	6972                	ld	s2,280(sp)
 674:	746e                	ld	s0,248(sp)
 676:	6568                	ld	a0,200(a0)
 678:	0078                	addi	a4,sp,12
 67a:	6270                	ld	a2,192(a2)
 67c:	6675                	lui	a2,0x1d
 67e:	6d00                	ld	s0,24(a0)
 680:	6761                	lui	a4,0x18
 682:	6369                	lui	t1,0x1a
 684:	6d5f 6d65 7400      	0x74006d656d5f
 68a:	736f686f          	jal	a6,f6dc0 <_tbss_end+0xf6d7c>
 68e:	5f74                	lw	a3,124(a4)
 690:	7865                	lui	a6,0xffff9
 692:	7469                	lui	s0,0xffffa
 694:	6600                	ld	s0,8(a2)
 696:	6f72                	ld	t5,280(sp)
 698:	686d                	lui	a6,0x1b
 69a:	0074736f          	jal	t1,47ea0 <_tbss_end+0x47e5c>
 69e:	656d                	lui	a0,0x1b
 6a0:	636d                	lui	t1,0x1b
 6a2:	7970                	ld	a2,240(a0)
 6a4:	5f00                	lw	s0,56(a4)
 6a6:	745f 706d 5f00      	0x5f00706d745f
 6ac:	625f 6975 746c      	0x746c6975625f
 6b2:	6e69                	lui	t3,0x1a
 6b4:	765f 5f61 696c      	0x696c5f61765f
 6ba:	61007473          	csrrci	s0,0x610,0
 6be:	6f74                	ld	a3,216(a4)
 6c0:	006c                	addi	a1,sp,12
 6c2:	53746573          	csrrsi	a0,0x537,8
 6c6:	6174                	ld	a3,192(a0)
 6c8:	7374                	ld	a3,224(a4)
 6ca:	6400                	ld	s0,8(s0)
 6cc:	7365                	lui	t1,0xffff9
 6ce:	0074                	addi	a3,sp,12
 6d0:	7076                	0x7076
 6d2:	6972                	ld	s2,280(sp)
 6d4:	746e                	ld	s0,248(sp)
 6d6:	6d66                	ld	s10,88(sp)
 6d8:	0074                	addi	a3,sp,12
 6da:	2f2e                	fld	ft10,200(sp)
 6dc:	6d6d6f63          	bltu	s10,s6,dba <_tbss_end+0xd76>
 6e0:	632f6e6f          	jal	t3,f6d12 <_tbss_end+0xf6cce>
 6e4:	7472                	ld	s0,312(sp)
 6e6:	532e                	lw	t1,232(sp)
 6e8:	4700                	lw	s0,8(a4)
 6ea:	554e                	lw	a0,240(sp)
 6ec:	4120                	lw	s0,64(a0)
 6ee:	2e322053          	0x2e322053
 6f2:	          	snez	s0,zero

Disassembly of section .comment:

0000000000000000 <.comment>:
   0:	3a434347          	fmsub.d	ft6,ft6,ft4,ft7,rmm
   4:	2820                	fld	fs0,80(s0)
   6:	29554e47          	fmsub.s	ft8,fa0,fs5,ft5,rmm
   a:	3920                	fld	fs0,112(a0)
   c:	322e                	fld	ft4,232(sp)
   e:	302e                	fld	ft0,232(sp)
	...

Disassembly of section .riscv.attributes:

0000000000000000 <.riscv.attributes>:
   0:	3441                	addiw	s0,s0,-16
   2:	0000                	unimp
   4:	7200                	ld	s0,32(a2)
   6:	7369                	lui	t1,0xffffa
   8:	01007663          	bgeu	zero,a6,14 <_tdata_begin+0x14>
   c:	002a                	c.slli	zero,0xa
   e:	0000                	unimp
  10:	1004                	addi	s1,sp,32
  12:	7205                	lui	tp,0xfffe1
  14:	3676                	fld	fa2,376(sp)
  16:	6934                	ld	a3,80(a0)
  18:	7032                	0x7032
  1a:	5f30                	lw	a2,120(a4)
  1c:	326d                	addiw	tp,tp,-5
  1e:	3070                	fld	fa2,224(s0)
  20:	615f 7032 5f30      	0x5f307032615f
  26:	3266                	fld	ft4,120(sp)
  28:	3070                	fld	fa2,224(s0)
  2a:	645f 7032 5f30      	0x5f307032645f
  30:	30703263          	0x30703263
	...

Disassembly of section .debug_frame:

0000000000000000 <.debug_frame>:
   0:	000c                	0xc
   2:	0000                	unimp
   4:	ffff                	0xffff
   6:	ffff                	0xffff
   8:	7c010003          	lb	zero,1984(sp)
   c:	0d01                	addi	s10,s10,0
   e:	0002                	c.slli64	zero
  10:	0024                	addi	s1,sp,8
  12:	0000                	unimp
  14:	0000                	unimp
  16:	0000                	unimp
  18:	1048                	addi	a0,sp,36
  1a:	8000                	0x8000
  1c:	0000                	unimp
  1e:	0000                	unimp
  20:	0018                	0x18
  22:	0000                	unimp
  24:	0000                	unimp
  26:	0000                	unimp
  28:	0e42                	slli	t3,t3,0x10
  2a:	4210                	lw	a2,0(a2)
  2c:	0281                	addi	t0,t0,0
  2e:	c150                	sw	a2,4(a0)
  30:	0e42                	slli	t3,t3,0x10
  32:	0000                	unimp
  34:	0000                	unimp
  36:	0000                	unimp
  38:	000c                	0xc
  3a:	0000                	unimp
  3c:	ffff                	0xffff
  3e:	ffff                	0xffff
  40:	7c010003          	lb	zero,1984(sp)
  44:	0d01                	addi	s10,s10,0
  46:	0002                	c.slli64	zero
  48:	0014                	0x14
  4a:	0000                	unimp
  4c:	0038                	addi	a4,sp,8
  4e:	0000                	unimp
  50:	1060                	addi	s0,sp,44
  52:	8000                	0x8000
  54:	0000                	unimp
  56:	0000                	unimp
  58:	002e                	c.slli	zero,0xb
  5a:	0000                	unimp
  5c:	0000                	unimp
  5e:	0000                	unimp
  60:	0014                	0x14
  62:	0000                	unimp
  64:	0038                	addi	a4,sp,8
  66:	0000                	unimp
  68:	108e                	slli	ra,ra,0x23
  6a:	8000                	0x8000
  6c:	0000                	unimp
  6e:	0000                	unimp
  70:	002c                	addi	a1,sp,8
  72:	0000                	unimp
  74:	0000                	unimp
  76:	0000                	unimp
  78:	0014                	0x14
  7a:	0000                	unimp
  7c:	0038                	addi	a4,sp,8
  7e:	0000                	unimp
  80:	10ba                	slli	ra,ra,0x2e
  82:	8000                	0x8000
  84:	0000                	unimp
  86:	0000                	unimp
  88:	000e                	c.slli	zero,0x3
  8a:	0000                	unimp
  8c:	0000                	unimp
  8e:	0000                	unimp
  90:	001c                	0x1c
  92:	0000                	unimp
  94:	0038                	addi	a4,sp,8
  96:	0000                	unimp
  98:	10c8                	addi	a0,sp,100
  9a:	8000                	0x8000
  9c:	0000                	unimp
  9e:	0000                	unimp
  a0:	003a                	c.slli	zero,0xe
  a2:	0000                	unimp
  a4:	0000                	unimp
  a6:	0000                	unimp
  a8:	0e42                	slli	t3,t3,0x10
  aa:	7670                	ld	a2,232(a2)
  ac:	000e                	c.slli	zero,0x3
  ae:	0000                	unimp
  b0:	0024                	addi	s1,sp,8
  b2:	0000                	unimp
  b4:	0038                	addi	a4,sp,8
  b6:	0000                	unimp
  b8:	1102                	slli	sp,sp,0x20
  ba:	8000                	0x8000
  bc:	0000                	unimp
  be:	0000                	unimp
  c0:	004a                	c.slli	zero,0x12
  c2:	0000                	unimp
  c4:	0000                	unimp
  c6:	0000                	unimp
  c8:	0e6e                	slli	t3,t3,0x1b
  ca:	4210                	lw	a2,0(a2)
  cc:	0281                	addi	t0,t0,0
  ce:	c156                	sw	s5,128(sp)
  d0:	0e42                	slli	t3,t3,0x10
  d2:	0000                	unimp
  d4:	0000                	unimp
  d6:	0000                	unimp
  d8:	0014                	0x14
  da:	0000                	unimp
  dc:	0038                	addi	a4,sp,8
  de:	0000                	unimp
  e0:	114c                	addi	a1,sp,164
  e2:	8000                	0x8000
  e4:	0000                	unimp
  e6:	0000                	unimp
  e8:	0012                	c.slli	zero,0x4
  ea:	0000                	unimp
  ec:	0000                	unimp
  ee:	0000                	unimp
  f0:	001c                	0x1c
  f2:	0000                	unimp
  f4:	0038                	addi	a4,sp,8
  f6:	0000                	unimp
  f8:	115e                	slli	sp,sp,0x37
  fa:	8000                	0x8000
  fc:	0000                	unimp
  fe:	0000                	unimp
 100:	000a                	c.slli	zero,0x2
 102:	0000                	unimp
 104:	0000                	unimp
 106:	0000                	unimp
 108:	0e42                	slli	t3,t3,0x10
 10a:	4210                	lw	a2,0(a2)
 10c:	0281                	addi	t0,t0,0
 10e:	0000                	unimp
 110:	0014                	0x14
 112:	0000                	unimp
 114:	0038                	addi	a4,sp,8
 116:	0000                	unimp
 118:	1168                	addi	a0,sp,172
 11a:	8000                	0x8000
 11c:	0000                	unimp
 11e:	0000                	unimp
 120:	004a                	c.slli	zero,0x12
 122:	0000                	unimp
 124:	0000                	unimp
 126:	0000                	unimp
 128:	001c                	0x1c
 12a:	0000                	unimp
 12c:	0038                	addi	a4,sp,8
 12e:	0000                	unimp
 130:	11b2                	slli	gp,gp,0x2c
 132:	8000                	0x8000
 134:	0000                	unimp
 136:	0000                	unimp
 138:	0008                	0x8
 13a:	0000                	unimp
 13c:	0000                	unimp
 13e:	0000                	unimp
 140:	0e42                	slli	t3,t3,0x10
 142:	4210                	lw	a2,0(a2)
 144:	0281                	addi	t0,t0,0
 146:	0000                	unimp
 148:	0014                	0x14
 14a:	0000                	unimp
 14c:	0038                	addi	a4,sp,8
 14e:	0000                	unimp
 150:	11ba                	slli	gp,gp,0x2e
 152:	8000                	0x8000
 154:	0000                	unimp
 156:	0000                	unimp
 158:	0004                	0x4
 15a:	0000                	unimp
 15c:	0000                	unimp
 15e:	0000                	unimp
 160:	0014                	0x14
 162:	0000                	unimp
 164:	0038                	addi	a4,sp,8
 166:	0000                	unimp
 168:	11be                	slli	gp,gp,0x2f
 16a:	8000                	0x8000
 16c:	0000                	unimp
 16e:	0000                	unimp
 170:	003a                	c.slli	zero,0xe
 172:	0000                	unimp
 174:	0000                	unimp
 176:	0000                	unimp
 178:	0014                	0x14
 17a:	0000                	unimp
 17c:	0038                	addi	a4,sp,8
 17e:	0000                	unimp
 180:	11f8                	addi	a4,sp,236
 182:	8000                	0x8000
 184:	0000                	unimp
 186:	0000                	unimp
 188:	0044                	addi	s1,sp,4
 18a:	0000                	unimp
 18c:	0000                	unimp
 18e:	0000                	unimp
 190:	0014                	0x14
 192:	0000                	unimp
 194:	0038                	addi	a4,sp,8
 196:	0000                	unimp
 198:	123c                	addi	a5,sp,296
 19a:	8000                	0x8000
 19c:	0000                	unimp
 19e:	0000                	unimp
 1a0:	0012                	c.slli	zero,0x4
 1a2:	0000                	unimp
 1a4:	0000                	unimp
 1a6:	0000                	unimp
 1a8:	0024                	addi	s1,sp,8
 1aa:	0000                	unimp
 1ac:	0038                	addi	a4,sp,8
 1ae:	0000                	unimp
 1b0:	124e                	slli	tp,tp,0x33
 1b2:	8000                	0x8000
 1b4:	0000                	unimp
 1b6:	0000                	unimp
 1b8:	0022                	c.slli	zero,0x8
 1ba:	0000                	unimp
 1bc:	0000                	unimp
 1be:	0000                	unimp
 1c0:	0e42                	slli	t3,t3,0x10
 1c2:	4410                	lw	a2,8(s0)
 1c4:	0281                	addi	t0,t0,0
 1c6:	0488                	addi	a0,sp,576
 1c8:	c156                	sw	s5,128(sp)
 1ca:	c842                	sw	a6,16(sp)
 1cc:	0e42                	slli	t3,t3,0x10
 1ce:	0000                	unimp
 1d0:	0024                	addi	s1,sp,8
 1d2:	0000                	unimp
 1d4:	0038                	addi	a4,sp,8
 1d6:	0000                	unimp
 1d8:	1270                	addi	a2,sp,300
 1da:	8000                	0x8000
 1dc:	0000                	unimp
 1de:	0000                	unimp
 1e0:	0018                	0x18
 1e2:	0000                	unimp
 1e4:	0000                	unimp
 1e6:	0000                	unimp
 1e8:	0e42                	slli	t3,t3,0x10
 1ea:	4210                	lw	a2,0(a2)
 1ec:	0281                	addi	t0,t0,0
 1ee:	c150                	sw	a2,4(a0)
 1f0:	0e42                	slli	t3,t3,0x10
 1f2:	0000                	unimp
 1f4:	0000                	unimp
 1f6:	0000                	unimp
 1f8:	0024                	addi	s1,sp,8
 1fa:	0000                	unimp
 1fc:	0038                	addi	a4,sp,8
 1fe:	0000                	unimp
 200:	1288                	addi	a0,sp,352
 202:	8000                	0x8000
 204:	0000                	unimp
 206:	0000                	unimp
 208:	0044                	addi	s1,sp,4
 20a:	0000                	unimp
 20c:	0000                	unimp
 20e:	0000                	unimp
 210:	0e42                	slli	t3,t3,0x10
 212:	4230                	lw	a2,64(a2)
 214:	0281                	addi	t0,t0,0
 216:	3c02                	fld	fs8,32(sp)
 218:	42c1                	li	t0,16
 21a:	000e                	c.slli	zero,0x3
 21c:	0000                	unimp
 21e:	0000                	unimp
 220:	0014                	0x14
 222:	0000                	unimp
 224:	0038                	addi	a4,sp,8
 226:	0000                	unimp
 228:	12cc                	addi	a1,sp,356
 22a:	8000                	0x8000
 22c:	0000                	unimp
 22e:	0000                	unimp
 230:	001a                	c.slli	zero,0x6
 232:	0000                	unimp
 234:	0000                	unimp
 236:	0000                	unimp
 238:	0044                	addi	s1,sp,4
 23a:	0000                	unimp
 23c:	0038                	addi	a4,sp,8
 23e:	0000                	unimp
 240:	12e6                	slli	t0,t0,0x39
 242:	8000                	0x8000
 244:	0000                	unimp
 246:	0000                	unimp
 248:	0226                	slli	tp,tp,0x9
 24a:	0000                	unimp
 24c:	0000                	unimp
 24e:	0000                	unimp
 250:	0e42                	slli	t3,t3,0x10
 252:	02d0                	addi	a2,sp,324
 254:	8150                	0x8150
 256:	8802                	jr	a6
 258:	8904                	0x8904
 25a:	9206                	add	tp,tp,ra
 25c:	9308                	0x9308
 25e:	940a                	add	s0,s0,sp
 260:	950c                	0x950c
 262:	960e                	add	a2,a2,gp
 264:	0310                	addi	a2,sp,384
 266:	0202                	c.slli64	tp
 268:	42c1                	li	t0,16
 26a:	42c8                	lw	a0,4(a3)
 26c:	42c9                	li	t0,18
 26e:	42d2                	lw	t0,20(sp)
 270:	42d442d3          	0x42d442d3
 274:	42d5                	li	t0,21
 276:	42d6                	lw	t0,84(sp)
 278:	000e                	c.slli	zero,0x3
 27a:	0000                	unimp
 27c:	0000                	unimp
 27e:	0000                	unimp
 280:	0024                	addi	s1,sp,8
 282:	0000                	unimp
 284:	0038                	addi	a4,sp,8
 286:	0000                	unimp
 288:	150c                	addi	a1,sp,672
 28a:	8000                	0x8000
 28c:	0000                	unimp
 28e:	0000                	unimp
 290:	002e                	c.slli	zero,0xb
 292:	0000                	unimp
 294:	0000                	unimp
 296:	0000                	unimp
 298:	0e42                	slli	t3,t3,0x10
 29a:	4260                	lw	s0,68(a2)
 29c:	1281                	addi	t0,t0,-32
 29e:	c166                	sw	s9,128(sp)
 2a0:	0e42                	slli	t3,t3,0x10
 2a2:	0000                	unimp
 2a4:	0000                	unimp
 2a6:	0000                	unimp
 2a8:	001c                	0x1c
 2aa:	0000                	unimp
 2ac:	0038                	addi	a4,sp,8
 2ae:	0000                	unimp
 2b0:	153a                	slli	a0,a0,0x2e
 2b2:	8000                	0x8000
 2b4:	0000                	unimp
 2b6:	0000                	unimp
 2b8:	0018                	0x18
 2ba:	0000                	unimp
 2bc:	0000                	unimp
 2be:	0000                	unimp
 2c0:	0e42                	slli	t3,t3,0x10
 2c2:	4210                	lw	a2,0(a2)
 2c4:	0281                	addi	t0,t0,0
 2c6:	0000                	unimp
 2c8:	0024                	addi	s1,sp,8
 2ca:	0000                	unimp
 2cc:	0038                	addi	a4,sp,8
 2ce:	0000                	unimp
 2d0:	1552                	slli	a0,a0,0x34
 2d2:	8000                	0x8000
 2d4:	0000                	unimp
 2d6:	0000                	unimp
 2d8:	0050                	addi	a2,sp,4
 2da:	0000                	unimp
 2dc:	0000                	unimp
 2de:	0000                	unimp
 2e0:	0e42                	slli	t3,t3,0x10
 2e2:	4620                	lw	s0,72(a2)
 2e4:	0281                	addi	t0,t0,0
 2e6:	0488                	addi	a0,sp,576
 2e8:	0689                	addi	a3,a3,2
 2ea:	0000                	unimp
 2ec:	0000                	unimp
 2ee:	0000                	unimp
 2f0:	0024                	addi	s1,sp,8
 2f2:	0000                	unimp
 2f4:	0038                	addi	a4,sp,8
 2f6:	0000                	unimp
 2f8:	15a2                	slli	a1,a1,0x28
 2fa:	8000                	0x8000
 2fc:	0000                	unimp
 2fe:	0000                	unimp
 300:	003c                	addi	a5,sp,8
 302:	0000                	unimp
 304:	0000                	unimp
 306:	0000                	unimp
 308:	0e42                	slli	t3,t3,0x10
 30a:	4460                	lw	s0,76(s0)
 30c:	0e81                	addi	t4,t4,0
 30e:	1088                	addi	a0,sp,96
 310:	c170                	sw	a2,68(a0)
 312:	c842                	sw	a6,16(sp)
 314:	0e42                	slli	t3,t3,0x10
 316:	0000                	unimp
 318:	0014                	0x14
 31a:	0000                	unimp
 31c:	0038                	addi	a4,sp,8
 31e:	0000                	unimp
 320:	15de                	slli	a1,a1,0x37
 322:	8000                	0x8000
 324:	0000                	unimp
 326:	0000                	unimp
 328:	0018                	0x18
 32a:	0000                	unimp
 32c:	0000                	unimp
 32e:	0000                	unimp
 330:	0014                	0x14
 332:	0000                	unimp
 334:	0038                	addi	a4,sp,8
 336:	0000                	unimp
 338:	15f6                	slli	a1,a1,0x3d
 33a:	8000                	0x8000
 33c:	0000                	unimp
 33e:	0000                	unimp
 340:	0012                	c.slli	zero,0x4
 342:	0000                	unimp
 344:	0000                	unimp
 346:	0000                	unimp
 348:	0014                	0x14
 34a:	0000                	unimp
 34c:	0038                	addi	a4,sp,8
 34e:	0000                	unimp
 350:	1608                	addi	a0,sp,800
 352:	8000                	0x8000
 354:	0000                	unimp
 356:	0000                	unimp
 358:	0054                	addi	a3,sp,4
 35a:	0000                	unimp
 35c:	0000                	unimp
	...

Disassembly of section .debug_loc:

0000000000000000 <.debug_loc>:
       0:	05a8                	addi	a0,sp,712
       2:	0000                	unimp
       4:	0000                	unimp
       6:	0000                	unimp
       8:	05aa                	slli	a1,a1,0xa
       a:	0000                	unimp
       c:	0000                	unimp
       e:	0000                	unimp
      10:	0001                	nop
      12:	aa5a                	fsd	fs6,272(sp)
      14:	0005                	c.nop	1
      16:	0000                	unimp
      18:	0000                	unimp
      1a:	fc00                	sd	s0,56(s0)
      1c:	0005                	c.nop	1
      1e:	0000                	unimp
      20:	0000                	unimp
      22:	0100                	addi	s0,sp,128
      24:	5f00                	lw	s0,56(a4)
	...
      36:	05aa                	slli	a1,a1,0xa
      38:	0000                	unimp
      3a:	0000                	unimp
      3c:	0000                	unimp
      3e:	05dc                	addi	a5,sp,708
      40:	0000                	unimp
      42:	0000                	unimp
      44:	0000                	unimp
      46:	0002                	c.slli64	zero
      48:	9f30                	0x9f30
      4a:	05dc                	addi	a5,sp,708
      4c:	0000                	unimp
      4e:	0000                	unimp
      50:	0000                	unimp
      52:	05e4                	addi	s1,sp,716
      54:	0000                	unimp
      56:	0000                	unimp
      58:	0000                	unimp
      5a:	0001                	nop
      5c:	e45a                	sd	s6,8(sp)
      5e:	0005                	c.nop	1
      60:	0000                	unimp
      62:	0000                	unimp
      64:	ee00                	sd	s0,24(a2)
      66:	0005                	c.nop	1
      68:	0000                	unimp
      6a:	0000                	unimp
      6c:	0100                	addi	s0,sp,128
      6e:	5e00                	lw	s0,56(a2)
      70:	05ee                	slli	a1,a1,0x1b
      72:	0000                	unimp
      74:	0000                	unimp
      76:	0000                	unimp
      78:	05fa                	slli	a1,a1,0x1e
      7a:	0000                	unimp
      7c:	0000                	unimp
      7e:	0000                	unimp
      80:	0001                	nop
      82:	005a                	c.slli	zero,0x16
	...
      90:	0000                	unimp
      92:	aa00                	fsd	fs0,16(a2)
      94:	0005                	c.nop	1
      96:	0000                	unimp
      98:	0000                	unimp
      9a:	d600                	sw	s0,40(a2)
      9c:	0005                	c.nop	1
      9e:	0000                	unimp
      a0:	0000                	unimp
      a2:	0200                	addi	s0,sp,256
      a4:	3000                	fld	fs0,32(s0)
      a6:	d69f 0005 0000      	0x5d69f
      ac:	0000                	unimp
      ae:	d800                	sw	s0,48(s0)
      b0:	0005                	c.nop	1
      b2:	0000                	unimp
      b4:	0000                	unimp
      b6:	0100                	addi	s0,sp,128
      b8:	5c00                	lw	s0,56(s0)
      ba:	05dc                	addi	a5,sp,708
      bc:	0000                	unimp
      be:	0000                	unimp
      c0:	0000                	unimp
      c2:	05fc                	addi	a5,sp,716
      c4:	0000                	unimp
      c6:	0000                	unimp
      c8:	0000                	unimp
      ca:	0001                	nop
      cc:	005c                	addi	a5,sp,4
	...
      da:	0000                	unimp
      dc:	9600                	0x9600
      de:	0005                	c.nop	1
      e0:	0000                	unimp
      e2:	0000                	unimp
      e4:	9800                	0x9800
      e6:	0005                	c.nop	1
      e8:	0000                	unimp
      ea:	0000                	unimp
      ec:	0100                	addi	s0,sp,128
      ee:	5b00                	lw	s0,48(a4)
      f0:	0598                	addi	a4,sp,704
      f2:	0000                	unimp
      f4:	0000                	unimp
      f6:	0000                	unimp
      f8:	059e                	slli	a1,a1,0x7
      fa:	0000                	unimp
      fc:	0000                	unimp
      fe:	0000                	unimp
     100:	0001                	nop
     102:	00059e5b          	0x59e5b
     106:	0000                	unimp
     108:	0000                	unimp
     10a:	a800                	fsd	fs0,16(s0)
     10c:	0005                	c.nop	1
     10e:	0000                	unimp
     110:	0000                	unimp
     112:	0300                	addi	s0,sp,384
     114:	7b00                	ld	s0,48(a4)
     116:	9f7f                	0x9f7f
	...
     128:	0596                	slli	a1,a1,0x5
     12a:	0000                	unimp
     12c:	0000                	unimp
     12e:	0000                	unimp
     130:	0598                	addi	a4,sp,704
     132:	0000                	unimp
     134:	0000                	unimp
     136:	0000                	unimp
     138:	0001                	nop
     13a:	985a                	add	a6,a6,s6
     13c:	0005                	c.nop	1
     13e:	0000                	unimp
     140:	0000                	unimp
     142:	a400                	fsd	fs0,8(s0)
     144:	0005                	c.nop	1
     146:	0000                	unimp
     148:	0000                	unimp
     14a:	0100                	addi	s0,sp,128
     14c:	5d00                	lw	s0,56(a0)
     14e:	05a4                	addi	s1,sp,712
     150:	0000                	unimp
     152:	0000                	unimp
     154:	0000                	unimp
     156:	05a8                	addi	a0,sp,712
     158:	0000                	unimp
     15a:	0000                	unimp
     15c:	0000                	unimp
     15e:	7f7d0003          	lb	zero,2039(s10) # 197f7 <_tbss_end+0x197b3>
     162:	009f 0000 0000      	0x9f
	...
     170:	0000                	unimp
     172:	6c00                	ld	s0,24(s0)
     174:	0002                	c.slli64	zero
     176:	0000                	unimp
     178:	0000                	unimp
     17a:	8400                	0x8400
     17c:	0002                	c.slli64	zero
     17e:	0000                	unimp
     180:	0000                	unimp
     182:	0100                	addi	s0,sp,128
     184:	5a00                	lw	s0,48(a2)
     186:	0284                	addi	s1,sp,320
     188:	0000                	unimp
     18a:	0000                	unimp
     18c:	0000                	unimp
     18e:	0286                	slli	t0,t0,0x1
     190:	0000                	unimp
     192:	0000                	unimp
     194:	0000                	unimp
     196:	0004                	0x4
     198:	9f5a01f3          	0x9f5a01f3
	...
     1ac:	026c                	addi	a1,sp,268
     1ae:	0000                	unimp
     1b0:	0000                	unimp
     1b2:	0000                	unimp
     1b4:	0272                	slli	tp,tp,0x1c
     1b6:	0000                	unimp
     1b8:	0000                	unimp
     1ba:	0000                	unimp
     1bc:	0001                	nop
     1be:	0002725b          	0x2725b
     1c2:	0000                	unimp
     1c4:	0000                	unimp
     1c6:	8600                	0x8600
     1c8:	0002                	c.slli64	zero
     1ca:	0000                	unimp
     1cc:	0000                	unimp
     1ce:	0100                	addi	s0,sp,128
     1d0:	5e00                	lw	s0,56(a2)
	...
     1e2:	026c                	addi	a1,sp,268
     1e4:	0000                	unimp
     1e6:	0000                	unimp
     1e8:	0000                	unimp
     1ea:	026e                	slli	tp,tp,0x1b
     1ec:	0000                	unimp
     1ee:	0000                	unimp
     1f0:	0000                	unimp
     1f2:	0001                	nop
     1f4:	6e5a                	ld	t3,400(sp)
     1f6:	0002                	c.slli64	zero
     1f8:	0000                	unimp
     1fa:	0000                	unimp
     1fc:	8600                	0x8600
     1fe:	0002                	c.slli64	zero
     200:	0000                	unimp
     202:	0000                	unimp
     204:	0100                	addi	s0,sp,128
     206:	5f00                	lw	s0,56(a4)
	...
     218:	01dc                	addi	a5,sp,196
     21a:	0000                	unimp
     21c:	0000                	unimp
     21e:	0000                	unimp
     220:	01ec                	addi	a1,sp,204
     222:	0000                	unimp
     224:	0000                	unimp
     226:	0000                	unimp
     228:	0001                	nop
     22a:	ec5a                	sd	s6,24(sp)
     22c:	0001                	nop
     22e:	0000                	unimp
     230:	0000                	unimp
     232:	ee00                	sd	s0,24(a2)
     234:	0001                	nop
     236:	0000                	unimp
     238:	0000                	unimp
     23a:	0400                	addi	s0,sp,512
     23c:	f300                	sd	s0,32(a4)
     23e:	5a01                	li	s4,-32
     240:	009f 0000 0000      	0x9f
	...
     24e:	0000                	unimp
     250:	dc00                	sw	s0,56(s0)
     252:	0001                	nop
     254:	0000                	unimp
     256:	0000                	unimp
     258:	de00                	sw	s0,56(a2)
     25a:	0001                	nop
     25c:	0000                	unimp
     25e:	0000                	unimp
     260:	0100                	addi	s0,sp,128
     262:	5a00                	lw	s0,48(a2)
     264:	01de                	slli	gp,gp,0x17
     266:	0000                	unimp
     268:	0000                	unimp
     26a:	0000                	unimp
     26c:	01ee                	slli	gp,gp,0x1b
     26e:	0000                	unimp
     270:	0000                	unimp
     272:	0000                	unimp
     274:	0001                	nop
     276:	005f 0000 0000      	0x5f
	...
     284:	0000                	unimp
     286:	9800                	0x9800
     288:	0001                	nop
     28a:	0000                	unimp
     28c:	0000                	unimp
     28e:	a400                	fsd	fs0,8(s0)
     290:	0001                	nop
     292:	0000                	unimp
     294:	0000                	unimp
     296:	0100                	addi	s0,sp,128
     298:	5b00                	lw	s0,48(a4)
     29a:	01a4                	addi	s1,sp,200
     29c:	0000                	unimp
     29e:	0000                	unimp
     2a0:	0000                	unimp
     2a2:	01c8                	addi	a0,sp,196
     2a4:	0000                	unimp
     2a6:	0000                	unimp
     2a8:	0000                	unimp
     2aa:	0004                	0x4
     2ac:	9f5b01f3          	0x9f5b01f3
     2b0:	01c8                	addi	a0,sp,196
     2b2:	0000                	unimp
     2b4:	0000                	unimp
     2b6:	0000                	unimp
     2b8:	01dc                	addi	a5,sp,196
     2ba:	0000                	unimp
     2bc:	0000                	unimp
     2be:	0000                	unimp
     2c0:	0001                	nop
     2c2:	0000005b          	0x5b
	...
     2d2:	a400                	fsd	fs0,8(s0)
     2d4:	0001                	nop
     2d6:	0000                	unimp
     2d8:	0000                	unimp
     2da:	b000                	fsd	fs0,32(s0)
     2dc:	0001                	nop
     2de:	0000                	unimp
     2e0:	0000                	unimp
     2e2:	0100                	addi	s0,sp,128
     2e4:	5b00                	lw	s0,48(a4)
     2e6:	01b0                	addi	a2,sp,200
     2e8:	0000                	unimp
     2ea:	0000                	unimp
     2ec:	0000                	unimp
     2ee:	01b6                	slli	gp,gp,0xd
     2f0:	0000                	unimp
     2f2:	0000                	unimp
     2f4:	0000                	unimp
     2f6:	0001                	nop
     2f8:	b65f 0001 0000      	0x1b65f
     2fe:	0000                	unimp
     300:	c800                	sw	s0,16(s0)
     302:	0001                	nop
     304:	0000                	unimp
     306:	0000                	unimp
     308:	0100                	addi	s0,sp,128
     30a:	5b00                	lw	s0,48(a4)
	...
     31c:	01b6                	slli	gp,gp,0xd
     31e:	0000                	unimp
     320:	0000                	unimp
     322:	0000                	unimp
     324:	01b8                	addi	a4,sp,200
     326:	0000                	unimp
     328:	0000                	unimp
     32a:	0000                	unimp
     32c:	0001                	nop
     32e:	b85a                	fsd	fs6,48(sp)
     330:	0001                	nop
     332:	0000                	unimp
     334:	0000                	unimp
     336:	c000                	sw	s0,0(s0)
     338:	0001                	nop
     33a:	0000                	unimp
     33c:	0000                	unimp
     33e:	0100                	addi	s0,sp,128
     340:	5f00                	lw	s0,56(a4)
     342:	01c0                	addi	s0,sp,196
     344:	0000                	unimp
     346:	0000                	unimp
     348:	0000                	unimp
     34a:	01c4                	addi	s1,sp,196
     34c:	0000                	unimp
     34e:	0000                	unimp
     350:	0000                	unimp
     352:	087f0003          	lb	zero,135(t5) # 1b087 <_tbss_end+0x1b043>
     356:	c49f 0001 0000      	0x1c49f
     35c:	0000                	unimp
     35e:	c800                	sw	s0,16(s0)
     360:	0001                	nop
     362:	0000                	unimp
     364:	0000                	unimp
     366:	0100                	addi	s0,sp,128
     368:	5f00                	lw	s0,56(a4)
	...
     37a:	01ca                	slli	gp,gp,0x12
     37c:	0000                	unimp
     37e:	0000                	unimp
     380:	0000                	unimp
     382:	01d2                	slli	gp,gp,0x14
     384:	0000                	unimp
     386:	0000                	unimp
     388:	0000                	unimp
     38a:	0001                	nop
     38c:	d25f 0001 0000      	0x1d25f
     392:	0000                	unimp
     394:	d800                	sw	s0,48(s0)
     396:	0001                	nop
     398:	0000                	unimp
     39a:	0000                	unimp
     39c:	0300                	addi	s0,sp,384
     39e:	7f00                	ld	s0,56(a4)
     3a0:	9f01                	subw	a4,a4,s0
     3a2:	01d8                	addi	a4,sp,196
     3a4:	0000                	unimp
     3a6:	0000                	unimp
     3a8:	0000                	unimp
     3aa:	01dc                	addi	a5,sp,196
     3ac:	0000                	unimp
     3ae:	0000                	unimp
     3b0:	0000                	unimp
     3b2:	0001                	nop
     3b4:	005f 0000 0000      	0x5f
	...
     3c2:	0000                	unimp
     3c4:	5e00                	lw	s0,56(a2)
     3c6:	0001                	nop
     3c8:	0000                	unimp
     3ca:	0000                	unimp
     3cc:	6a00                	ld	s0,16(a2)
     3ce:	0001                	nop
     3d0:	0000                	unimp
     3d2:	0000                	unimp
     3d4:	0100                	addi	s0,sp,128
     3d6:	5b00                	lw	s0,48(a4)
     3d8:	016a                	slli	sp,sp,0x1a
     3da:	0000                	unimp
     3dc:	0000                	unimp
     3de:	0000                	unimp
     3e0:	0180                	addi	s0,sp,192
     3e2:	0000                	unimp
     3e4:	0000                	unimp
     3e6:	0000                	unimp
     3e8:	0004                	0x4
     3ea:	9f5b01f3          	0x9f5b01f3
     3ee:	0180                	addi	s0,sp,192
     3f0:	0000                	unimp
     3f2:	0000                	unimp
     3f4:	0000                	unimp
     3f6:	0182                	c.slli64	gp
     3f8:	0000                	unimp
     3fa:	0000                	unimp
     3fc:	0000                	unimp
     3fe:	0001                	nop
     400:	0001825b          	0x1825b
     404:	0000                	unimp
     406:	0000                	unimp
     408:	9800                	0x9800
     40a:	0001                	nop
     40c:	0000                	unimp
     40e:	0000                	unimp
     410:	0400                	addi	s0,sp,512
     412:	f300                	sd	s0,32(a4)
     414:	5b01                	li	s6,-32
     416:	009f 0000 0000      	0x9f
	...
     424:	0000                	unimp
     426:	8200                	0x8200
     428:	0001                	nop
     42a:	0000                	unimp
     42c:	0000                	unimp
     42e:	8a00                	0x8a00
     430:	0001                	nop
     432:	0000                	unimp
     434:	0000                	unimp
     436:	0100                	addi	s0,sp,128
     438:	5b00                	lw	s0,48(a4)
     43a:	018a                	slli	gp,gp,0x2
     43c:	0000                	unimp
     43e:	0000                	unimp
     440:	0000                	unimp
     442:	0192                	slli	gp,gp,0x4
     444:	0000                	unimp
     446:	0000                	unimp
     448:	0000                	unimp
     44a:	087b0003          	lb	zero,135(s6)
     44e:	929f 0001 0000      	0x1929f
     454:	0000                	unimp
     456:	9600                	0x9600
     458:	0001                	nop
     45a:	0000                	unimp
     45c:	0000                	unimp
     45e:	0100                	addi	s0,sp,128
     460:	5b00                	lw	s0,48(a4)
	...
     472:	0182                	c.slli64	gp
     474:	0000                	unimp
     476:	0000                	unimp
     478:	0000                	unimp
     47a:	018a                	slli	gp,gp,0x2
     47c:	0000                	unimp
     47e:	0000                	unimp
     480:	0000                	unimp
     482:	0001                	nop
     484:	8a5f 0001 0000      	0x18a5f
     48a:	0000                	unimp
     48c:	9000                	0x9000
     48e:	0001                	nop
     490:	0000                	unimp
     492:	0000                	unimp
     494:	0300                	addi	s0,sp,384
     496:	7f00                	ld	s0,56(a4)
     498:	9f08                	0x9f08
     49a:	0190                	addi	a2,sp,192
     49c:	0000                	unimp
     49e:	0000                	unimp
     4a0:	0000                	unimp
     4a2:	0196                	slli	gp,gp,0x5
     4a4:	0000                	unimp
     4a6:	0000                	unimp
     4a8:	0000                	unimp
     4aa:	0001                	nop
     4ac:	005f 0000 0000      	0x5f
	...
     4ba:	0000                	unimp
     4bc:	6a00                	ld	s0,16(a2)
     4be:	0001                	nop
     4c0:	0000                	unimp
     4c2:	0000                	unimp
     4c4:	7200                	ld	s0,32(a2)
     4c6:	0001                	nop
     4c8:	0000                	unimp
     4ca:	0000                	unimp
     4cc:	0100                	addi	s0,sp,128
     4ce:	5b00                	lw	s0,48(a4)
     4d0:	0172                	slli	sp,sp,0x1c
     4d2:	0000                	unimp
     4d4:	0000                	unimp
     4d6:	0000                	unimp
     4d8:	017e                	slli	sp,sp,0x1f
     4da:	0000                	unimp
     4dc:	0000                	unimp
     4de:	0000                	unimp
     4e0:	017b0003          	lb	zero,23(s6)
     4e4:	7e9f 0001 0000      	0x17e9f
     4ea:	0000                	unimp
     4ec:	8000                	0x8000
     4ee:	0001                	nop
     4f0:	0000                	unimp
     4f2:	0000                	unimp
     4f4:	0100                	addi	s0,sp,128
     4f6:	5b00                	lw	s0,48(a4)
     4f8:	0196                	slli	gp,gp,0x5
     4fa:	0000                	unimp
     4fc:	0000                	unimp
     4fe:	0000                	unimp
     500:	0198                	addi	a4,sp,192
     502:	0000                	unimp
     504:	0000                	unimp
     506:	0000                	unimp
     508:	0001                	nop
     50a:	0000005b          	0x5b
	...
     51a:	6a00                	ld	s0,16(a2)
     51c:	0001                	nop
     51e:	0000                	unimp
     520:	0000                	unimp
     522:	7200                	ld	s0,32(a2)
     524:	0001                	nop
     526:	0000                	unimp
     528:	0000                	unimp
     52a:	0100                	addi	s0,sp,128
     52c:	5f00                	lw	s0,56(a4)
     52e:	0172                	slli	sp,sp,0x1c
     530:	0000                	unimp
     532:	0000                	unimp
     534:	0000                	unimp
     536:	017c                	addi	a5,sp,140
     538:	0000                	unimp
     53a:	0000                	unimp
     53c:	0000                	unimp
     53e:	017f0003          	lb	zero,23(t5)
     542:	7c9f 0001 0000      	0x17c9f
     548:	0000                	unimp
     54a:	8000                	0x8000
     54c:	0001                	nop
     54e:	0000                	unimp
     550:	0000                	unimp
     552:	0100                	addi	s0,sp,128
     554:	5f00                	lw	s0,56(a4)
     556:	0196                	slli	gp,gp,0x5
     558:	0000                	unimp
     55a:	0000                	unimp
     55c:	0000                	unimp
     55e:	0198                	addi	a4,sp,192
     560:	0000                	unimp
     562:	0000                	unimp
     564:	0000                	unimp
     566:	0001                	nop
     568:	005f 0000 0000      	0x5f
	...
     576:	0000                	unimp
     578:	4200                	lw	s0,0(a2)
     57a:	0005                	c.nop	1
     57c:	0000                	unimp
     57e:	0000                	unimp
     580:	6800                	ld	s0,16(s0)
     582:	0005                	c.nop	1
     584:	0000                	unimp
     586:	0000                	unimp
     588:	0100                	addi	s0,sp,128
     58a:	5a00                	lw	s0,48(a2)
     58c:	0568                	addi	a0,sp,652
     58e:	0000                	unimp
     590:	0000                	unimp
     592:	0000                	unimp
     594:	0000056b          	0x56b
     598:	0000                	unimp
     59a:	0000                	unimp
     59c:	0001                	nop
     59e:	0058                	addi	a4,sp,4
	...
     5ac:	0000                	unimp
     5ae:	4200                	lw	s0,0(a2)
     5b0:	0005                	c.nop	1
     5b2:	0000                	unimp
     5b4:	0000                	unimp
     5b6:	6000                	ld	s0,0(s0)
     5b8:	0005                	c.nop	1
     5ba:	0000                	unimp
     5bc:	0000                	unimp
     5be:	0100                	addi	s0,sp,128
     5c0:	5b00                	lw	s0,48(a4)
     5c2:	0560                	addi	s0,sp,652
     5c4:	0000                	unimp
     5c6:	0000                	unimp
     5c8:	0000                	unimp
     5ca:	0000056b          	0x56b
     5ce:	0000                	unimp
     5d0:	0000                	unimp
     5d2:	0001                	nop
     5d4:	6b5c                	ld	a5,144(a4)
     5d6:	0005                	c.nop	1
     5d8:	0000                	unimp
     5da:	0000                	unimp
     5dc:	7e00                	ld	s0,56(a2)
     5de:	0005                	c.nop	1
     5e0:	0000                	unimp
     5e2:	0000                	unimp
     5e4:	0400                	addi	s0,sp,512
     5e6:	f300                	sd	s0,32(a4)
     5e8:	5b01                	li	s6,-32
     5ea:	009f 0000 0000      	0x9f
	...
     5f8:	0000                	unimp
     5fa:	5800                	lw	s0,48(s0)
     5fc:	0005                	c.nop	1
     5fe:	0000                	unimp
     600:	0000                	unimp
     602:	6800                	ld	s0,16(s0)
     604:	0005                	c.nop	1
     606:	0000                	unimp
     608:	0000                	unimp
     60a:	0100                	addi	s0,sp,128
     60c:	5a00                	lw	s0,48(a2)
     60e:	0568                	addi	a0,sp,652
     610:	0000                	unimp
     612:	0000                	unimp
     614:	0000                	unimp
     616:	057a                	slli	a0,a0,0x1e
     618:	0000                	unimp
     61a:	0000                	unimp
     61c:	0000                	unimp
     61e:	0001                	nop
     620:	7a58                	ld	a4,176(a2)
     622:	0005                	c.nop	1
     624:	0000                	unimp
     626:	0000                	unimp
     628:	7e00                	ld	s0,56(a2)
     62a:	0005                	c.nop	1
     62c:	0000                	unimp
     62e:	0000                	unimp
     630:	0400                	addi	s0,sp,512
     632:	f300                	sd	s0,32(a4)
     634:	5a01                	li	s4,-32
     636:	009f 0000 0000      	0x9f
	...
     644:	0000                	unimp
     646:	ac00                	fsd	fs0,24(s0)
     648:	0004                	0x4
     64a:	0000                	unimp
     64c:	0000                	unimp
     64e:	ce00                	sw	s0,24(a2)
     650:	0004                	0x4
     652:	0000                	unimp
     654:	0000                	unimp
     656:	0100                	addi	s0,sp,128
     658:	5a00                	lw	s0,48(a2)
     65a:	04ce                	slli	s1,s1,0x13
     65c:	0000                	unimp
     65e:	0000                	unimp
     660:	0000                	unimp
     662:	04d1                	addi	s1,s1,20
     664:	0000                	unimp
     666:	0000                	unimp
     668:	0000                	unimp
     66a:	0001                	nop
     66c:	d15c                	sw	a5,36(a0)
     66e:	0004                	0x4
     670:	0000                	unimp
     672:	0000                	unimp
     674:	da00                	sw	s0,48(a2)
     676:	0004                	0x4
     678:	0000                	unimp
     67a:	0000                	unimp
     67c:	0400                	addi	s0,sp,512
     67e:	f300                	sd	s0,32(a4)
     680:	5a01                	li	s4,-32
     682:	009f 0000 0000      	0x9f
	...
     690:	0000                	unimp
     692:	8600                	0x8600
     694:	0002                	c.slli64	zero
     696:	0000                	unimp
     698:	0000                	unimp
     69a:	a000                	fsd	fs0,0(s0)
     69c:	0002                	c.slli64	zero
     69e:	0000                	unimp
     6a0:	0000                	unimp
     6a2:	0100                	addi	s0,sp,128
     6a4:	5a00                	lw	s0,48(a2)
     6a6:	02a0                	addi	s0,sp,328
     6a8:	0000                	unimp
     6aa:	0000                	unimp
     6ac:	0000                	unimp
     6ae:	04a0                	addi	s0,sp,584
     6b0:	0000                	unimp
     6b2:	0000                	unimp
     6b4:	0000                	unimp
     6b6:	0001                	nop
     6b8:	a062                	fsd	fs8,0(sp)
     6ba:	0004                	0x4
     6bc:	0000                	unimp
     6be:	0000                	unimp
     6c0:	ac00                	fsd	fs0,24(s0)
     6c2:	0004                	0x4
     6c4:	0000                	unimp
     6c6:	0000                	unimp
     6c8:	0400                	addi	s0,sp,512
     6ca:	f300                	sd	s0,32(a4)
     6cc:	5a01                	li	s4,-32
     6ce:	009f 0000 0000      	0x9f
	...
     6dc:	0000                	unimp
     6de:	8600                	0x8600
     6e0:	0002                	c.slli64	zero
     6e2:	0000                	unimp
     6e4:	0000                	unimp
     6e6:	a000                	fsd	fs0,0(s0)
     6e8:	0002                	c.slli64	zero
     6ea:	0000                	unimp
     6ec:	0000                	unimp
     6ee:	0100                	addi	s0,sp,128
     6f0:	5b00                	lw	s0,48(a4)
     6f2:	02a0                	addi	s0,sp,328
     6f4:	0000                	unimp
     6f6:	0000                	unimp
     6f8:	0000                	unimp
     6fa:	049e                	slli	s1,s1,0x7
     6fc:	0000                	unimp
     6fe:	0000                	unimp
     700:	0000                	unimp
     702:	0001                	nop
     704:	9e59                	0x9e59
     706:	0004                	0x4
     708:	0000                	unimp
     70a:	0000                	unimp
     70c:	ac00                	fsd	fs0,24(s0)
     70e:	0004                	0x4
     710:	0000                	unimp
     712:	0000                	unimp
     714:	0400                	addi	s0,sp,512
     716:	f300                	sd	s0,32(a4)
     718:	5b01                	li	s6,-32
     71a:	009f 0000 0000      	0x9f
	...
     728:	0000                	unimp
     72a:	8600                	0x8600
     72c:	0002                	c.slli64	zero
     72e:	0000                	unimp
     730:	0000                	unimp
     732:	a000                	fsd	fs0,0(s0)
     734:	0002                	c.slli64	zero
     736:	0000                	unimp
     738:	0000                	unimp
     73a:	0100                	addi	s0,sp,128
     73c:	5c00                	lw	s0,56(s0)
     73e:	02a0                	addi	s0,sp,328
     740:	0000                	unimp
     742:	0000                	unimp
     744:	0000                	unimp
     746:	02bc                	addi	a5,sp,328
     748:	0000                	unimp
     74a:	0000                	unimp
     74c:	0000                	unimp
     74e:	0001                	nop
     750:	bc58                	fsd	fa4,184(s0)
     752:	0002                	c.slli64	zero
     754:	0000                	unimp
     756:	0000                	unimp
     758:	c800                	sw	s0,16(s0)
     75a:	0002                	c.slli64	zero
     75c:	0000                	unimp
     75e:	0000                	unimp
     760:	0100                	addi	s0,sp,128
     762:	6300                	ld	s0,0(a4)
     764:	02c8                	addi	a0,sp,324
     766:	0000                	unimp
     768:	0000                	unimp
     76a:	0000                	unimp
     76c:	02cc                	addi	a1,sp,324
     76e:	0000                	unimp
     770:	0000                	unimp
     772:	0000                	unimp
     774:	0001                	nop
     776:	cc5f 0002 0000      	0x2cc5f
     77c:	0000                	unimp
     77e:	9400                	0x9400
     780:	0004                	0x4
     782:	0000                	unimp
     784:	0000                	unimp
     786:	0100                	addi	s0,sp,128
     788:	5800                	lw	s0,48(s0)
     78a:	0494                	addi	a3,sp,576
     78c:	0000                	unimp
     78e:	0000                	unimp
     790:	0000                	unimp
     792:	0498                	addi	a4,sp,576
     794:	0000                	unimp
     796:	0000                	unimp
     798:	0000                	unimp
     79a:	0001                	nop
     79c:	00049863          	bnez	s1,7ac <_tbss_end+0x768>
     7a0:	0000                	unimp
     7a2:	0000                	unimp
     7a4:	9c00                	0x9c00
     7a6:	0004                	0x4
     7a8:	0000                	unimp
     7aa:	0000                	unimp
     7ac:	0100                	addi	s0,sp,128
     7ae:	5800                	lw	s0,48(s0)
	...
     7c0:	0286                	slli	t0,t0,0x1
     7c2:	0000                	unimp
     7c4:	0000                	unimp
     7c6:	0000                	unimp
     7c8:	02a0                	addi	s0,sp,328
     7ca:	0000                	unimp
     7cc:	0000                	unimp
     7ce:	0000                	unimp
     7d0:	0001                	nop
     7d2:	005d                	c.nop	23
	...
     7e0:	0000                	unimp
     7e2:	7e00                	ld	s0,56(a2)
     7e4:	00000003          	lb	zero,0(zero) # 0 <_tdata_begin>
     7e8:	0000                	unimp
     7ea:	9800                	0x9800
     7ec:	00000003          	lb	zero,0(zero) # 0 <_tdata_begin>
     7f0:	0000                	unimp
     7f2:	0100                	addi	s0,sp,128
     7f4:	6300                	ld	s0,0(a4)
     7f6:	03a2                	slli	t2,t2,0x8
     7f8:	0000                	unimp
     7fa:	0000                	unimp
     7fc:	0000                	unimp
     7fe:	03dc                	addi	a5,sp,452
     800:	0000                	unimp
     802:	0000                	unimp
     804:	0000                	unimp
     806:	0001                	nop
     808:	00000063          	beqz	zero,808 <_tbss_end+0x7c4>
	...
     818:	bc00                	fsd	fs0,56(s0)
     81a:	0002                	c.slli64	zero
     81c:	0000                	unimp
     81e:	0000                	unimp
     820:	0000                	unimp
     822:	00000003          	lb	zero,0(zero) # 0 <_tdata_begin>
     826:	0000                	unimp
     828:	0100                	addi	s0,sp,128
     82a:	6300                	ld	s0,0(a4)
     82c:	0302                	c.slli64	t1
     82e:	0000                	unimp
     830:	0000                	unimp
     832:	0000                	unimp
     834:	037a                	slli	t1,t1,0x1e
     836:	0000                	unimp
     838:	0000                	unimp
     83a:	0000                	unimp
     83c:	0001                	nop
     83e:	0003dc63          	bgez	t2,856 <_tbss_end+0x812>
     842:	0000                	unimp
     844:	0000                	unimp
     846:	e400                	sd	s0,8(s0)
     848:	00000003          	lb	zero,0(zero) # 0 <_tdata_begin>
     84c:	0000                	unimp
     84e:	0100                	addi	s0,sp,128
     850:	6300                	ld	s0,0(a4)
     852:	03fa                	slli	t2,t2,0x1e
     854:	0000                	unimp
     856:	0000                	unimp
     858:	0000                	unimp
     85a:	03fc                	addi	a5,sp,460
     85c:	0000                	unimp
     85e:	0000                	unimp
     860:	0000                	unimp
     862:	0001                	nop
     864:	00042e63          	0x42e63
     868:	0000                	unimp
     86a:	0000                	unimp
     86c:	4200                	lw	s0,0(a2)
     86e:	0004                	0x4
     870:	0000                	unimp
     872:	0000                	unimp
     874:	0100                	addi	s0,sp,128
     876:	6300                	ld	s0,0(a4)
     878:	0444                	addi	s1,sp,516
     87a:	0000                	unimp
     87c:	0000                	unimp
     87e:	0000                	unimp
     880:	0446                	slli	s0,s0,0x11
     882:	0000                	unimp
     884:	0000                	unimp
     886:	0000                	unimp
     888:	0001                	nop
     88a:	00048663          	beqz	s1,896 <_tbss_end+0x852>
     88e:	0000                	unimp
     890:	0000                	unimp
     892:	9800                	0x9800
     894:	0004                	0x4
     896:	0000                	unimp
     898:	0000                	unimp
     89a:	0100                	addi	s0,sp,128
     89c:	6300                	ld	s0,0(a4)
	...
     8ae:	02a4                	addi	s1,sp,328
     8b0:	0000                	unimp
     8b2:	0000                	unimp
     8b4:	0000                	unimp
     8b6:	02b5                	addi	t0,t0,13
     8b8:	0000                	unimp
     8ba:	0000                	unimp
     8bc:	0000                	unimp
     8be:	0001                	nop
     8c0:	b85a                	fsd	fs6,48(sp)
     8c2:	0002                	c.slli64	zero
     8c4:	0000                	unimp
     8c6:	0000                	unimp
     8c8:	6a00                	ld	s0,16(a2)
     8ca:	00000003          	lb	zero,0(zero) # 0 <_tdata_begin>
     8ce:	0000                	unimp
     8d0:	0100                	addi	s0,sp,128
     8d2:	5a00                	lw	s0,48(a2)
     8d4:	036e                	slli	t1,t1,0x1b
     8d6:	0000                	unimp
     8d8:	0000                	unimp
     8da:	0000                	unimp
     8dc:	038e                	slli	t2,t2,0x3
     8de:	0000                	unimp
     8e0:	0000                	unimp
     8e2:	0000                	unimp
     8e4:	0001                	nop
     8e6:	985a                	add	a6,a6,s6
     8e8:	00000003          	lb	zero,0(zero) # 0 <_tdata_begin>
     8ec:	0000                	unimp
     8ee:	a200                	fsd	fs0,0(a2)
     8f0:	00000003          	lb	zero,0(zero) # 0 <_tdata_begin>
     8f4:	0000                	unimp
     8f6:	0100                	addi	s0,sp,128
     8f8:	5a00                	lw	s0,48(a2)
     8fa:	03b2                	slli	t2,t2,0xc
     8fc:	0000                	unimp
     8fe:	0000                	unimp
     900:	0000                	unimp
     902:	03b5                	addi	t2,t2,13
     904:	0000                	unimp
     906:	0000                	unimp
     908:	0000                	unimp
     90a:	0001                	nop
     90c:	be5a                	fsd	fs6,312(sp)
     90e:	00000003          	lb	zero,0(zero) # 0 <_tdata_begin>
     912:	0000                	unimp
     914:	cc00                	sw	s0,24(s0)
     916:	00000003          	lb	zero,0(zero) # 0 <_tdata_begin>
     91a:	0000                	unimp
     91c:	0100                	addi	s0,sp,128
     91e:	5a00                	lw	s0,48(a2)
     920:	03dc                	addi	a5,sp,452
     922:	0000                	unimp
     924:	0000                	unimp
     926:	0000                	unimp
     928:	03de                	slli	t2,t2,0x17
     92a:	0000                	unimp
     92c:	0000                	unimp
     92e:	0000                	unimp
     930:	0001                	nop
     932:	de5a                	sw	s6,60(sp)
     934:	00000003          	lb	zero,0(zero) # 0 <_tdata_begin>
     938:	0000                	unimp
     93a:	e100                	sd	s0,0(a0)
     93c:	00000003          	lb	zero,0(zero) # 0 <_tdata_begin>
     940:	0000                	unimp
     942:	0100                	addi	s0,sp,128
     944:	5e00                	lw	s0,56(a2)
     946:	03fa                	slli	t2,t2,0x1e
     948:	0000                	unimp
     94a:	0000                	unimp
     94c:	0000                	unimp
     94e:	03fc                	addi	a5,sp,460
     950:	0000                	unimp
     952:	0000                	unimp
     954:	0000                	unimp
     956:	0001                	nop
     958:	2e5a                	fld	ft8,400(sp)
     95a:	0004                	0x4
     95c:	0000                	unimp
     95e:	0000                	unimp
     960:	3400                	fld	fs0,40(s0)
     962:	0004                	0x4
     964:	0000                	unimp
     966:	0000                	unimp
     968:	0100                	addi	s0,sp,128
     96a:	5a00                	lw	s0,48(a2)
     96c:	0434                	addi	a3,sp,520
     96e:	0000                	unimp
     970:	0000                	unimp
     972:	0000                	unimp
     974:	0435                	addi	s0,s0,13
     976:	0000                	unimp
     978:	0000                	unimp
     97a:	0000                	unimp
     97c:	0001                	nop
     97e:	445e                	lw	s0,212(sp)
     980:	0004                	0x4
     982:	0000                	unimp
     984:	0000                	unimp
     986:	4800                	lw	s0,16(s0)
     988:	0004                	0x4
     98a:	0000                	unimp
     98c:	0000                	unimp
     98e:	0100                	addi	s0,sp,128
     990:	5a00                	lw	s0,48(a2)
     992:	0486                	slli	s1,s1,0x1
     994:	0000                	unimp
     996:	0000                	unimp
     998:	0000                	unimp
     99a:	0489                	addi	s1,s1,2
     99c:	0000                	unimp
     99e:	0000                	unimp
     9a0:	0000                	unimp
     9a2:	0001                	nop
     9a4:	8c5a                	mv	s8,s6
     9a6:	0004                	0x4
     9a8:	0000                	unimp
     9aa:	0000                	unimp
     9ac:	9200                	0x9200
     9ae:	0004                	0x4
     9b0:	0000                	unimp
     9b2:	0000                	unimp
     9b4:	0100                	addi	s0,sp,128
     9b6:	5a00                	lw	s0,48(a2)
     9b8:	0492                	slli	s1,s1,0x4
     9ba:	0000                	unimp
     9bc:	0000                	unimp
     9be:	0000                	unimp
     9c0:	00000493          	li	s1,0
     9c4:	0000                	unimp
     9c6:	0000                	unimp
     9c8:	0001                	nop
     9ca:	985e                	add	a6,a6,s7
     9cc:	0004                	0x4
     9ce:	0000                	unimp
     9d0:	0000                	unimp
     9d2:	ac00                	fsd	fs0,24(s0)
     9d4:	0004                	0x4
     9d6:	0000                	unimp
     9d8:	0000                	unimp
     9da:	0100                	addi	s0,sp,128
     9dc:	5a00                	lw	s0,48(a2)
	...
     9ee:	03e4                	addi	s1,sp,460
     9f0:	0000                	unimp
     9f2:	0000                	unimp
     9f4:	0000                	unimp
     9f6:	03f2                	slli	t2,t2,0x1c
     9f8:	0000                	unimp
     9fa:	0000                	unimp
     9fc:	0000                	unimp
     9fe:	0001                	nop
     a00:	f25a                	sd	s6,288(sp)
     a02:	00000003          	lb	zero,0(zero) # 0 <_tdata_begin>
     a06:	0000                	unimp
     a08:	f800                	sd	s0,48(s0)
     a0a:	00000003          	lb	zero,0(zero) # 0 <_tdata_begin>
     a0e:	0000                	unimp
     a10:	0100                	addi	s0,sp,128
     a12:	6300                	ld	s0,0(a4)
     a14:	03f8                	addi	a4,sp,460
     a16:	0000                	unimp
     a18:	0000                	unimp
     a1a:	0000                	unimp
     a1c:	03fa                	slli	t2,t2,0x1e
     a1e:	0000                	unimp
     a20:	0000                	unimp
     a22:	0000                	unimp
     a24:	0001                	nop
     a26:	025a                	slli	tp,tp,0x16
     a28:	0004                	0x4
     a2a:	0000                	unimp
     a2c:	0000                	unimp
     a2e:	0a00                	addi	s0,sp,272
     a30:	0004                	0x4
     a32:	0000                	unimp
     a34:	0000                	unimp
     a36:	0100                	addi	s0,sp,128
     a38:	5a00                	lw	s0,48(a2)
	...
     a4a:	03e8                	addi	a0,sp,460
     a4c:	0000                	unimp
     a4e:	0000                	unimp
     a50:	0000                	unimp
     a52:	03ec                	addi	a1,sp,460
     a54:	0000                	unimp
     a56:	0000                	unimp
     a58:	0000                	unimp
     a5a:	0002                	c.slli64	zero
     a5c:	9f3a                	add	t5,t5,a4
     a5e:	03fa                	slli	t2,t2,0x1e
     a60:	0000                	unimp
     a62:	0000                	unimp
     a64:	0000                	unimp
     a66:	03fc                	addi	a5,sp,460
     a68:	0000                	unimp
     a6a:	0000                	unimp
     a6c:	0000                	unimp
     a6e:	0002                	c.slli64	zero
     a70:	9f38                	0x9f38
     a72:	03fc                	addi	a5,sp,460
     a74:	0000                	unimp
     a76:	0000                	unimp
     a78:	0000                	unimp
     a7a:	040a                	slli	s0,s0,0x2
     a7c:	0000                	unimp
     a7e:	0000                	unimp
     a80:	0000                	unimp
     a82:	0001                	nop
     a84:	00040a63          	beqz	s0,a98 <_tbss_end+0xa54>
     a88:	0000                	unimp
     a8a:	0000                	unimp
     a8c:	2e00                	fld	fs0,24(a2)
     a8e:	0004                	0x4
     a90:	0000                	unimp
     a92:	0000                	unimp
     a94:	0100                	addi	s0,sp,128
     a96:	5c00                	lw	s0,56(s0)
	...
     aa8:	02bc                	addi	a5,sp,328
     aaa:	0000                	unimp
     aac:	0000                	unimp
     aae:	0000                	unimp
     ab0:	02c8                	addi	a0,sp,324
     ab2:	0000                	unimp
     ab4:	0000                	unimp
     ab6:	0000                	unimp
     ab8:	0002                	c.slli64	zero
     aba:	9f30                	0x9f30
     abc:	02c8                	addi	a0,sp,324
     abe:	0000                	unimp
     ac0:	0000                	unimp
     ac2:	0000                	unimp
     ac4:	035a                	slli	t1,t1,0x16
     ac6:	0000                	unimp
     ac8:	0000                	unimp
     aca:	0000                	unimp
     acc:	0001                	nop
     ace:	00035e5b          	0x35e5b
     ad2:	0000                	unimp
     ad4:	0000                	unimp
     ad6:	6800                	ld	s0,16(s0)
     ad8:	00000003          	lb	zero,0(zero) # 0 <_tdata_begin>
     adc:	0000                	unimp
     ade:	0100                	addi	s0,sp,128
     ae0:	5b00                	lw	s0,48(a4)
     ae2:	036e                	slli	t1,t1,0x1b
     ae4:	0000                	unimp
     ae6:	0000                	unimp
     ae8:	0000                	unimp
     aea:	038c                	addi	a1,sp,448
     aec:	0000                	unimp
     aee:	0000                	unimp
     af0:	0000                	unimp
     af2:	0001                	nop
     af4:	0003985b          	0x3985b
     af8:	0000                	unimp
     afa:	0000                	unimp
     afc:	a200                	fsd	fs0,0(a2)
     afe:	00000003          	lb	zero,0(zero) # 0 <_tdata_begin>
     b02:	0000                	unimp
     b04:	0100                	addi	s0,sp,128
     b06:	5b00                	lw	s0,48(a4)
     b08:	03dc                	addi	a5,sp,452
     b0a:	0000                	unimp
     b0c:	0000                	unimp
     b0e:	0000                	unimp
     b10:	03e1                	addi	t2,t2,24
     b12:	0000                	unimp
     b14:	0000                	unimp
     b16:	0000                	unimp
     b18:	0001                	nop
     b1a:	0003fa5b          	0x3fa5b
     b1e:	0000                	unimp
     b20:	0000                	unimp
     b22:	0100                	addi	s0,sp,128
     b24:	0004                	0x4
     b26:	0000                	unimp
     b28:	0000                	unimp
     b2a:	0100                	addi	s0,sp,128
     b2c:	5b00                	lw	s0,48(a4)
     b2e:	042e                	slli	s0,s0,0xb
     b30:	0000                	unimp
     b32:	0000                	unimp
     b34:	0000                	unimp
     b36:	0444                	addi	s1,sp,516
     b38:	0000                	unimp
     b3a:	0000                	unimp
     b3c:	0000                	unimp
     b3e:	0002                	c.slli64	zero
     b40:	9f31                	addw	a4,a4,a2
     b42:	0444                	addi	s1,sp,516
     b44:	0000                	unimp
     b46:	0000                	unimp
     b48:	0000                	unimp
     b4a:	0448                	addi	a0,sp,516
     b4c:	0000                	unimp
     b4e:	0000                	unimp
     b50:	0000                	unimp
     b52:	0001                	nop
     b54:	0004865b          	0x4865b
     b58:	0000                	unimp
     b5a:	0000                	unimp
     b5c:	8800                	0x8800
     b5e:	0004                	0x4
     b60:	0000                	unimp
     b62:	0000                	unimp
     b64:	0100                	addi	s0,sp,128
     b66:	5b00                	lw	s0,48(a4)
     b68:	048c                	addi	a1,sp,576
     b6a:	0000                	unimp
     b6c:	0000                	unimp
     b6e:	0000                	unimp
     b70:	048e                	slli	s1,s1,0x3
     b72:	0000                	unimp
     b74:	0000                	unimp
     b76:	0000                	unimp
     b78:	0001                	nop
     b7a:	0000005b          	0x5b
	...
     b8a:	bc00                	fsd	fs0,56(s0)
     b8c:	0002                	c.slli64	zero
     b8e:	0000                	unimp
     b90:	0000                	unimp
     b92:	c800                	sw	s0,16(s0)
     b94:	0002                	c.slli64	zero
     b96:	0000                	unimp
     b98:	0000                	unimp
     b9a:	0300                	addi	s0,sp,384
     b9c:	0900                	addi	s0,sp,144
     b9e:	9fff                	0x9fff
     ba0:	02c8                	addi	a0,sp,324
     ba2:	0000                	unimp
     ba4:	0000                	unimp
     ba6:	0000                	unimp
     ba8:	0340                	addi	s0,sp,388
     baa:	0000                	unimp
     bac:	0000                	unimp
     bae:	0000                	unimp
     bb0:	0001                	nop
     bb2:	4264                	lw	s1,68(a2)
     bb4:	00000003          	lb	zero,0(zero) # 0 <_tdata_begin>
     bb8:	0000                	unimp
     bba:	4e00                	lw	s0,24(a2)
     bbc:	00000003          	lb	zero,0(zero) # 0 <_tdata_begin>
     bc0:	0000                	unimp
     bc2:	0100                	addi	s0,sp,128
     bc4:	6400                	ld	s0,8(s0)
     bc6:	0350                	addi	a2,sp,388
     bc8:	0000                	unimp
     bca:	0000                	unimp
     bcc:	0000                	unimp
     bce:	0396                	slli	t2,t2,0x5
     bd0:	0000                	unimp
     bd2:	0000                	unimp
     bd4:	0000                	unimp
     bd6:	0001                	nop
     bd8:	9864                	0x9864
     bda:	00000003          	lb	zero,0(zero) # 0 <_tdata_begin>
     bde:	0000                	unimp
     be0:	4800                	lw	s0,16(s0)
     be2:	0004                	0x4
     be4:	0000                	unimp
     be6:	0000                	unimp
     be8:	0100                	addi	s0,sp,128
     bea:	6400                	ld	s0,8(s0)
     bec:	0486                	slli	s1,s1,0x1
     bee:	0000                	unimp
     bf0:	0000                	unimp
     bf2:	0000                	unimp
     bf4:	0498                	addi	a4,sp,576
     bf6:	0000                	unimp
     bf8:	0000                	unimp
     bfa:	0000                	unimp
     bfc:	0001                	nop
     bfe:	0064                	addi	s1,sp,12
	...
     c0c:	0000                	unimp
     c0e:	bc00                	fsd	fs0,56(s0)
     c10:	0002                	c.slli64	zero
     c12:	0000                	unimp
     c14:	0000                	unimp
     c16:	c800                	sw	s0,16(s0)
     c18:	0002                	c.slli64	zero
     c1a:	0000                	unimp
     c1c:	0000                	unimp
     c1e:	0300                	addi	s0,sp,384
     c20:	0900                	addi	s0,sp,144
     c22:	9fff                	0x9fff
     c24:	02c8                	addi	a0,sp,324
     c26:	0000                	unimp
     c28:	0000                	unimp
     c2a:	0000                	unimp
     c2c:	0316                	slli	t1,t1,0x5
     c2e:	0000                	unimp
     c30:	0000                	unimp
     c32:	0000                	unimp
     c34:	0001                	nop
     c36:	1666                	slli	a2,a2,0x39
     c38:	00000003          	lb	zero,0(zero) # 0 <_tdata_begin>
     c3c:	0000                	unimp
     c3e:	2400                	fld	fs0,8(s0)
     c40:	00000003          	lb	zero,0(zero) # 0 <_tdata_begin>
     c44:	0000                	unimp
     c46:	0300                	addi	s0,sp,384
     c48:	7f00                	ld	s0,56(a4)
     c4a:	9f50                	0x9f50
     c4c:	032c                	addi	a1,sp,392
     c4e:	0000                	unimp
     c50:	0000                	unimp
     c52:	0000                	unimp
     c54:	0338                	addi	a4,sp,392
     c56:	0000                	unimp
     c58:	0000                	unimp
     c5a:	0000                	unimp
     c5c:	0001                	nop
     c5e:	3a66                	fld	fs4,120(sp)
     c60:	00000003          	lb	zero,0(zero) # 0 <_tdata_begin>
     c64:	0000                	unimp
     c66:	4200                	lw	s0,0(a2)
     c68:	00000003          	lb	zero,0(zero) # 0 <_tdata_begin>
     c6c:	0000                	unimp
     c6e:	0100                	addi	s0,sp,128
     c70:	6600                	ld	s0,8(a2)
     c72:	0342                	slli	t1,t1,0x10
     c74:	0000                	unimp
     c76:	0000                	unimp
     c78:	0000                	unimp
     c7a:	0344                	addi	s1,sp,388
     c7c:	0000                	unimp
     c7e:	0000                	unimp
     c80:	0000                	unimp
     c82:	ff090003          	lb	zero,-16(s2) # ffffffffffff7ff0 <__global_pointer$+0xffffffff7fff5fac>
     c86:	449f 0003 0000      	0x3449f
     c8c:	0000                	unimp
     c8e:	5400                	lw	s0,40(s0)
     c90:	00000003          	lb	zero,0(zero) # 0 <_tdata_begin>
     c94:	0000                	unimp
     c96:	0100                	addi	s0,sp,128
     c98:	6600                	ld	s0,8(a2)
     c9a:	0358                	addi	a4,sp,388
     c9c:	0000                	unimp
     c9e:	0000                	unimp
     ca0:	0000                	unimp
     ca2:	03c6                	slli	t2,t2,0x11
     ca4:	0000                	unimp
     ca6:	0000                	unimp
     ca8:	0000                	unimp
     caa:	0001                	nop
     cac:	dc66                	sw	s9,56(sp)
     cae:	00000003          	lb	zero,0(zero) # 0 <_tdata_begin>
     cb2:	0000                	unimp
     cb4:	4800                	lw	s0,16(s0)
     cb6:	0004                	0x4
     cb8:	0000                	unimp
     cba:	0000                	unimp
     cbc:	0100                	addi	s0,sp,128
     cbe:	6600                	ld	s0,8(a2)
     cc0:	0486                	slli	s1,s1,0x1
     cc2:	0000                	unimp
     cc4:	0000                	unimp
     cc6:	0000                	unimp
     cc8:	0498                	addi	a4,sp,576
     cca:	0000                	unimp
     ccc:	0000                	unimp
     cce:	0000                	unimp
     cd0:	0001                	nop
     cd2:	0066                	c.slli	zero,0x19
	...
     ce0:	0000                	unimp
     ce2:	bc00                	fsd	fs0,56(s0)
     ce4:	0002                	c.slli64	zero
     ce6:	0000                	unimp
     ce8:	0000                	unimp
     cea:	c800                	sw	s0,16(s0)
     cec:	0002                	c.slli64	zero
     cee:	0000                	unimp
     cf0:	0000                	unimp
     cf2:	0200                	addi	s0,sp,256
     cf4:	3000                	fld	fs0,32(s0)
     cf6:	509f 0003 0000      	0x3509f
     cfc:	0000                	unimp
     cfe:	5400                	lw	s0,40(s0)
     d00:	00000003          	lb	zero,0(zero) # 0 <_tdata_begin>
     d04:	0000                	unimp
     d06:	0200                	addi	s0,sp,256
     d08:	3100                	fld	fs0,32(a0)
     d0a:	009f 0000 0000      	0x9f
	...
     d18:	0000                	unimp
     d1a:	bc00                	fsd	fs0,56(s0)
     d1c:	0002                	c.slli64	zero
     d1e:	0000                	unimp
     d20:	0000                	unimp
     d22:	c800                	sw	s0,16(s0)
     d24:	0002                	c.slli64	zero
     d26:	0000                	unimp
     d28:	0000                	unimp
     d2a:	0300                	addi	s0,sp,384
     d2c:	0800                	addi	s0,sp,16
     d2e:	9f20                	0x9f20
     d30:	02c8                	addi	a0,sp,324
     d32:	0000                	unimp
     d34:	0000                	unimp
     d36:	0000                	unimp
     d38:	02fa                	slli	t0,t0,0x1e
     d3a:	0000                	unimp
     d3c:	0000                	unimp
     d3e:	0000                	unimp
     d40:	0001                	nop
     d42:	fe65                	bnez	a2,d3a <_tbss_end+0xcf6>
     d44:	0002                	c.slli64	zero
     d46:	0000                	unimp
     d48:	0000                	unimp
     d4a:	5c00                	lw	s0,56(s0)
     d4c:	00000003          	lb	zero,0(zero) # 0 <_tdata_begin>
     d50:	0000                	unimp
     d52:	0100                	addi	s0,sp,128
     d54:	6500                	ld	s0,8(a0)
     d56:	035e                	slli	t1,t1,0x17
     d58:	0000                	unimp
     d5a:	0000                	unimp
     d5c:	0000                	unimp
     d5e:	0408                	addi	a0,sp,512
     d60:	0000                	unimp
     d62:	0000                	unimp
     d64:	0000                	unimp
     d66:	0001                	nop
     d68:	2e65                	addiw	t3,t3,25
     d6a:	0004                	0x4
     d6c:	0000                	unimp
     d6e:	0000                	unimp
     d70:	4800                	lw	s0,16(s0)
     d72:	0004                	0x4
     d74:	0000                	unimp
     d76:	0000                	unimp
     d78:	0100                	addi	s0,sp,128
     d7a:	6500                	ld	s0,8(a0)
     d7c:	0486                	slli	s1,s1,0x1
     d7e:	0000                	unimp
     d80:	0000                	unimp
     d82:	0000                	unimp
     d84:	0498                	addi	a4,sp,576
     d86:	0000                	unimp
     d88:	0000                	unimp
     d8a:	0000                	unimp
     d8c:	0001                	nop
     d8e:	0065                	c.nop	25
	...
     d9c:	0000                	unimp
     d9e:	0800                	addi	s0,sp,16
     da0:	0004                	0x4
     da2:	0000                	unimp
     da4:	0000                	unimp
     da6:	2e00                	fld	fs0,24(a2)
     da8:	0004                	0x4
     daa:	0000                	unimp
     dac:	0000                	unimp
     dae:	0100                	addi	s0,sp,128
     db0:	6500                	ld	s0,8(a0)
     db2:	0448                	addi	a0,sp,516
     db4:	0000                	unimp
     db6:	0000                	unimp
     db8:	0000                	unimp
     dba:	0486                	slli	s1,s1,0x1
     dbc:	0000                	unimp
     dbe:	0000                	unimp
     dc0:	0000                	unimp
     dc2:	0001                	nop
     dc4:	0065                	c.nop	25
	...
     dd2:	0000                	unimp
     dd4:	0800                	addi	s0,sp,16
     dd6:	0004                	0x4
     dd8:	0000                	unimp
     dda:	0000                	unimp
     ddc:	2e00                	fld	fs0,24(a2)
     dde:	0004                	0x4
     de0:	0000                	unimp
     de2:	0000                	unimp
     de4:	0100                	addi	s0,sp,128
     de6:	6400                	ld	s0,8(s0)
     de8:	0448                	addi	a0,sp,516
     dea:	0000                	unimp
     dec:	0000                	unimp
     dee:	0000                	unimp
     df0:	044c                	addi	a1,sp,516
     df2:	0000                	unimp
     df4:	0000                	unimp
     df6:	0000                	unimp
     df8:	0001                	nop
     dfa:	4c64                	lw	s1,92(s0)
     dfc:	0004                	0x4
     dfe:	0000                	unimp
     e00:	0000                	unimp
     e02:	5800                	lw	s0,48(s0)
     e04:	0004                	0x4
     e06:	0000                	unimp
     e08:	0000                	unimp
     e0a:	0300                	addi	s0,sp,384
     e0c:	8400                	0x8400
     e0e:	9f7f                	0x9f7f
	...
     e20:	0408                	addi	a0,sp,512
     e22:	0000                	unimp
     e24:	0000                	unimp
     e26:	0000                	unimp
     e28:	042e                	slli	s0,s0,0xb
     e2a:	0000                	unimp
     e2c:	0000                	unimp
     e2e:	0000                	unimp
     e30:	0001                	nop
     e32:	005c                	addi	a5,sp,4
	...
     e40:	0000                	unimp
     e42:	0800                	addi	s0,sp,16
     e44:	0004                	0x4
     e46:	0000                	unimp
     e48:	0000                	unimp
     e4a:	2e00                	fld	fs0,24(a2)
     e4c:	0004                	0x4
     e4e:	0000                	unimp
     e50:	0000                	unimp
     e52:	0100                	addi	s0,sp,128
     e54:	5a00                	lw	s0,48(a2)
	...
     e66:	0408                	addi	a0,sp,512
     e68:	0000                	unimp
     e6a:	0000                	unimp
     e6c:	0000                	unimp
     e6e:	042e                	slli	s0,s0,0xb
     e70:	0000                	unimp
     e72:	0000                	unimp
     e74:	0000                	unimp
     e76:	0001                	nop
     e78:	4859                	li	a6,22
     e7a:	0004                	0x4
     e7c:	0000                	unimp
     e7e:	0000                	unimp
     e80:	8600                	0x8600
     e82:	0004                	0x4
     e84:	0000                	unimp
     e86:	0000                	unimp
     e88:	0100                	addi	s0,sp,128
     e8a:	5900                	lw	s0,48(a0)
	...
     e9c:	0408                	addi	a0,sp,512
     e9e:	0000                	unimp
     ea0:	0000                	unimp
     ea2:	0000                	unimp
     ea4:	042e                	slli	s0,s0,0xb
     ea6:	0000                	unimp
     ea8:	0000                	unimp
     eaa:	0000                	unimp
     eac:	0001                	nop
     eae:	4862                	lw	a6,24(sp)
     eb0:	0004                	0x4
     eb2:	0000                	unimp
     eb4:	0000                	unimp
     eb6:	8600                	0x8600
     eb8:	0004                	0x4
     eba:	0000                	unimp
     ebc:	0000                	unimp
     ebe:	0100                	addi	s0,sp,128
     ec0:	6200                	ld	s0,0(a2)
	...
     ed2:	0408                	addi	a0,sp,512
     ed4:	0000                	unimp
     ed6:	0000                	unimp
     ed8:	0000                	unimp
     eda:	040a                	slli	s0,s0,0x2
     edc:	0000                	unimp
     ede:	0000                	unimp
     ee0:	0000                	unimp
     ee2:	0002                	c.slli64	zero
     ee4:	9f30                	0x9f30
     ee6:	040a                	slli	s0,s0,0x2
     ee8:	0000                	unimp
     eea:	0000                	unimp
     eec:	0000                	unimp
     eee:	0418                	addi	a4,sp,512
     ef0:	0000                	unimp
     ef2:	0000                	unimp
     ef4:	0000                	unimp
     ef6:	0001                	nop
     ef8:	185f 0004 0000      	0x4185f
     efe:	0000                	unimp
     f00:	1a00                	addi	s0,sp,304
     f02:	0004                	0x4
     f04:	0000                	unimp
     f06:	0000                	unimp
     f08:	0300                	addi	s0,sp,384
     f0a:	7f00                	ld	s0,56(a4)
     f0c:	9f01                	subw	a4,a4,s0
     f0e:	045a                	slli	s0,s0,0x16
     f10:	0000                	unimp
     f12:	0000                	unimp
     f14:	0000                	unimp
     f16:	0466                	slli	s0,s0,0x19
     f18:	0000                	unimp
     f1a:	0000                	unimp
     f1c:	0000                	unimp
     f1e:	7f830003          	lb	zero,2040(t1) # ffffffffffffa7f8 <__global_pointer$+0xffffffff7fff87b4>
     f22:	669f 0004 0000      	0x4669f
     f28:	0000                	unimp
     f2a:	6a00                	ld	s0,16(a2)
     f2c:	0004                	0x4
     f2e:	0000                	unimp
     f30:	0000                	unimp
     f32:	0100                	addi	s0,sp,128
     f34:	6300                	ld	s0,0(a4)
     f36:	046a                	slli	s0,s0,0x1a
     f38:	0000                	unimp
     f3a:	0000                	unimp
     f3c:	0000                	unimp
     f3e:	0486                	slli	s1,s1,0x1
     f40:	0000                	unimp
     f42:	0000                	unimp
     f44:	0000                	unimp
     f46:	7f830003          	lb	zero,2040(t1)
     f4a:	009f 0000 0000      	0x9f
	...
     f58:	0000                	unimp
     f5a:	2e00                	fld	fs0,24(a2)
     f5c:	0000                	unimp
     f5e:	0000                	unimp
     f60:	0000                	unimp
     f62:	4000                	lw	s0,0(s0)
     f64:	0000                	unimp
     f66:	0000                	unimp
     f68:	0000                	unimp
     f6a:	0100                	addi	s0,sp,128
     f6c:	5a00                	lw	s0,48(a2)
     f6e:	0040                	addi	s0,sp,4
     f70:	0000                	unimp
     f72:	0000                	unimp
     f74:	0000                	unimp
     f76:	0042                	c.slli	zero,0x10
     f78:	0000                	unimp
     f7a:	0000                	unimp
     f7c:	0000                	unimp
     f7e:	0004                	0x4
     f80:	9f5a01f3          	0x9f5a01f3
     f84:	0042                	c.slli	zero,0x10
     f86:	0000                	unimp
     f88:	0000                	unimp
     f8a:	0000                	unimp
     f8c:	004c                	addi	a1,sp,4
     f8e:	0000                	unimp
     f90:	0000                	unimp
     f92:	0000                	unimp
     f94:	0001                	nop
     f96:	4c5a                	lw	s8,148(sp)
     f98:	0000                	unimp
     f9a:	0000                	unimp
     f9c:	0000                	unimp
     f9e:	4e00                	lw	s0,24(a2)
     fa0:	0000                	unimp
     fa2:	0000                	unimp
     fa4:	0000                	unimp
     fa6:	0400                	addi	s0,sp,512
     fa8:	f300                	sd	s0,32(a4)
     faa:	5a01                	li	s4,-32
     fac:	4e9f 0000 0000      	0x4e9f
     fb2:	0000                	unimp
     fb4:	5800                	lw	s0,48(s0)
     fb6:	0000                	unimp
     fb8:	0000                	unimp
     fba:	0000                	unimp
     fbc:	0100                	addi	s0,sp,128
     fbe:	5a00                	lw	s0,48(a2)
     fc0:	0058                	addi	a4,sp,4
     fc2:	0000                	unimp
     fc4:	0000                	unimp
     fc6:	0000                	unimp
     fc8:	005a                	c.slli	zero,0x16
     fca:	0000                	unimp
     fcc:	0000                	unimp
     fce:	0000                	unimp
     fd0:	0004                	0x4
     fd2:	9f5a01f3          	0x9f5a01f3
	...
     fee:	0012                	c.slli	zero,0x4
     ff0:	0000                	unimp
     ff2:	0000                	unimp
     ff4:	0000                	unimp
     ff6:	0001                	nop
     ff8:	125a                	slli	tp,tp,0x36
     ffa:	0000                	unimp
     ffc:	0000                	unimp
     ffe:	0000                	unimp
    1000:	1400                	addi	s0,sp,544
    1002:	0000                	unimp
    1004:	0000                	unimp
    1006:	0000                	unimp
    1008:	0400                	addi	s0,sp,512
    100a:	f300                	sd	s0,32(a4)
    100c:	5a01                	li	s4,-32
    100e:	149f 0000 0000      	0x149f
    1014:	0000                	unimp
    1016:	1e00                	addi	s0,sp,816
    1018:	0000                	unimp
    101a:	0000                	unimp
    101c:	0000                	unimp
    101e:	0100                	addi	s0,sp,128
    1020:	5a00                	lw	s0,48(a2)
    1022:	001e                	c.slli	zero,0x7
    1024:	0000                	unimp
    1026:	0000                	unimp
    1028:	0000                	unimp
    102a:	0020                	addi	s0,sp,8
    102c:	0000                	unimp
    102e:	0000                	unimp
    1030:	0000                	unimp
    1032:	0004                	0x4
    1034:	9f5a01f3          	0x9f5a01f3
    1038:	0020                	addi	s0,sp,8
    103a:	0000                	unimp
    103c:	0000                	unimp
    103e:	0000                	unimp
    1040:	002c                	addi	a1,sp,8
    1042:	0000                	unimp
    1044:	0000                	unimp
    1046:	0000                	unimp
    1048:	0001                	nop
    104a:	2c5a                	fld	fs8,400(sp)
    104c:	0000                	unimp
    104e:	0000                	unimp
    1050:	0000                	unimp
    1052:	2e00                	fld	fs0,24(a2)
    1054:	0000                	unimp
    1056:	0000                	unimp
    1058:	0000                	unimp
    105a:	0400                	addi	s0,sp,512
    105c:	f300                	sd	s0,32(a4)
    105e:	5a01                	li	s4,-32
    1060:	009f 0000 0000      	0x9f
	...
    106e:	0000                	unimp
    1070:	2800                	fld	fs0,16(s0)
    1072:	0002                	c.slli64	zero
    1074:	0000                	unimp
    1076:	0000                	unimp
    1078:	4400                	lw	s0,8(s0)
    107a:	0002                	c.slli64	zero
    107c:	0000                	unimp
    107e:	0000                	unimp
    1080:	0100                	addi	s0,sp,128
    1082:	5a00                	lw	s0,48(a2)
    1084:	0244                	addi	s1,sp,260
    1086:	0000                	unimp
    1088:	0000                	unimp
    108a:	0000                	unimp
    108c:	0262                	slli	tp,tp,0x18
    108e:	0000                	unimp
    1090:	0000                	unimp
    1092:	0000                	unimp
    1094:	0001                	nop
    1096:	005a                	c.slli	zero,0x16
	...
    10a4:	0000                	unimp
    10a6:	2c00                	fld	fs0,24(s0)
    10a8:	0002                	c.slli64	zero
    10aa:	0000                	unimp
    10ac:	0000                	unimp
    10ae:	3000                	fld	fs0,32(s0)
    10b0:	0002                	c.slli64	zero
    10b2:	0000                	unimp
    10b4:	0000                	unimp
    10b6:	0200                	addi	s0,sp,256
    10b8:	3000                	fld	fs0,32(s0)
    10ba:	309f 0002 0000      	0x2309f
    10c0:	0000                	unimp
    10c2:	6500                	ld	s0,8(a0)
    10c4:	0002                	c.slli64	zero
    10c6:	0000                	unimp
    10c8:	0000                	unimp
    10ca:	0100                	addi	s0,sp,128
    10cc:	5e00                	lw	s0,56(a2)
	...
    10de:	04f2                	slli	s1,s1,0x1c
    10e0:	0000                	unimp
    10e2:	0000                	unimp
    10e4:	0000                	unimp
    10e6:	04fe                	slli	s1,s1,0x1f
    10e8:	0000                	unimp
    10ea:	0000                	unimp
    10ec:	0000                	unimp
    10ee:	0001                	nop
    10f0:	fe5a                	sd	s6,312(sp)
    10f2:	0004                	0x4
    10f4:	0000                	unimp
    10f6:	0000                	unimp
    10f8:	4200                	lw	s0,0(a2)
    10fa:	0005                	c.nop	1
    10fc:	0000                	unimp
    10fe:	0000                	unimp
    1100:	0400                	addi	s0,sp,512
    1102:	f300                	sd	s0,32(a4)
    1104:	5a01                	li	s4,-32
    1106:	009f 0000 0000      	0x9f
	...
    1114:	0000                	unimp
    1116:	f200                	sd	s0,32(a2)
    1118:	0004                	0x4
    111a:	0000                	unimp
    111c:	0000                	unimp
    111e:	fc00                	sd	s0,56(s0)
    1120:	0004                	0x4
    1122:	0000                	unimp
    1124:	0000                	unimp
    1126:	0100                	addi	s0,sp,128
    1128:	5b00                	lw	s0,48(a4)
    112a:	04fc                	addi	a5,sp,588
    112c:	0000                	unimp
    112e:	0000                	unimp
    1130:	0000                	unimp
    1132:	0542                	slli	a0,a0,0x10
    1134:	0000                	unimp
    1136:	0000                	unimp
    1138:	0000                	unimp
    113a:	0004                	0x4
    113c:	9f5b01f3          	0x9f5b01f3
	...
    1150:	0504                	addi	s1,sp,640
    1152:	0000                	unimp
    1154:	0000                	unimp
    1156:	0000                	unimp
    1158:	0508                	addi	a0,sp,640
    115a:	0000                	unimp
    115c:	0000                	unimp
    115e:	0000                	unimp
    1160:	0002                	c.slli64	zero
    1162:	9f30                	0x9f30
    1164:	0508                	addi	a0,sp,640
    1166:	0000                	unimp
    1168:	0000                	unimp
    116a:	0000                	unimp
    116c:	0542                	slli	a0,a0,0x10
    116e:	0000                	unimp
    1170:	0000                	unimp
    1172:	0000                	unimp
    1174:	0001                	nop
    1176:	0058                	addi	a4,sp,4
	...
    1184:	0000                	unimp
    1186:	a200                	fsd	fs0,0(a2)
    1188:	0000                	unimp
    118a:	0000                	unimp
    118c:	0000                	unimp
    118e:	cc00                	sw	s0,24(s0)
    1190:	0000                	unimp
    1192:	0000                	unimp
    1194:	0000                	unimp
    1196:	0100                	addi	s0,sp,128
    1198:	5a00                	lw	s0,48(a2)
    119a:	00cc                	addi	a1,sp,68
    119c:	0000                	unimp
    119e:	0000                	unimp
    11a0:	0000                	unimp
    11a2:	00ce                	slli	ra,ra,0x13
    11a4:	0000                	unimp
    11a6:	0000                	unimp
    11a8:	0000                	unimp
    11aa:	0004                	0x4
    11ac:	9f5a01f3          	0x9f5a01f3
    11b0:	00ce                	slli	ra,ra,0x13
    11b2:	0000                	unimp
    11b4:	0000                	unimp
    11b6:	0000                	unimp
    11b8:	00dc                	addi	a5,sp,68
    11ba:	0000                	unimp
    11bc:	0000                	unimp
    11be:	0000                	unimp
    11c0:	0001                	nop
    11c2:	dc5a                	sw	s6,56(sp)
    11c4:	0000                	unimp
    11c6:	0000                	unimp
    11c8:	0000                	unimp
    11ca:	ec00                	sd	s0,24(s0)
    11cc:	0000                	unimp
    11ce:	0000                	unimp
    11d0:	0000                	unimp
    11d2:	0400                	addi	s0,sp,512
    11d4:	f300                	sd	s0,32(a4)
    11d6:	5a01                	li	s4,-32
    11d8:	009f 0000 0000      	0x9f
	...
    11e6:	0000                	unimp
    11e8:	1000                	addi	s0,sp,32
    11ea:	0002                	c.slli64	zero
    11ec:	0000                	unimp
    11ee:	0000                	unimp
    11f0:	1c00                	addi	s0,sp,560
    11f2:	0002                	c.slli64	zero
    11f4:	0000                	unimp
    11f6:	0000                	unimp
    11f8:	0100                	addi	s0,sp,128
    11fa:	5a00                	lw	s0,48(a2)
    11fc:	021c                	addi	a5,sp,256
    11fe:	0000                	unimp
    1200:	0000                	unimp
    1202:	0000                	unimp
    1204:	0228                	addi	a0,sp,264
    1206:	0000                	unimp
    1208:	0000                	unimp
    120a:	0000                	unimp
    120c:	0004                	0x4
    120e:	9f5a01f3          	0x9f5a01f3
	...
    1222:	0210                	addi	a2,sp,256
    1224:	0000                	unimp
    1226:	0000                	unimp
    1228:	0000                	unimp
    122a:	021f 0000 0000      	0x21f
    1230:	0000                	unimp
    1232:	0001                	nop
    1234:	00021f5b          	0x21f5b
    1238:	0000                	unimp
    123a:	0000                	unimp
    123c:	2800                	fld	fs0,16(s0)
    123e:	0002                	c.slli64	zero
    1240:	0000                	unimp
    1242:	0000                	unimp
    1244:	0400                	addi	s0,sp,512
    1246:	f300                	sd	s0,32(a4)
    1248:	5b01                	li	s6,-32
    124a:	009f 0000 0000      	0x9f
	...
    1258:	0000                	unimp
    125a:	ee00                	sd	s0,24(a2)
    125c:	0001                	nop
    125e:	0000                	unimp
    1260:	0000                	unimp
    1262:	f900                	sd	s0,48(a0)
    1264:	0001                	nop
    1266:	0000                	unimp
    1268:	0000                	unimp
    126a:	0100                	addi	s0,sp,128
    126c:	5a00                	lw	s0,48(a2)
    126e:	01f9                	addi	gp,gp,30
    1270:	0000                	unimp
    1272:	0000                	unimp
    1274:	0000                	unimp
    1276:	020c                	addi	a1,sp,256
    1278:	0000                	unimp
    127a:	0000                	unimp
    127c:	0000                	unimp
    127e:	0001                	nop
    1280:	0c58                	addi	a4,sp,532
    1282:	0002                	c.slli64	zero
    1284:	0000                	unimp
    1286:	0000                	unimp
    1288:	1000                	addi	s0,sp,32
    128a:	0002                	c.slli64	zero
    128c:	0000                	unimp
    128e:	0000                	unimp
    1290:	0400                	addi	s0,sp,512
    1292:	f300                	sd	s0,32(a4)
    1294:	5a01                	li	s4,-32
    1296:	009f 0000 0000      	0x9f
	...
    12a4:	0000                	unimp
    12a6:	da00                	sw	s0,48(a2)
    12a8:	0004                	0x4
    12aa:	0000                	unimp
    12ac:	0000                	unimp
    12ae:	ea00                	sd	s0,16(a2)
    12b0:	0004                	0x4
    12b2:	0000                	unimp
    12b4:	0000                	unimp
    12b6:	0100                	addi	s0,sp,128
    12b8:	5a00                	lw	s0,48(a2)
    12ba:	04ea                	slli	s1,s1,0x1a
    12bc:	0000                	unimp
    12be:	0000                	unimp
    12c0:	0000                	unimp
    12c2:	04ed                	addi	s1,s1,27
    12c4:	0000                	unimp
    12c6:	0000                	unimp
    12c8:	0000                	unimp
    12ca:	0001                	nop
    12cc:	0004ed5b          	0x4ed5b
    12d0:	0000                	unimp
    12d2:	0000                	unimp
    12d4:	f200                	sd	s0,32(a2)
    12d6:	0004                	0x4
    12d8:	0000                	unimp
    12da:	0000                	unimp
    12dc:	0400                	addi	s0,sp,512
    12de:	f300                	sd	s0,32(a4)
    12e0:	5a01                	li	s4,-32
    12e2:	009f 0000 0000      	0x9f
	...
    12f0:	0000                	unimp
    12f2:	da00                	sw	s0,48(a2)
    12f4:	0004                	0x4
    12f6:	0000                	unimp
    12f8:	0000                	unimp
    12fa:	e200                	sd	s0,0(a2)
    12fc:	0004                	0x4
    12fe:	0000                	unimp
    1300:	0000                	unimp
    1302:	0100                	addi	s0,sp,128
    1304:	5b00                	lw	s0,48(a4)
    1306:	04e2                	slli	s1,s1,0x18
    1308:	0000                	unimp
    130a:	0000                	unimp
    130c:	0000                	unimp
    130e:	04ed                	addi	s1,s1,27
    1310:	0000                	unimp
    1312:	0000                	unimp
    1314:	0000                	unimp
    1316:	0001                	nop
    1318:	ed5c                	sd	a5,152(a0)
    131a:	0004                	0x4
    131c:	0000                	unimp
    131e:	0000                	unimp
    1320:	f200                	sd	s0,32(a2)
    1322:	0004                	0x4
    1324:	0000                	unimp
    1326:	0000                	unimp
    1328:	0400                	addi	s0,sp,512
    132a:	f300                	sd	s0,32(a4)
    132c:	5b01                	li	s6,-32
    132e:	009f 0000 0000      	0x9f
	...
    133c:	0000                	unimp
    133e:	da00                	sw	s0,48(a2)
    1340:	0004                	0x4
    1342:	0000                	unimp
    1344:	0000                	unimp
    1346:	e000                	sd	s0,0(s0)
    1348:	0004                	0x4
    134a:	0000                	unimp
    134c:	0000                	unimp
    134e:	0100                	addi	s0,sp,128
    1350:	5c00                	lw	s0,56(s0)
    1352:	04e0                	addi	s0,sp,588
    1354:	0000                	unimp
    1356:	0000                	unimp
    1358:	0000                	unimp
    135a:	04f2                	slli	s1,s1,0x1c
    135c:	0000                	unimp
    135e:	0000                	unimp
    1360:	0000                	unimp
    1362:	0004                	0x4
    1364:	9f5c01f3          	0x9f5c01f3
	...
    1378:	0108                	addi	a0,sp,128
    137a:	0000                	unimp
    137c:	0000                	unimp
    137e:	0000                	unimp
    1380:	0124                	addi	s1,sp,136
    1382:	0000                	unimp
    1384:	0000                	unimp
    1386:	0000                	unimp
    1388:	0002                	c.slli64	zero
    138a:	9f30                	0x9f30
    138c:	0124                	addi	s1,sp,136
    138e:	0000                	unimp
    1390:	0000                	unimp
    1392:	0000                	unimp
    1394:	0148                	addi	a0,sp,132
    1396:	0000                	unimp
    1398:	0000                	unimp
    139a:	0000                	unimp
    139c:	0002                	c.slli64	zero
    139e:	9f31                	addw	a4,a4,a2
    13a0:	0148                	addi	a0,sp,132
    13a2:	0000                	unimp
    13a4:	0000                	unimp
    13a6:	0000                	unimp
    13a8:	0152                	slli	sp,sp,0x14
    13aa:	0000                	unimp
    13ac:	0000                	unimp
    13ae:	0000                	unimp
    13b0:	0002                	c.slli64	zero
    13b2:	9f32                	add	t5,t5,a2
	...
    13c4:	010c                	addi	a1,sp,128
    13c6:	0000                	unimp
    13c8:	0000                	unimp
    13ca:	0000                	unimp
    13cc:	0130                	addi	a2,sp,136
    13ce:	0000                	unimp
    13d0:	0000                	unimp
    13d2:	0000                	unimp
    13d4:	0001                	nop
    13d6:	305f 0001 0000      	0x1305f
    13dc:	0000                	unimp
    13de:	5200                	lw	s0,32(a2)
    13e0:	0001                	nop
    13e2:	0000                	unimp
    13e4:	0000                	unimp
    13e6:	0900                	addi	s0,sp,144
    13e8:	0300                	addi	s0,sp,384
    13ea:	1848                	addi	a0,sp,52
    13ec:	8000                	0x8000
	...
    1402:	010c                	addi	a1,sp,128
    1404:	0000                	unimp
    1406:	0000                	unimp
    1408:	0000                	unimp
    140a:	011a                	slli	sp,sp,0x6
    140c:	0000                	unimp
    140e:	0000                	unimp
    1410:	0000                	unimp
    1412:	0001                	nop
    1414:	005f 0000 0000      	0x5f
	...
    1422:	0000                	unimp
    1424:	3000                	fld	fs0,32(s0)
    1426:	0001                	nop
    1428:	0000                	unimp
    142a:	0000                	unimp
    142c:	3e00                	fld	fs0,56(a2)
    142e:	0001                	nop
    1430:	0000                	unimp
    1432:	0000                	unimp
    1434:	0100                	addi	s0,sp,128
    1436:	5f00                	lw	s0,56(a4)
	...
    1448:	0068                	addi	a0,sp,12
    144a:	0000                	unimp
    144c:	0000                	unimp
    144e:	0000                	unimp
    1450:	009e                	slli	ra,ra,0x7
    1452:	0000                	unimp
    1454:	0000                	unimp
    1456:	0000                	unimp
    1458:	0001                	nop
    145a:	9e5a                	add	t3,t3,s6
    145c:	0000                	unimp
    145e:	0000                	unimp
    1460:	0000                	unimp
    1462:	a200                	fsd	fs0,0(a2)
    1464:	0000                	unimp
    1466:	0000                	unimp
    1468:	0000                	unimp
    146a:	0400                	addi	s0,sp,512
    146c:	f300                	sd	s0,32(a4)
    146e:	5a01                	li	s4,-32
    1470:	009f 0000 0000      	0x9f
	...

Disassembly of section .debug_ranges:

0000000000000000 <.debug_ranges>:
   0:	0408                	addi	a0,sp,512
   2:	0000                	unimp
   4:	0000                	unimp
   6:	0000                	unimp
   8:	042e                	slli	s0,s0,0xb
   a:	0000                	unimp
   c:	0000                	unimp
   e:	0000                	unimp
  10:	0448                	addi	a0,sp,516
  12:	0000                	unimp
  14:	0000                	unimp
  16:	0000                	unimp
  18:	0486                	slli	s1,s1,0x1
	...
