
output/rom.riscv:     file format elf64-littleriscv


Disassembly of section .tohost:

0000000080001000 <tohost>:
	...

0000000080001040 <fromhost>:
	...

Disassembly of section .text.init:

0000000001000000 <_start>:
  .section ".text.init"
  .globl _start
_start:

  # enable FPU and accelerator if present
  li t0, MSTATUS_FS | MSTATUS_XS
 1000000:	62f9                	lui	t0,0x1e
  csrs mstatus, t0
 1000002:	3002a073          	csrs	mstatus,t0

  # make sure XLEN agrees with compilation choice
  li t0, 1
 1000006:	4285                	li	t0,1
  slli t0, t0, 31
 1000008:	02fe                	slli	t0,t0,0x1f
#if __riscv_xlen == 64
  bgez t0, 1f
 100000a:	0002d563          	bgez	t0,1000014 <_start+0x14>
#else
  bltz t0, 1f
#endif
2:
  li a0, 1
 100000e:	4505                	li	a0,1
  j exit
 1000010:	7fa0306f          	j	100380a <exit>
1:

#ifdef __riscv_flen
  # initialize FPU if we have one
  la t0, 1f
 1000014:	00000297          	auipc	t0,0x0
 1000018:	01028293          	addi	t0,t0,16 # 1000024 <_start+0x24>
  csrw mtvec, t0
 100001c:	30529073          	csrw	mtvec,t0

  fssr    x0
 1000020:	00301073          	fscsr	zero
1:
#endif

  # initialize trap vector
  la t0, trap_entry
 1000024:	00000297          	auipc	t0,0x0
 1000028:	04028293          	addi	t0,t0,64 # 1000064 <trap_entry>
  csrw mtvec, t0
 100002c:	30529073          	csrw	mtvec,t0

  # initialize global pointer
.option push
.option norelax
  la gp, __global_pointer$
 1000030:	00004197          	auipc	gp,0x4
 1000034:	57018193          	addi	gp,gp,1392 # 10045a0 <__global_pointer$>
.option pop

  li  tp, 0x80002605
 1000038:	00040237          	lui	tp,0x40
 100003c:	2205                	addiw	tp,tp,1
 100003e:	0236                	slli	tp,tp,0xd
 1000040:	60520213          	addi	tp,tp,1541 # 40605 <_tbss_end+0x40605>
  and tp, tp, -64
 1000044:	fc027213          	andi	tp,tp,-64

  # get core id
  csrr a0, mhartid
 1000048:	f1402573          	csrr	a0,mhartid
  # for now, assume only 1 core
  li a1, 1
 100004c:	4585                	li	a1,1
1:bgeu a0, a1, 1b
 100004e:	00b57063          	bgeu	a0,a1,100004e <_start+0x4e>

  # give each core 128KB of stack + TLS
#define STKSHIFT 17
  sll a2, a0, STKSHIFT
 1000052:	01151613          	slli	a2,a0,0x11
  add tp, tp, a2
 1000056:	9232                	add	tp,tp,a2
  add sp, a0, 1
 1000058:	00150113          	addi	sp,a0,1
  sll sp, sp, STKSHIFT
 100005c:	0146                	slli	sp,sp,0x11
  add sp, sp, tp
 100005e:	9112                	add	sp,sp,tp

  j _init
 1000060:	0e50306f          	j	1003944 <_init>

0000000001000064 <trap_entry>:

  .align 2
trap_entry:
  addi sp, sp, -272
 1000064:	716d                	addi	sp,sp,-272

  SREG x1, 1*REGBYTES(sp)
 1000066:	e406                	sd	ra,8(sp)
  SREG x2, 2*REGBYTES(sp)
 1000068:	e80a                	sd	sp,16(sp)
  SREG x3, 3*REGBYTES(sp)
 100006a:	ec0e                	sd	gp,24(sp)
  SREG x4, 4*REGBYTES(sp)
 100006c:	f012                	sd	tp,32(sp)
  SREG x5, 5*REGBYTES(sp)
 100006e:	f416                	sd	t0,40(sp)
  SREG x6, 6*REGBYTES(sp)
 1000070:	f81a                	sd	t1,48(sp)
  SREG x7, 7*REGBYTES(sp)
 1000072:	fc1e                	sd	t2,56(sp)
  SREG x8, 8*REGBYTES(sp)
 1000074:	e0a2                	sd	s0,64(sp)
  SREG x9, 9*REGBYTES(sp)
 1000076:	e4a6                	sd	s1,72(sp)
  SREG x10, 10*REGBYTES(sp)
 1000078:	e8aa                	sd	a0,80(sp)
  SREG x11, 11*REGBYTES(sp)
 100007a:	ecae                	sd	a1,88(sp)
  SREG x12, 12*REGBYTES(sp)
 100007c:	f0b2                	sd	a2,96(sp)
  SREG x13, 13*REGBYTES(sp)
 100007e:	f4b6                	sd	a3,104(sp)
  SREG x14, 14*REGBYTES(sp)
 1000080:	f8ba                	sd	a4,112(sp)
  SREG x15, 15*REGBYTES(sp)
 1000082:	fcbe                	sd	a5,120(sp)
  SREG x16, 16*REGBYTES(sp)
 1000084:	e142                	sd	a6,128(sp)
  SREG x17, 17*REGBYTES(sp)
 1000086:	e546                	sd	a7,136(sp)
  SREG x18, 18*REGBYTES(sp)
 1000088:	e94a                	sd	s2,144(sp)
  SREG x19, 19*REGBYTES(sp)
 100008a:	ed4e                	sd	s3,152(sp)
  SREG x20, 20*REGBYTES(sp)
 100008c:	f152                	sd	s4,160(sp)
  SREG x21, 21*REGBYTES(sp)
 100008e:	f556                	sd	s5,168(sp)
  SREG x22, 22*REGBYTES(sp)
 1000090:	f95a                	sd	s6,176(sp)
  SREG x23, 23*REGBYTES(sp)
 1000092:	fd5e                	sd	s7,184(sp)
  SREG x24, 24*REGBYTES(sp)
 1000094:	e1e2                	sd	s8,192(sp)
  SREG x25, 25*REGBYTES(sp)
 1000096:	e5e6                	sd	s9,200(sp)
  SREG x26, 26*REGBYTES(sp)
 1000098:	e9ea                	sd	s10,208(sp)
  SREG x27, 27*REGBYTES(sp)
 100009a:	edee                	sd	s11,216(sp)
  SREG x28, 28*REGBYTES(sp)
 100009c:	f1f2                	sd	t3,224(sp)
  SREG x29, 29*REGBYTES(sp)
 100009e:	f5f6                	sd	t4,232(sp)
  SREG x30, 30*REGBYTES(sp)
 10000a0:	f9fa                	sd	t5,240(sp)
  SREG x31, 31*REGBYTES(sp)
 10000a2:	fdfe                	sd	t6,248(sp)

  csrr a0, mcause
 10000a4:	34202573          	csrr	a0,mcause
  csrr a1, mepc
 10000a8:	341025f3          	csrr	a1,mepc
  mv a2, sp
 10000ac:	860a                	mv	a2,sp
  jal handle_trap
 10000ae:	07f030ef          	jal	ra,100392c <handle_trap>
  csrw mepc, a0
 10000b2:	34151073          	csrw	mepc,a0

  # Remain in M-mode after eret
  li t0, MSTATUS_MPP
 10000b6:	6289                	lui	t0,0x2
 10000b8:	8002829b          	addiw	t0,t0,-2048
  csrs mstatus, t0
 10000bc:	3002a073          	csrs	mstatus,t0

  LREG x1, 1*REGBYTES(sp)
 10000c0:	60a2                	ld	ra,8(sp)
  LREG x2, 2*REGBYTES(sp)
 10000c2:	6142                	ld	sp,16(sp)
  LREG x3, 3*REGBYTES(sp)
 10000c4:	61e2                	ld	gp,24(sp)
  LREG x4, 4*REGBYTES(sp)
 10000c6:	7202                	ld	tp,32(sp)
  LREG x5, 5*REGBYTES(sp)
 10000c8:	72a2                	ld	t0,40(sp)
  LREG x6, 6*REGBYTES(sp)
 10000ca:	7342                	ld	t1,48(sp)
  LREG x7, 7*REGBYTES(sp)
 10000cc:	73e2                	ld	t2,56(sp)
  LREG x8, 8*REGBYTES(sp)
 10000ce:	6406                	ld	s0,64(sp)
  LREG x9, 9*REGBYTES(sp)
 10000d0:	64a6                	ld	s1,72(sp)
  LREG x10, 10*REGBYTES(sp)
 10000d2:	6546                	ld	a0,80(sp)
  LREG x11, 11*REGBYTES(sp)
 10000d4:	65e6                	ld	a1,88(sp)
  LREG x12, 12*REGBYTES(sp)
 10000d6:	7606                	ld	a2,96(sp)
  LREG x13, 13*REGBYTES(sp)
 10000d8:	76a6                	ld	a3,104(sp)
  LREG x14, 14*REGBYTES(sp)
 10000da:	7746                	ld	a4,112(sp)
  LREG x15, 15*REGBYTES(sp)
 10000dc:	77e6                	ld	a5,120(sp)
  LREG x16, 16*REGBYTES(sp)
 10000de:	680a                	ld	a6,128(sp)
  LREG x17, 17*REGBYTES(sp)
 10000e0:	68aa                	ld	a7,136(sp)
  LREG x18, 18*REGBYTES(sp)
 10000e2:	694a                	ld	s2,144(sp)
  LREG x19, 19*REGBYTES(sp)
 10000e4:	69ea                	ld	s3,152(sp)
  LREG x20, 20*REGBYTES(sp)
 10000e6:	7a0a                	ld	s4,160(sp)
  LREG x21, 21*REGBYTES(sp)
 10000e8:	7aaa                	ld	s5,168(sp)
  LREG x22, 22*REGBYTES(sp)
 10000ea:	7b4a                	ld	s6,176(sp)
  LREG x23, 23*REGBYTES(sp)
 10000ec:	7bea                	ld	s7,184(sp)
  LREG x24, 24*REGBYTES(sp)
 10000ee:	6c0e                	ld	s8,192(sp)
  LREG x25, 25*REGBYTES(sp)
 10000f0:	6cae                	ld	s9,200(sp)
  LREG x26, 26*REGBYTES(sp)
 10000f2:	6d4e                	ld	s10,208(sp)
  LREG x27, 27*REGBYTES(sp)
 10000f4:	6dee                	ld	s11,216(sp)
  LREG x28, 28*REGBYTES(sp)
 10000f6:	7e0e                	ld	t3,224(sp)
  LREG x29, 29*REGBYTES(sp)
 10000f8:	7eae                	ld	t4,232(sp)
  LREG x30, 30*REGBYTES(sp)
 10000fa:	7f4e                	ld	t5,240(sp)
  LREG x31, 31*REGBYTES(sp)
 10000fc:	7fee                	ld	t6,248(sp)

  addi sp, sp, 272
 10000fe:	6151                	addi	sp,sp,272
  mret
 1000100:	30200073          	mret
	...

Disassembly of section .text:

0000000001000106 <load_key.part.0>:
                
        }
    }
    return 0;
}
int load_key(bignum_t *d,bignum_t *n, bignum_t *rr, uint8_t *cert)
 1000106:	7139                	addi	sp,sp,-64
 1000108:	fc06                	sd	ra,56(sp)
 100010a:	f426                	sd	s1,40(sp)
 100010c:	e852                	sd	s4,16(sp)
 100010e:	e456                	sd	s5,8(sp)
 1000110:	e05a                	sd	s6,0(sp)
 1000112:	f822                	sd	s0,48(sp)
 1000114:	f04a                	sd	s2,32(sp)
 1000116:	ec4e                	sd	s3,24(sp)
 1000118:	0086c903          	lbu	s2,8(a3)
 100011c:	00a6c403          	lbu	s0,10(a3)
    if (*(temp) == 0x04){
        temp = temp+3+4;
        int mod_len,exp_len,rr_len;
        mod_len = EXTRACT_LEN(temp);
        exp_len = EXTRACT_LEN((temp+2));
        rr_len = EXTRACT_LEN((temp+4));
 1000120:	00c6c983          	lbu	s3,12(a3)
 1000124:	0076c703          	lbu	a4,7(a3)
 1000128:	0096c783          	lbu	a5,9(a3)
 100012c:	00b6c803          	lbu	a6,11(a3)
 1000130:	0922                	slli	s2,s2,0x8
 1000132:	0422                	slli	s0,s0,0x8
 1000134:	09a2                	slli	s3,s3,0x8
 1000136:	00e96733          	or	a4,s2,a4
 100013a:	8fc1                	or	a5,a5,s0
 100013c:	0109e833          	or	a6,s3,a6
 1000140:	00895913          	srli	s2,s2,0x8
 1000144:	8021                	srli	s0,s0,0x8
 1000146:	0089d993          	srli	s3,s3,0x8
 100014a:	0722                	slli	a4,a4,0x8
 100014c:	07a2                	slli	a5,a5,0x8
 100014e:	0822                	slli	a6,a6,0x8
 1000150:	01276733          	or	a4,a4,s2
 1000154:	8fc1                	or	a5,a5,s0
 1000156:	01386833          	or	a6,a6,s3
        #ifdef DEBUG
            printf("%x\t",mod_len);
            printf("%x\t",exp_len);
            printf("%x\n",rr_len);
        #endif
        temp = temp+6;
 100015a:	00d68493          	addi	s1,a3,13
int load_key(bignum_t *d,bignum_t *n, bignum_t *rr, uint8_t *cert)
 100015e:	8aae                	mv	s5,a1
 1000160:	03071913          	slli	s2,a4,0x30
 1000164:	8a32                	mv	s4,a2
 1000166:	03079413          	slli	s0,a5,0x30
        rr_len = EXTRACT_LEN((temp+4));
 100016a:	03081993          	slli	s3,a6,0x30
int load_key(bignum_t *d,bignum_t *n, bignum_t *rr, uint8_t *cert)
 100016e:	8b2a                	mv	s6,a0
        BN_init(d);
 1000170:	3a7010ef          	jal	ra,1001d16 <BN_init>
        BN_init(n);
 1000174:	8556                	mv	a0,s5
 1000176:	3a1010ef          	jal	ra,1001d16 <BN_init>
        BN_init(rr);
 100017a:	8552                	mv	a0,s4
 100017c:	39b010ef          	jal	ra,1001d16 <BN_init>
 1000180:	03095913          	srli	s2,s2,0x30
        BN_bin2bn(n,temp,0,mod_len);
 1000184:	86ca                	mv	a3,s2
 1000186:	85a6                	mv	a1,s1
 1000188:	8556                	mv	a0,s5
 100018a:	4601                	li	a2,0
 100018c:	397010ef          	jal	ra,1001d22 <BN_bin2bn>
 1000190:	9041                	srli	s0,s0,0x30
        BN_bin2bn(d,temp+mod_len,0,exp_len);
 1000192:	012485b3          	add	a1,s1,s2
 1000196:	86a2                	mv	a3,s0
 1000198:	855a                	mv	a0,s6
 100019a:	4601                	li	a2,0
 100019c:	387010ef          	jal	ra,1001d22 <BN_bin2bn>
        BN_bin2bn(rr,temp+mod_len+exp_len,0,rr_len);
 10001a0:	012405b3          	add	a1,s0,s2
        rr_len = EXTRACT_LEN((temp+4));
 10001a4:	0309d993          	srli	s3,s3,0x30
        BN_bin2bn(rr,temp+mod_len+exp_len,0,rr_len);
 10001a8:	8552                	mv	a0,s4
 10001aa:	86ce                	mv	a3,s3
 10001ac:	95a6                	add	a1,a1,s1
 10001ae:	4601                	li	a2,0
 10001b0:	373010ef          	jal	ra,1001d22 <BN_bin2bn>
    }
    else
    {
        return 0;
    }
}
 10001b4:	70e2                	ld	ra,56(sp)
 10001b6:	7442                	ld	s0,48(sp)
 10001b8:	74a2                	ld	s1,40(sp)
 10001ba:	7902                	ld	s2,32(sp)
 10001bc:	69e2                	ld	s3,24(sp)
 10001be:	6a42                	ld	s4,16(sp)
 10001c0:	6aa2                	ld	s5,8(sp)
 10001c2:	6b02                	ld	s6,0(sp)
 10001c4:	4505                	li	a0,1
 10001c6:	6121                	addi	sp,sp,64
 10001c8:	8082                	ret

00000000010001ca <compute_hash>:
#include "util.h"

void compute_hash(void* source, void* dest, uint64_t size, int debug_flag){
 10001ca:	711d                	addi	sp,sp,-96
  uint64_t *ptr = source;
  uint64_t *ptr2 = (long unsigned int)ptr & ~(long unsigned int)0x7;
  int diff = ((char*)ptr - (char*)ptr2)<<3;
  //void *ptr_out = dest;
  volatile uint64_t* ptr_out = dest;
  uint64_t tot_size = size + 1 + 64;
 10001cc:	04160693          	addi	a3,a2,65
void compute_hash(void* source, void* dest, uint64_t size, int debug_flag){
 10001d0:	eca2                	sd	s0,88(sp)
 10001d2:	e8a6                	sd	s1,80(sp)
 10001d4:	e4ca                	sd	s2,72(sp)
 10001d6:	e0ce                	sd	s3,64(sp)
 10001d8:	fc52                	sd	s4,56(sp)
  int diff = ((char*)ptr - (char*)ptr2)<<3;
 10001da:	00757313          	andi	t1,a0,7
  volatile uint64_t* sha_plaintext=(uint64_t*) 0x00021200;
  volatile uint64_t* sha_output=(uint64_t*) 0x00021280;
  volatile uint8_t* sha_config=(uint8_t*) 0x000212c0;
  volatile uint8_t* sha_status=(uint8_t*) 0x000212c1;
  
  *sha_config = 0;
 10001de:	000217b7          	lui	a5,0x21
void compute_hash(void* source, void* dest, uint64_t size, int debug_flag){
 10001e2:	f856                	sd	s5,48(sp)
 10001e4:	f45a                	sd	s6,40(sp)
 10001e6:	f05e                	sd	s7,32(sp)
 10001e8:	ec62                	sd	s8,24(sp)
  uint64_t padtotsize = ((tot_size>>9)+1);
 10001ea:	82a5                	srli	a3,a3,0x9
  *sha_config = 0;
 10001ec:	4705                	li	a4,1
      uint64_t temp = *(ptr2+i+1);
      uint64_t temp2 = ((*((uint64_t*)(ptr2+i)))>>diff)|(temp<<(64-diff));
      if(diff==0)
        temp2 = temp1;
      //uint64_t data = *((uint64_t*)(ptr2+i));
      uint64_t data = (((temp2)<<56)&(0xff00000000000000))|(((temp2)<<40)&(0x00ff000000000000))|(((temp2)<<24)&(0x0000ff0000000000))|(((temp2)<<8)&(0x000000ff00000000))|(((temp2)>>8)&(0x00000000ff000000))|(((temp2)>>24)&(0x0000000000ff0000))|(((temp2)>>40)&(0x000000000000ff00))|(((temp2)>>56)&(0x00000000000000ff));
 10001ee:	0ff00813          	li	a6,255
  int diff = ((char*)ptr - (char*)ptr2)<<3;
 10001f2:	030e                	slli	t1,t1,0x3
  uint64_t padtotsize = ((tot_size>>9)+1);
 10001f4:	0685                	addi	a3,a3,1
  *sha_config = 0;
 10001f6:	2c078023          	sb	zero,704(a5) # 212c0 <_tbss_end+0x212c0>
      uint64_t data = (((temp2)<<56)&(0xff00000000000000))|(((temp2)<<40)&(0x00ff000000000000))|(((temp2)<<24)&(0x0000ff0000000000))|(((temp2)<<8)&(0x000000ff00000000))|(((temp2)>>8)&(0x00000000ff000000))|(((temp2)>>24)&(0x0000000000ff0000))|(((temp2)>>40)&(0x000000000000ff00))|(((temp2)>>56)&(0x00000000000000ff));
 10001fa:	6e41                	lui	t3,0x10
      uint64_t temp2 = ((*((uint64_t*)(ptr2+i)))>>diff)|(temp<<(64-diff));
 10001fc:	04000413          	li	s0,64
 1000200:	00671793          	slli	a5,a4,0x6
      uint64_t data = (((temp2)<<56)&(0xff00000000000000))|(((temp2)<<40)&(0x00ff000000000000))|(((temp2)<<24)&(0x0000ff0000000000))|(((temp2)<<8)&(0x000000ff00000000))|(((temp2)>>8)&(0x00000000ff000000))|(((temp2)>>24)&(0x0000000000ff0000))|(((temp2)>>40)&(0x000000000000ff00))|(((temp2)>>56)&(0x00000000000000ff));
 1000204:	03081393          	slli	t2,a6,0x30
 1000208:	02881293          	slli	t0,a6,0x28
 100020c:	02081f93          	slli	t6,a6,0x20
  uint64_t *ptr2 = (long unsigned int)ptr & ~(long unsigned int)0x7;
 1000210:	9961                	andi	a0,a0,-8
  uint64_t num64size = ((padtotsize<<3));
 1000212:	068e                	slli	a3,a3,0x3
    else if(64*(i+1)<=size+64){
 1000214:	04060913          	addi	s2,a2,64
      *sha_plaintext = size;
      //printf("ELIF2 %lx\n", size);
    }
    else {
      //printf("ELSE\n");
      *sha_plaintext = 0;
 1000218:	000218b7          	lui	a7,0x21
      data = ((data)|(one<<(64-(size+64-64*(i+1)+1))))&(max-((one<<(64-(64+size-64*(i+1)+1)))-1));
 100021c:	fff64a13          	not	s4,a2
 1000220:	4985                	li	s3,1
      uint64_t data = (((temp2)<<56)&(0xff00000000000000))|(((temp2)<<40)&(0x00ff000000000000))|(((temp2)<<24)&(0x0000ff0000000000))|(((temp2)<<8)&(0x000000ff00000000))|(((temp2)>>8)&(0x00000000ff000000))|(((temp2)>>24)&(0x0000000000ff0000))|(((temp2)>>40)&(0x000000000000ff00))|(((temp2)>>56)&(0x00000000000000ff));
 1000222:	0862                	slli	a6,a6,0x18
 1000224:	00ff0f37          	lui	t5,0xff0
 1000228:	f00e0e13          	addi	t3,t3,-256 # ff00 <_tbss_end+0xff00>
      uint64_t temp2 = ((*((uint64_t*)(ptr2+i)))>>diff)|(temp<<(64-diff));
 100022c:	4064043b          	subw	s0,s0,t1
      if((diff!=0) && (diff!=64))
 1000230:	849a                	mv	s1,t1
    if(i==8){
 1000232:	4ea1                	li	t4,8
    if(64*(i+1)<=size){
 1000234:	08f66663          	bltu	a2,a5,10002c0 <compute_hash+0xf6>
      uint64_t temp1 = *(ptr2+i);
 1000238:	00053a83          	ld	s5,0(a0)
      if((diff!=0) && (diff!=64))
 100023c:	2c048363          	beqz	s1,1000502 <compute_hash+0x338>
      uint64_t temp2 = ((*((uint64_t*)(ptr2+i)))>>diff)|(temp<<(64-diff));
 1000240:	00853b03          	ld	s6,8(a0)
 1000244:	006ad7b3          	srl	a5,s5,t1
 1000248:	008b1ab3          	sll	s5,s6,s0
 100024c:	00faeab3          	or	s5,s5,a5
        *sha_plaintext = (((temp2)<<56)&(0xff00000000000000))|(((temp2)<<40)&(0x00ff000000000000))|(((temp2)<<24)&(0x0000ff0000000000))|(((temp2)<<8)&(0x000000ff00000000))|(((temp2)>>8)&(0x00000000ff000000))|(((temp2)>>24)&(0x0000000000ff0000))|(((temp2)>>40)&(0x000000000000ff00))|(((temp2)>>56)&(0x00000000000000ff));
 1000250:	038adb93          	srli	s7,s5,0x38
 1000254:	038a9793          	slli	a5,s5,0x38
 1000258:	028a9b13          	slli	s6,s5,0x28
 100025c:	0177e7b3          	or	a5,a5,s7
 1000260:	007b7b33          	and	s6,s6,t2
 1000264:	018a9b93          	slli	s7,s5,0x18
 1000268:	0167e7b3          	or	a5,a5,s6
 100026c:	005bfbb3          	and	s7,s7,t0
 1000270:	008a9b13          	slli	s6,s5,0x8
 1000274:	0177e7b3          	or	a5,a5,s7
 1000278:	01fb7b33          	and	s6,s6,t6
 100027c:	008adb93          	srli	s7,s5,0x8
 1000280:	0167e7b3          	or	a5,a5,s6
 1000284:	010bfbb3          	and	s7,s7,a6
 1000288:	018adb13          	srli	s6,s5,0x18
 100028c:	0177e7b3          	or	a5,a5,s7
 1000290:	01eb7b33          	and	s6,s6,t5
 1000294:	028ada93          	srli	s5,s5,0x28
 1000298:	0167e7b3          	or	a5,a5,s6
 100029c:	01cafab3          	and	s5,s5,t3
 10002a0:	0157eab3          	or	s5,a5,s5
 10002a4:	2158b023          	sd	s5,512(a7) # 21200 <_tbss_end+0x21200>
  for(int i=0; i<num64size; i++){
 10002a8:	0ae68363          	beq	a3,a4,100034e <compute_hash+0x184>
    if(i==8){
 10002ac:	0007079b          	sext.w	a5,a4
 10002b0:	2bd78b63          	beq	a5,t4,1000566 <compute_hash+0x39c>
 10002b4:	0705                	addi	a4,a4,1
 10002b6:	00671793          	slli	a5,a4,0x6
 10002ba:	0521                	addi	a0,a0,8
    if(64*(i+1)<=size){
 10002bc:	f6f67ee3          	bgeu	a2,a5,1000238 <compute_hash+0x6e>
    else if(64*(i+1)<=size+64){
 10002c0:	28f96e63          	bltu	s2,a5,100055c <compute_hash+0x392>
      uint64_t temp1 = *(ptr2+i);
 10002c4:	00053b03          	ld	s6,0(a0)
      uint64_t temp = *(ptr2+i+1);
 10002c8:	651c                	ld	a5,8(a0)
      if(diff==0)
 10002ca:	00030863          	beqz	t1,10002da <compute_hash+0x110>
      uint64_t temp2 = ((*((uint64_t*)(ptr2+i)))>>diff)|(temp<<(64-diff));
 10002ce:	008797b3          	sll	a5,a5,s0
 10002d2:	006b5b33          	srl	s6,s6,t1
 10002d6:	0167eb33          	or	s6,a5,s6
      data = ((data)|(one<<(64-(size+64-64*(i+1)+1))))&(max-((one<<(64-(64+size-64*(i+1)+1)))-1));
 10002da:	00671a9b          	slliw	s5,a4,0x6
      uint64_t data = (((temp2)<<56)&(0xff00000000000000))|(((temp2)<<40)&(0x00ff000000000000))|(((temp2)<<24)&(0x0000ff0000000000))|(((temp2)<<8)&(0x000000ff00000000))|(((temp2)>>8)&(0x00000000ff000000))|(((temp2)>>24)&(0x0000000000ff0000))|(((temp2)>>40)&(0x000000000000ff00))|(((temp2)>>56)&(0x00000000000000ff));
 10002de:	038b5b93          	srli	s7,s6,0x38
 10002e2:	038b1793          	slli	a5,s6,0x38
      data = ((data)|(one<<(64-(size+64-64*(i+1)+1))))&(max-((one<<(64-(64+size-64*(i+1)+1)))-1));
 10002e6:	014a8abb          	addw	s5,s5,s4
 10002ea:	01599ab3          	sll	s5,s3,s5
 10002ee:	0177e7b3          	or	a5,a5,s7
      uint64_t data = (((temp2)<<56)&(0xff00000000000000))|(((temp2)<<40)&(0x00ff000000000000))|(((temp2)<<24)&(0x0000ff0000000000))|(((temp2)<<8)&(0x000000ff00000000))|(((temp2)>>8)&(0x00000000ff000000))|(((temp2)>>24)&(0x0000000000ff0000))|(((temp2)>>40)&(0x000000000000ff00))|(((temp2)>>56)&(0x00000000000000ff));
 10002f2:	028b1b93          	slli	s7,s6,0x28
      data = ((data)|(one<<(64-(size+64-64*(i+1)+1))))&(max-((one<<(64-(64+size-64*(i+1)+1)))-1));
 10002f6:	0157e7b3          	or	a5,a5,s5
      uint64_t data = (((temp2)<<56)&(0xff00000000000000))|(((temp2)<<40)&(0x00ff000000000000))|(((temp2)<<24)&(0x0000ff0000000000))|(((temp2)<<8)&(0x000000ff00000000))|(((temp2)>>8)&(0x00000000ff000000))|(((temp2)>>24)&(0x0000000000ff0000))|(((temp2)>>40)&(0x000000000000ff00))|(((temp2)>>56)&(0x00000000000000ff));
 10002fa:	007bfbb3          	and	s7,s7,t2
 10002fe:	018b1c13          	slli	s8,s6,0x18
      data = ((data)|(one<<(64-(size+64-64*(i+1)+1))))&(max-((one<<(64-(64+size-64*(i+1)+1)))-1));
 1000302:	0177e7b3          	or	a5,a5,s7
      uint64_t data = (((temp2)<<56)&(0xff00000000000000))|(((temp2)<<40)&(0x00ff000000000000))|(((temp2)<<24)&(0x0000ff0000000000))|(((temp2)<<8)&(0x000000ff00000000))|(((temp2)>>8)&(0x00000000ff000000))|(((temp2)>>24)&(0x0000000000ff0000))|(((temp2)>>40)&(0x000000000000ff00))|(((temp2)>>56)&(0x00000000000000ff));
 1000306:	005c7c33          	and	s8,s8,t0
 100030a:	008b1b93          	slli	s7,s6,0x8
      data = ((data)|(one<<(64-(size+64-64*(i+1)+1))))&(max-((one<<(64-(64+size-64*(i+1)+1)))-1));
 100030e:	0187e7b3          	or	a5,a5,s8
      uint64_t data = (((temp2)<<56)&(0xff00000000000000))|(((temp2)<<40)&(0x00ff000000000000))|(((temp2)<<24)&(0x0000ff0000000000))|(((temp2)<<8)&(0x000000ff00000000))|(((temp2)>>8)&(0x00000000ff000000))|(((temp2)>>24)&(0x0000000000ff0000))|(((temp2)>>40)&(0x000000000000ff00))|(((temp2)>>56)&(0x00000000000000ff));
 1000312:	01fbfbb3          	and	s7,s7,t6
 1000316:	008b5c13          	srli	s8,s6,0x8
      data = ((data)|(one<<(64-(size+64-64*(i+1)+1))))&(max-((one<<(64-(64+size-64*(i+1)+1)))-1));
 100031a:	0177e7b3          	or	a5,a5,s7
      uint64_t data = (((temp2)<<56)&(0xff00000000000000))|(((temp2)<<40)&(0x00ff000000000000))|(((temp2)<<24)&(0x0000ff0000000000))|(((temp2)<<8)&(0x000000ff00000000))|(((temp2)>>8)&(0x00000000ff000000))|(((temp2)>>24)&(0x0000000000ff0000))|(((temp2)>>40)&(0x000000000000ff00))|(((temp2)>>56)&(0x00000000000000ff));
 100031e:	010c7c33          	and	s8,s8,a6
 1000322:	018b5b93          	srli	s7,s6,0x18
      data = ((data)|(one<<(64-(size+64-64*(i+1)+1))))&(max-((one<<(64-(64+size-64*(i+1)+1)))-1));
 1000326:	0187e7b3          	or	a5,a5,s8
      uint64_t data = (((temp2)<<56)&(0xff00000000000000))|(((temp2)<<40)&(0x00ff000000000000))|(((temp2)<<24)&(0x0000ff0000000000))|(((temp2)<<8)&(0x000000ff00000000))|(((temp2)>>8)&(0x00000000ff000000))|(((temp2)>>24)&(0x0000000000ff0000))|(((temp2)>>40)&(0x000000000000ff00))|(((temp2)>>56)&(0x00000000000000ff));
 100032a:	01ebfbb3          	and	s7,s7,t5
 100032e:	028b5b13          	srli	s6,s6,0x28
      data = ((data)|(one<<(64-(size+64-64*(i+1)+1))))&(max-((one<<(64-(64+size-64*(i+1)+1)))-1));
 1000332:	0177e7b3          	or	a5,a5,s7
      uint64_t data = (((temp2)<<56)&(0xff00000000000000))|(((temp2)<<40)&(0x00ff000000000000))|(((temp2)<<24)&(0x0000ff0000000000))|(((temp2)<<8)&(0x000000ff00000000))|(((temp2)>>8)&(0x00000000ff000000))|(((temp2)>>24)&(0x0000000000ff0000))|(((temp2)>>40)&(0x000000000000ff00))|(((temp2)>>56)&(0x00000000000000ff));
 1000336:	01cb7b33          	and	s6,s6,t3
      data = ((data)|(one<<(64-(size+64-64*(i+1)+1))))&(max-((one<<(64-(64+size-64*(i+1)+1)))-1));
 100033a:	0167e7b3          	or	a5,a5,s6
 100033e:	41500ab3          	neg	s5,s5
 1000342:	0157f7b3          	and	a5,a5,s5
      *sha_plaintext = data;
 1000346:	20f8b023          	sd	a5,512(a7)
  for(int i=0; i<num64size; i++){
 100034a:	f6e691e3          	bne	a3,a4,10002ac <compute_hash+0xe2>
  //for(int i=0; i<4; i++){
  //  *(ptr_out+i) = *sha_output;
    //ptr_out++;
  //  printf("%d, %lx\n", i, *sha_output);
  //}
  *sha_config = 0;
 100034e:	000217b7          	lui	a5,0x21
 1000352:	2c078023          	sb	zero,704(a5) # 212c0 <_tbss_end+0x212c0>
  while(*sha_status == 0);
 1000356:	00021e37          	lui	t3,0x21
 100035a:	2c1e4783          	lbu	a5,705(t3) # 212c1 <_tbss_end+0x212c1>
 100035e:	0ff7f793          	andi	a5,a5,255
 1000362:	dfe5                	beqz	a5,100035a <compute_hash+0x190>
  //*(ptr_out+3) = *sha_output;
  //*(ptr_out+2) = *sha_output;
  //*(ptr_out+1) = *sha_output;
  //*(ptr_out+0) = *sha_output;
  volatile uint64_t temp0 = *sha_output;
 1000364:	280e3703          	ld	a4,640(t3)
  *(ptr_out+3) = ((temp0>>56)&(0x00000000000000ff))|((temp0>>40)&(0x000000000000ff00))|((temp0>>24)&(0x0000000000ff0000))|((temp0>>8)&(0x00000000ff000000))|((temp0<<8)&(0x000000ff00000000))|((temp0<<24)&(0x0000ff0000000000))|((temp0<<40)&(0x00ff000000000000))|((temp0<<56)&(0xff00000000000000));
 1000368:	6341                	lui	t1,0x10
 100036a:	f0030313          	addi	t1,t1,-256 # ff00 <_tbss_end+0xff00>
  volatile uint64_t temp0 = *sha_output;
 100036e:	e43a                	sd	a4,8(sp)
  *(ptr_out+3) = ((temp0>>56)&(0x00000000000000ff))|((temp0>>40)&(0x000000000000ff00))|((temp0>>24)&(0x0000000000ff0000))|((temp0>>8)&(0x00000000ff000000))|((temp0<<8)&(0x000000ff00000000))|((temp0<<24)&(0x0000ff0000000000))|((temp0<<40)&(0x00ff000000000000))|((temp0<<56)&(0xff00000000000000));
 1000370:	67a2                	ld	a5,8(sp)
 1000372:	6522                	ld	a0,8(sp)
 1000374:	6622                	ld	a2,8(sp)
 1000376:	6fa2                	ld	t6,8(sp)
 1000378:	6f22                	ld	t5,8(sp)
 100037a:	6ea2                	ld	t4,8(sp)
 100037c:	6722                	ld	a4,8(sp)
 100037e:	6822                	ld	a6,8(sp)
 1000380:	93e1                	srli	a5,a5,0x38
 1000382:	9121                	srli	a0,a0,0x28
 1000384:	1862                	slli	a6,a6,0x38
 1000386:	00ff08b7          	lui	a7,0xff0
 100038a:	0ff00693          	li	a3,255
 100038e:	00657533          	and	a0,a0,t1
 1000392:	0107e7b3          	or	a5,a5,a6
 1000396:	8261                	srli	a2,a2,0x18
 1000398:	01869813          	slli	a6,a3,0x18
 100039c:	01167633          	and	a2,a2,a7
 10003a0:	8fc9                	or	a5,a5,a0
 10003a2:	008fdf93          	srli	t6,t6,0x8
 10003a6:	02069513          	slli	a0,a3,0x20
 10003aa:	010fffb3          	and	t6,t6,a6
 10003ae:	8fd1                	or	a5,a5,a2
 10003b0:	0f22                	slli	t5,t5,0x8
 10003b2:	02869613          	slli	a2,a3,0x28
 10003b6:	00af7f33          	and	t5,t5,a0
 10003ba:	01f7e7b3          	or	a5,a5,t6
 10003be:	0ee2                	slli	t4,t4,0x18
 10003c0:	16c2                	slli	a3,a3,0x30
 10003c2:	00cefeb3          	and	t4,t4,a2
 10003c6:	01e7e7b3          	or	a5,a5,t5
 10003ca:	1722                	slli	a4,a4,0x28
 10003cc:	8f75                	and	a4,a4,a3
 10003ce:	01d7e7b3          	or	a5,a5,t4
 10003d2:	8fd9                	or	a5,a5,a4
 10003d4:	ed9c                	sd	a5,24(a1)
  temp0 = *sha_output;
 10003d6:	280e3783          	ld	a5,640(t3)
 10003da:	e43e                	sd	a5,8(sp)
  *(ptr_out+2) = ((temp0>>56)&(0x00000000000000ff))|((temp0>>40)&(0x000000000000ff00))|((temp0>>24)&(0x0000000000ff0000))|((temp0>>8)&(0x00000000ff000000))|((temp0<<8)&(0x000000ff00000000))|((temp0<<24)&(0x0000ff0000000000))|((temp0<<40)&(0x00ff000000000000))|((temp0<<56)&(0xff00000000000000));
 10003dc:	6722                	ld	a4,8(sp)
 10003de:	63a2                	ld	t2,8(sp)
 10003e0:	62a2                	ld	t0,8(sp)
 10003e2:	6fa2                	ld	t6,8(sp)
 10003e4:	6f22                	ld	t5,8(sp)
 10003e6:	6ea2                	ld	t4,8(sp)
 10003e8:	67a2                	ld	a5,8(sp)
 10003ea:	6422                	ld	s0,8(sp)
 10003ec:	9361                	srli	a4,a4,0x38
 10003ee:	0283d393          	srli	t2,t2,0x28
 10003f2:	1462                	slli	s0,s0,0x38
 10003f4:	0063f3b3          	and	t2,t2,t1
 10003f8:	8f41                	or	a4,a4,s0
 10003fa:	0182d293          	srli	t0,t0,0x18
 10003fe:	0112f2b3          	and	t0,t0,a7
 1000402:	00776733          	or	a4,a4,t2
 1000406:	008fdf93          	srli	t6,t6,0x8
 100040a:	010fffb3          	and	t6,t6,a6
 100040e:	00576733          	or	a4,a4,t0
 1000412:	0f22                	slli	t5,t5,0x8
 1000414:	00af7f33          	and	t5,t5,a0
 1000418:	01f76733          	or	a4,a4,t6
 100041c:	0ee2                	slli	t4,t4,0x18
 100041e:	00cefeb3          	and	t4,t4,a2
 1000422:	01e76733          	or	a4,a4,t5
 1000426:	17a2                	slli	a5,a5,0x28
 1000428:	8ff5                	and	a5,a5,a3
 100042a:	01d76733          	or	a4,a4,t4
 100042e:	8f5d                	or	a4,a4,a5
 1000430:	e998                	sd	a4,16(a1)
  temp0 = *sha_output;
 1000432:	280e3783          	ld	a5,640(t3)
 1000436:	e43e                	sd	a5,8(sp)
  *(ptr_out+1) = ((temp0>>56)&(0x00000000000000ff))|((temp0>>40)&(0x000000000000ff00))|((temp0>>24)&(0x0000000000ff0000))|((temp0>>8)&(0x00000000ff000000))|((temp0<<8)&(0x000000ff00000000))|((temp0<<24)&(0x0000ff0000000000))|((temp0<<40)&(0x00ff000000000000))|((temp0<<56)&(0xff00000000000000));
 1000438:	6722                	ld	a4,8(sp)
 100043a:	63a2                	ld	t2,8(sp)
 100043c:	62a2                	ld	t0,8(sp)
 100043e:	6fa2                	ld	t6,8(sp)
 1000440:	6f22                	ld	t5,8(sp)
 1000442:	6ea2                	ld	t4,8(sp)
 1000444:	67a2                	ld	a5,8(sp)
 1000446:	6422                	ld	s0,8(sp)
 1000448:	9361                	srli	a4,a4,0x38
 100044a:	0283d393          	srli	t2,t2,0x28
 100044e:	1462                	slli	s0,s0,0x38
 1000450:	0063f3b3          	and	t2,t2,t1
 1000454:	8f41                	or	a4,a4,s0
 1000456:	0182d293          	srli	t0,t0,0x18
 100045a:	0112f2b3          	and	t0,t0,a7
 100045e:	00776733          	or	a4,a4,t2
 1000462:	008fdf93          	srli	t6,t6,0x8
 1000466:	010fffb3          	and	t6,t6,a6
 100046a:	00576733          	or	a4,a4,t0
 100046e:	0f22                	slli	t5,t5,0x8
 1000470:	00af7f33          	and	t5,t5,a0
 1000474:	01f76733          	or	a4,a4,t6
 1000478:	0ee2                	slli	t4,t4,0x18
 100047a:	00cefeb3          	and	t4,t4,a2
 100047e:	01e76733          	or	a4,a4,t5
 1000482:	17a2                	slli	a5,a5,0x28
 1000484:	8ff5                	and	a5,a5,a3
 1000486:	01d76733          	or	a4,a4,t4
 100048a:	8f5d                	or	a4,a4,a5
 100048c:	e598                	sd	a4,8(a1)
  temp0 = *sha_output;
 100048e:	280e3783          	ld	a5,640(t3)
  *(ptr_out+0) = ((temp0>>56)&(0x00000000000000ff))|((temp0>>40)&(0x000000000000ff00))|((temp0>>24)&(0x0000000000ff0000))|((temp0>>8)&(0x00000000ff000000))|((temp0<<8)&(0x000000ff00000000))|((temp0<<24)&(0x0000ff0000000000))|((temp0<<40)&(0x00ff000000000000))|((temp0<<56)&(0xff00000000000000));
  //printf("DONE sending PP\n");
}
 1000492:	6466                	ld	s0,88(sp)
 1000494:	64c6                	ld	s1,80(sp)
  temp0 = *sha_output;
 1000496:	e43e                	sd	a5,8(sp)
  *(ptr_out+0) = ((temp0>>56)&(0x00000000000000ff))|((temp0>>40)&(0x000000000000ff00))|((temp0>>24)&(0x0000000000ff0000))|((temp0>>8)&(0x00000000ff000000))|((temp0<<8)&(0x000000ff00000000))|((temp0<<24)&(0x0000ff0000000000))|((temp0<<40)&(0x00ff000000000000))|((temp0<<56)&(0xff00000000000000));
 1000498:	67a2                	ld	a5,8(sp)
 100049a:	62a2                	ld	t0,8(sp)
 100049c:	6fa2                	ld	t6,8(sp)
 100049e:	6f22                	ld	t5,8(sp)
 10004a0:	6ea2                	ld	t4,8(sp)
 10004a2:	6e22                	ld	t3,8(sp)
 10004a4:	6722                	ld	a4,8(sp)
 10004a6:	63a2                	ld	t2,8(sp)
 10004a8:	93e1                	srli	a5,a5,0x38
 10004aa:	0282d293          	srli	t0,t0,0x28
 10004ae:	13e2                	slli	t2,t2,0x38
 10004b0:	0062f333          	and	t1,t0,t1
 10004b4:	0077e7b3          	or	a5,a5,t2
 10004b8:	018fdf93          	srli	t6,t6,0x18
 10004bc:	0067e7b3          	or	a5,a5,t1
 10004c0:	011ff8b3          	and	a7,t6,a7
 10004c4:	008f5313          	srli	t1,t5,0x8
 10004c8:	0117e7b3          	or	a5,a5,a7
 10004cc:	01037833          	and	a6,t1,a6
 10004d0:	008e9893          	slli	a7,t4,0x8
 10004d4:	0107e7b3          	or	a5,a5,a6
 10004d8:	00a8f533          	and	a0,a7,a0
 10004dc:	018e1813          	slli	a6,t3,0x18
 10004e0:	8fc9                	or	a5,a5,a0
 10004e2:	00c87633          	and	a2,a6,a2
 10004e6:	1722                	slli	a4,a4,0x28
 10004e8:	8fd1                	or	a5,a5,a2
 10004ea:	8ef9                	and	a3,a3,a4
 10004ec:	8fd5                	or	a5,a5,a3
 10004ee:	e19c                	sd	a5,0(a1)
}
 10004f0:	6926                	ld	s2,72(sp)
 10004f2:	6986                	ld	s3,64(sp)
 10004f4:	7a62                	ld	s4,56(sp)
 10004f6:	7ac2                	ld	s5,48(sp)
 10004f8:	7b22                	ld	s6,40(sp)
 10004fa:	7b82                	ld	s7,32(sp)
 10004fc:	6c62                	ld	s8,24(sp)
 10004fe:	6125                	addi	sp,sp,96
 1000500:	8082                	ret
        *sha_plaintext = (((temp1)<<56)&(0xff00000000000000))|(((temp1)<<40)&(0x00ff000000000000))|(((temp1)<<24)&(0x0000ff0000000000))|(((temp1)<<8)&(0x000000ff00000000))|(((temp1)>>8)&(0x00000000ff000000))|(((temp1)>>24)&(0x0000000000ff0000))|(((temp1)>>40)&(0x000000000000ff00))|(((temp1)>>56)&(0x00000000000000ff));
 1000502:	038adb93          	srli	s7,s5,0x38
 1000506:	038a9793          	slli	a5,s5,0x38
 100050a:	028a9b13          	slli	s6,s5,0x28
 100050e:	0177e7b3          	or	a5,a5,s7
 1000512:	007b7b33          	and	s6,s6,t2
 1000516:	018a9b93          	slli	s7,s5,0x18
 100051a:	0167e7b3          	or	a5,a5,s6
 100051e:	005bfbb3          	and	s7,s7,t0
 1000522:	008a9b13          	slli	s6,s5,0x8
 1000526:	0177e7b3          	or	a5,a5,s7
 100052a:	01fb7b33          	and	s6,s6,t6
 100052e:	008adb93          	srli	s7,s5,0x8
 1000532:	0167e7b3          	or	a5,a5,s6
 1000536:	010bfbb3          	and	s7,s7,a6
 100053a:	018adb13          	srli	s6,s5,0x18
 100053e:	0177e7b3          	or	a5,a5,s7
 1000542:	01eb7b33          	and	s6,s6,t5
 1000546:	028ada93          	srli	s5,s5,0x28
 100054a:	0167e7b3          	or	a5,a5,s6
 100054e:	01cafab3          	and	s5,s5,t3
 1000552:	0157e7b3          	or	a5,a5,s5
 1000556:	20f8b023          	sd	a5,512(a7) # ff0200 <_tbss_end+0xff0200>
 100055a:	b3b9                	j	10002a8 <compute_hash+0xde>
    else if(i==(num64size-1)){
 100055c:	00e68863          	beq	a3,a4,100056c <compute_hash+0x3a2>
      *sha_plaintext = 0;
 1000560:	2008b023          	sd	zero,512(a7)
 1000564:	b391                	j	10002a8 <compute_hash+0xde>
      *sha_config = 1;
 1000566:	2d388023          	sb	s3,704(a7)
 100056a:	b3a9                	j	10002b4 <compute_hash+0xea>
      *sha_plaintext = size;
 100056c:	20c8b023          	sd	a2,512(a7)
 1000570:	bb25                	j	10002a8 <compute_hash+0xde>

0000000001000572 <pad_v1_5>:
#include "util.h"
//#include "sha_driver.h"
#define RSA_LEN 32

void pad_v1_5(void *source, void *dest, uint64_t size_p, int sign){
 1000572:	4781                	li	a5,0
 1000574:	04000713          	li	a4,64
  uint64_t one = 1;
  uint64_t zero = 0;

  int tot_size = RSA_LEN;

  for(int i=0; i<tot_size; i=i+1){
 1000578:	437d                	li	t1,31
        *(ptro+i) = (~zero)&((one<<(64-15))-one);
      else
        *(ptro+i) = (~zero)&(((one<<(64-16))-1)|(one<<(64-15)));
    }
    else if(((64*(i)>=size_p)&&(64*(i+1)>=(size_p))&&(i!=(tot_size-1)))){
      *(ptro+i) = (~zero);
 100057a:	5e7d                	li	t3,-1
      uint64_t mod = ((one<<(size_p-64*i))-1)&data;
 100057c:	00060f1b          	sext.w	t5,a2
      mod = ((~zero)<<(size_p+8-64*i))|mod;
 1000580:	00860e9b          	addiw	t4,a2,8
 1000584:	00860893          	addi	a7,a2,8
    if((64*(i+1)<=size_p)&&(64*(i)<size_p)){
 1000588:	00679813          	slli	a6,a5,0x6
 100058c:	02e66863          	bltu	a2,a4,10005bc <pad_v1_5+0x4a>
 1000590:	06c87863          	bgeu	a6,a2,1000600 <pad_v1_5+0x8e>
      *(ptro+i) = *(ptrp+i);
 1000594:	00379813          	slli	a6,a5,0x3
 1000598:	01050fb3          	add	t6,a0,a6
 100059c:	000fbf83          	ld	t6,0(t6)
 10005a0:	982e                	add	a6,a6,a1
 10005a2:	01f83023          	sd	t6,0(a6)
  for(int i=0; i<tot_size; i=i+1){
 10005a6:	0007881b          	sext.w	a6,a5
 10005aa:	12680b63          	beq	a6,t1,10006e0 <pad_v1_5+0x16e>
 10005ae:	0785                	addi	a5,a5,1
 10005b0:	04070713          	addi	a4,a4,64
    if((64*(i+1)<=size_p)&&(64*(i)<size_p)){
 10005b4:	00679813          	slli	a6,a5,0x6
 10005b8:	fce67ce3          	bgeu	a2,a4,1000590 <pad_v1_5+0x1e>
    else if((64*(i+1)>=size_p)&&(64*(i+1)>(size_p+8))&&(64*i<size_p)&&(i!=(tot_size-1))){
 10005bc:	0ce8fa63          	bgeu	a7,a4,1000690 <pad_v1_5+0x11e>
 10005c0:	04c87263          	bgeu	a6,a2,1000604 <pad_v1_5+0x92>
 10005c4:	10678f63          	beq	a5,t1,10006e2 <pad_v1_5+0x170>
      uint64_t data = *(ptrp+i);
 10005c8:	00379293          	slli	t0,a5,0x3
 10005cc:	40f0083b          	negw	a6,a5
 10005d0:	00550fb3          	add	t6,a0,t0
 10005d4:	0068181b          	slliw	a6,a6,0x6
 10005d8:	000fb383          	ld	t2,0(t6)
      uint64_t mod = ((one<<(size_p-64*i))-1)&data;
 10005dc:	010f0fbb          	addw	t6,t5,a6
 10005e0:	01fe1fb3          	sll	t6,t3,t6
 10005e4:	ffffcf93          	not	t6,t6
      mod = ((~zero)<<(size_p+8-64*i))|mod;
 10005e8:	010e883b          	addw	a6,t4,a6
      uint64_t mod = ((one<<(size_p-64*i))-1)&data;
 10005ec:	007fffb3          	and	t6,t6,t2
      mod = ((~zero)<<(size_p+8-64*i))|mod;
 10005f0:	010e1833          	sll	a6,t3,a6
 10005f4:	01f86833          	or	a6,a6,t6
      *(ptro+i) = mod;
 10005f8:	92ae                	add	t0,t0,a1
 10005fa:	0102b023          	sd	a6,0(t0) # 2000 <_tbss_end+0x2000>
    else if((64*(i+1)>=size_p)&&(64*(i+1)>(size_p+8))&&(64*i<size_p)&&(i!=(tot_size-1))){
 10005fe:	bf45                	j	10005ae <pad_v1_5+0x3c>
 1000600:	fae60ee3          	beq	a2,a4,10005bc <pad_v1_5+0x4a>
    else if((64*(i)<(size_p+8))&&(64*(i)<size_p)&&(64*(i+1)>(size_p))&&(i!=(tot_size-1))){
 1000604:	07187463          	bgeu	a6,a7,100066c <pad_v1_5+0xfa>
 1000608:	02c86263          	bltu	a6,a2,100062c <pad_v1_5+0xba>
    else if((64*(i)<(size_p+8))&&(64*(i)>size_p)&&(64*(i+1)>(size_p))&&(i==(tot_size-1))){
 100060c:	07067963          	bgeu	a2,a6,100067e <pad_v1_5+0x10c>
 1000610:	04080813          	addi	a6,a6,64
 1000614:	03066c63          	bltu	a2,a6,100064c <pad_v1_5+0xda>
    else if(((64*(i)>=size_p)&&(64*(i+1)>=(size_p))&&(i!=(tot_size-1)))){
 1000618:	f8c767e3          	bltu	a4,a2,10005a6 <pad_v1_5+0x34>
 100061c:	06678563          	beq	a5,t1,1000686 <pad_v1_5+0x114>
      *(ptro+i) = (~zero);
 1000620:	00379813          	slli	a6,a5,0x3
 1000624:	982e                	add	a6,a6,a1
 1000626:	01c83023          	sd	t3,0(a6)
 100062a:	b751                	j	10005ae <pad_v1_5+0x3c>
    else if((64*(i)<(size_p+8))&&(64*(i)<size_p)&&(64*(i+1)>(size_p))&&(i!=(tot_size-1))){
 100062c:	fee670e3          	bgeu	a2,a4,100060c <pad_v1_5+0x9a>
 1000630:	0e678163          	beq	a5,t1,1000712 <pad_v1_5+0x1a0>
      *(ptro+i) = ((((~zero)<<((64*i)-size_p))));
 1000634:	0067981b          	slliw	a6,a5,0x6
 1000638:	00379f93          	slli	t6,a5,0x3
 100063c:	40c8083b          	subw	a6,a6,a2
 1000640:	9fae                	add	t6,t6,a1
 1000642:	010e1833          	sll	a6,t3,a6
 1000646:	010fb023          	sd	a6,0(t6)
 100064a:	b795                	j	10005ae <pad_v1_5+0x3c>
    else if((64*(i)<(size_p+8))&&(64*(i)>size_p)&&(64*(i+1)>(size_p))&&(i==(tot_size-1))){
 100064c:	fc679ae3          	bne	a5,t1,1000620 <pad_v1_5+0xae>
      if(sign==0)
 1000650:	7c000793          	li	a5,1984
 1000654:	40c7863b          	subw	a2,a5,a2
 1000658:	57fd                	li	a5,-1
 100065a:	00c79633          	sll	a2,a5,a2
 100065e:	e2fd                	bnez	a3,1000744 <pad_v1_5+0x1d2>
        *(ptro+i) = (((((~zero)<<(64*i-size_p)))))&((one<<(64-15))-1);
 1000660:	83bd                	srli	a5,a5,0xf
 1000662:	8e7d                	and	a2,a2,a5
 1000664:	fdf0                	sd	a2,248(a1)
  for(int i=0; i<tot_size; i=i+1){
 1000666:	8082                	ret
    else if((64*(i)<(size_p+8))&&(64*(i)<size_p)&&(64*(i+1)>(size_p))&&(i!=(tot_size-1))){
 1000668:	fb1862e3          	bltu	a6,a7,100060c <pad_v1_5+0x9a>
    else if((64*(i)<=(size_p+8))&&(64*(i)<=size_p)&&(64*(i+1)>=(size_p))&&(i!=(tot_size-1))){
 100066c:	01180763          	beq	a6,a7,100067a <pad_v1_5+0x108>
    else if(((64*(i)>=size_p)&&(64*(i+1)>=(size_p))&&(i!=(tot_size-1)))){
 1000670:	f2c86be3          	bltu	a6,a2,10005a6 <pad_v1_5+0x34>
 1000674:	f2c769e3          	bltu	a4,a2,10005a6 <pad_v1_5+0x34>
 1000678:	b755                	j	100061c <pad_v1_5+0xaa>
    else if((64*(i)<=(size_p+8))&&(64*(i)<=size_p)&&(64*(i+1)>=(size_p))&&(i!=(tot_size-1))){
 100067a:	f9066fe3          	bltu	a2,a6,1000618 <pad_v1_5+0xa6>
 100067e:	fec769e3          	bltu	a4,a2,1000670 <pad_v1_5+0xfe>
    else if(((64*(i)>=size_p)&&(64*(i+1)>=(size_p))&&(i!=(tot_size-1)))){
 1000682:	f8679fe3          	bne	a5,t1,1000620 <pad_v1_5+0xae>
    }
    else if(((64*(i)>=size_p)&&(64*(i+1)>=(size_p))&&(i==(tot_size-1)))){
      if(sign==0)
 1000686:	e2c9                	bnez	a3,1000708 <pad_v1_5+0x196>
        *(ptro+i) = (~zero)&((one<<(64-15))-one);
 1000688:	57fd                	li	a5,-1
 100068a:	83bd                	srli	a5,a5,0xf
 100068c:	fdfc                	sd	a5,248(a1)
  for(int i=0; i<tot_size; i=i+1){
 100068e:	8082                	ret
    else if((64*(i+1)>=size_p)&&(64*(i+1)<(size_p+8))&&(64*i<(size_p))&&(i!=(tot_size-1))){
 1000690:	f7177ae3          	bgeu	a4,a7,1000604 <pad_v1_5+0x92>
 1000694:	fcc87ae3          	bgeu	a6,a2,1000668 <pad_v1_5+0xf6>
 1000698:	02679063          	bne	a5,t1,10006b8 <pad_v1_5+0x146>
      uint64_t data = *(ptrp+i);
 100069c:	8406071b          	addiw	a4,a2,-1984
 10006a0:	7d7c                	ld	a5,248(a0)
      if(sign==0)
 10006a2:	567d                	li	a2,-1
 10006a4:	00e61733          	sll	a4,a2,a4
 10006a8:	fff74713          	not	a4,a4
 10006ac:	e6c1                	bnez	a3,1000734 <pad_v1_5+0x1c2>
        mod = (((one<<(size_p-64*i))-one)&data)&((one<<(64-15))-1);
 10006ae:	8ff9                	and	a5,a5,a4
 10006b0:	823d                	srli	a2,a2,0xf
 10006b2:	8ff1                	and	a5,a5,a2
      else
        *(ptro+i) = (~zero)&(((one<<(64-16))-1)|(one<<(64-15)));
 10006b4:	fdfc                	sd	a5,248(a1)
  for(int i=0; i<tot_size; i=i+1){
 10006b6:	8082                	ret
      uint64_t data = *(ptrp+i);
 10006b8:	00379f93          	slli	t6,a5,0x3
 10006bc:	01f502b3          	add	t0,a0,t6
      uint64_t mod = ((one<<(size_p-64*i))-one)&data;
 10006c0:	0067981b          	slliw	a6,a5,0x6
      uint64_t data = *(ptrp+i);
 10006c4:	0002b283          	ld	t0,0(t0)
      uint64_t mod = ((one<<(size_p-64*i))-one)&data;
 10006c8:	4106083b          	subw	a6,a2,a6
 10006cc:	010e1833          	sll	a6,t3,a6
 10006d0:	fff84813          	not	a6,a6
 10006d4:	00587833          	and	a6,a6,t0
      *(ptro+i) = mod;
 10006d8:	9fae                	add	t6,t6,a1
 10006da:	010fb023          	sd	a6,0(t6)
    else if((64*(i+1)>=size_p)&&(64*(i+1)<(size_p+8))&&(64*i<(size_p))&&(i!=(tot_size-1))){
 10006de:	bdc1                	j	10005ae <pad_v1_5+0x3c>
    }
  }
}
 10006e0:	8082                	ret
      uint64_t mod = ((one<<(size_p-64*i))-1)&data;
 10006e2:	577d                	li	a4,-1
 10006e4:	8406079b          	addiw	a5,a2,-1984
      uint64_t data = *(ptrp+i);
 10006e8:	7d68                	ld	a0,248(a0)
      uint64_t mod = ((one<<(size_p-64*i))-1)&data;
 10006ea:	00f717b3          	sll	a5,a4,a5
 10006ee:	fff7c793          	not	a5,a5
 10006f2:	8486061b          	addiw	a2,a2,-1976
 10006f6:	8fe9                	and	a5,a5,a0
 10006f8:	00c71633          	sll	a2,a4,a2
 10006fc:	8fd1                	or	a5,a5,a2
      if(sign==0)
 10006fe:	e68d                	bnez	a3,1000728 <pad_v1_5+0x1b6>
        mod = (((~zero)<<(size_p+8-64*i))|mod)&((one<<(64-15))-1);
 1000700:	833d                	srli	a4,a4,0xf
 1000702:	8ff9                	and	a5,a5,a4
        *(ptro+i) = (~zero)&(((one<<(64-16))-1)|(one<<(64-15)));
 1000704:	fdfc                	sd	a5,248(a1)
  for(int i=0; i<tot_size; i=i+1){
 1000706:	8082                	ret
        *(ptro+i) = (~zero)&(((one<<(64-16))-1)|(one<<(64-15)));
 1000708:	478d                	li	a5,3
 100070a:	17c2                	slli	a5,a5,0x30
 100070c:	17fd                	addi	a5,a5,-1
 100070e:	fdfc                	sd	a5,248(a1)
  for(int i=0; i<tot_size; i=i+1){
 1000710:	8082                	ret
    else if((64*(i)<(size_p+8))&&(64*(i)>size_p)&&(64*(i+1)>(size_p))&&(i==(tot_size-1))){
 1000712:	f7067ae3          	bgeu	a2,a6,1000686 <pad_v1_5+0x114>
      if(sign==0)
 1000716:	7c000793          	li	a5,1984
 100071a:	40c7863b          	subw	a2,a5,a2
 100071e:	57fd                	li	a5,-1
 1000720:	00c79633          	sll	a2,a5,a2
 1000724:	e285                	bnez	a3,1000744 <pad_v1_5+0x1d2>
 1000726:	bf2d                	j	1000660 <pad_v1_5+0xee>
        mod = (((~zero)<<(size_p+8-64*i))|mod)&(((one<<(64-16))-1)|(one<<(64-15)));
 1000728:	470d                	li	a4,3
 100072a:	1742                	slli	a4,a4,0x30
 100072c:	177d                	addi	a4,a4,-1
 100072e:	8ff9                	and	a5,a5,a4
        *(ptro+i) = (~zero)&(((one<<(64-16))-1)|(one<<(64-15)));
 1000730:	fdfc                	sd	a5,248(a1)
  for(int i=0; i<tot_size; i=i+1){
 1000732:	8082                	ret
        mod = (((one<<(size_p-64*i))-one)&data)&(((one<<(64-16))-1)|(one<<(64-15)));
 1000734:	468d                	li	a3,3
 1000736:	8ff9                	and	a5,a5,a4
 1000738:	03069713          	slli	a4,a3,0x30
 100073c:	177d                	addi	a4,a4,-1
 100073e:	8ff9                	and	a5,a5,a4
        *(ptro+i) = (~zero)&(((one<<(64-16))-1)|(one<<(64-15)));
 1000740:	fdfc                	sd	a5,248(a1)
  for(int i=0; i<tot_size; i=i+1){
 1000742:	8082                	ret
        *(ptro+i) = (((((~zero)<<(64*i-size_p)))))&(((one<<(64-16))-1)|(one<<(64-15)));
 1000744:	478d                	li	a5,3
 1000746:	17c2                	slli	a5,a5,0x30
 1000748:	17fd                	addi	a5,a5,-1
 100074a:	8e7d                	and	a2,a2,a5
 100074c:	fdf0                	sd	a2,248(a1)
  for(int i=0; i<tot_size; i=i+1){
 100074e:	8082                	ret

0000000001000750 <rsa2048_v1_5>:

void rsa2048_v1_5(void* source_p, void* source_key_exp, void* source_key_mod, void* source_r_sqr, void* dest, int size_p, int size_m, int sign){
 1000750:	714d                	addi	sp,sp,-336
 1000752:	f64e                	sd	s3,296(sp)
 1000754:	f252                	sd	s4,288(sp)
 1000756:	ee56                	sd	s5,280(sp)
 1000758:	8a2e                	mv	s4,a1
 100075a:	8aaa                	mv	s5,a0
 100075c:	89b2                	mv	s3,a2
  volatile uint64_t arr[RSA_LEN] = {0,0,0,0,0,0,0,0};
 100075e:	4581                	li	a1,0
 1000760:	10000613          	li	a2,256
 1000764:	850a                	mv	a0,sp
void rsa2048_v1_5(void* source_p, void* source_key_exp, void* source_key_mod, void* source_r_sqr, void* dest, int size_p, int size_m, int sign){
 1000766:	e2a2                	sd	s0,320(sp)
 1000768:	fe26                	sd	s1,312(sp)
 100076a:	fa4a                	sd	s2,304(sp)
 100076c:	ea5a                	sd	s6,272(sp)
 100076e:	e65e                	sd	s7,264(sp)
 1000770:	843a                	mv	s0,a4
 1000772:	8942                	mv	s2,a6
 1000774:	e686                	sd	ra,328(sp)
 1000776:	84b6                	mv	s1,a3
 1000778:	8b3e                	mv	s6,a5
 100077a:	8bc6                	mv	s7,a7
  volatile uint64_t arr[RSA_LEN] = {0,0,0,0,0,0,0,0};
 100077c:	28c030ef          	jal	ra,1003a08 <memset>
 1000780:	4701                	li	a4,0
  //uint64_t tot_size = 32;

  //EXP
  //printf("EXP\n");
  for(int i=0; i<tot_size; i=i+1){
    if(i<2){
 1000782:	4305                	li	t1,1
      //printf("%lx ", *(ptre+i));
      *mme_exp = *(ptre+i);
    }
    else
      *mme_exp = 0;
 1000784:	00021837          	lui	a6,0x21
  for(int i=0; i<tot_size; i=i+1){
 1000788:	4e7d                	li	t3,31
 100078a:	0007061b          	sext.w	a2,a4
    if(i<2){
 100078e:	00e37b63          	bgeu	t1,a4,10007a4 <rsa2048_v1_5+0x54>
      *mme_exp = 0;
 1000792:	32083023          	sd	zero,800(a6) # 21320 <_tbss_end+0x21320>
  for(int i=0; i<tot_size; i=i+1){
 1000796:	01c60f63          	beq	a2,t3,10007b4 <rsa2048_v1_5+0x64>
 100079a:	0705                	addi	a4,a4,1
 100079c:	0007061b          	sext.w	a2,a4
    if(i<2){
 10007a0:	fee369e3          	bltu	t1,a4,1000792 <rsa2048_v1_5+0x42>
      *mme_exp = *(ptre+i);
 10007a4:	00371613          	slli	a2,a4,0x3
 10007a8:	9652                	add	a2,a2,s4
 10007aa:	621c                	ld	a5,0(a2)
 10007ac:	0705                	addi	a4,a4,1
 10007ae:	32f83023          	sd	a5,800(a6)
  for(int i=0; i<tot_size; i=i+1){
 10007b2:	b7ed                	j	100079c <rsa2048_v1_5+0x4c>
  }
  
  pad_v1_5(source_p, ptrp, size_p, sign);
 10007b4:	86de                	mv	a3,s7
 10007b6:	865a                	mv	a2,s6
 10007b8:	858a                	mv	a1,sp
 10007ba:	8556                	mv	a0,s5
 10007bc:	db7ff0ef          	jal	ra,1000572 <pad_v1_5>
 10007c0:	4785                	li	a5,1
  for(int i=0; i<tot_size; i=i+1)
    *mme_plaintext = *(ptrp+i);
 10007c2:	00021637          	lui	a2,0x21
  for(int i=0; i<tot_size; i=i+1)
 10007c6:	02100693          	li	a3,33
    *mme_plaintext = *(ptrp+i);
 10007ca:	00379713          	slli	a4,a5,0x3
 10007ce:	ff810593          	addi	a1,sp,-8
 10007d2:	972e                	add	a4,a4,a1
 10007d4:	6318                	ld	a4,0(a4)
 10007d6:	0785                	addi	a5,a5,1
 10007d8:	30e63023          	sd	a4,768(a2) # 21300 <_tbss_end+0x21300>
  for(int i=0; i<tot_size; i=i+1)
 10007dc:	fed797e3          	bne	a5,a3,10007ca <rsa2048_v1_5+0x7a>
 10007e0:	4781                	li	a5,0
 10007e2:	04000693          	li	a3,64
      uint64_t mod = ((one<<(size_m-64*i))-one)&data;
      //uint64_t mod = ~(one<<(size_m-64*i)-one);
      *mme_mod = mod;
    }
    else
      *mme_mod = 0;
 10007e6:	00021837          	lui	a6,0x21
      uint64_t mod = ((one<<(size_m-64*i))-one)&data;
 10007ea:	58fd                	li	a7,-1
  for(int i=0; i<tot_size; i=i+1){
 10007ec:	10000613          	li	a2,256
 10007f0:	a805                	j	1000820 <rsa2048_v1_5+0xd0>
      uint64_t data = *(ptrm+i);
 10007f2:	0007871b          	sext.w	a4,a5
      uint64_t mod = ((one<<(size_m-64*i))-one)&data;
 10007f6:	0037171b          	slliw	a4,a4,0x3
 10007fa:	40e9073b          	subw	a4,s2,a4
 10007fe:	00e89733          	sll	a4,a7,a4
 1000802:	00f985b3          	add	a1,s3,a5
 1000806:	fff74713          	not	a4,a4
    else if((64*(i+1)>=size_m)&&(64*i<(size_m))){
 100080a:	09255563          	bge	a0,s2,1000894 <rsa2048_v1_5+0x144>
      uint64_t data = *(ptrm+i);
 100080e:	618c                	ld	a1,0(a1)
      uint64_t mod = ((one<<(size_m-64*i))-one)&data;
 1000810:	8f6d                	and	a4,a4,a1
      *mme_mod = mod;
 1000812:	34e83023          	sd	a4,832(a6) # 21340 <_tbss_end+0x21340>
  for(int i=0; i<tot_size; i=i+1){
 1000816:	07a1                	addi	a5,a5,8
 1000818:	0406869b          	addiw	a3,a3,64
 100081c:	02c78363          	beq	a5,a2,1000842 <rsa2048_v1_5+0xf2>
    if((64*(i+1)<=size_m)&&(64*(i)<size_m)){
 1000820:	0037959b          	slliw	a1,a5,0x3
    else if((64*(i+1)>=size_m)&&(64*i<(size_m))){
 1000824:	852e                	mv	a0,a1
    if((64*(i+1)<=size_m)&&(64*(i)<size_m)){
 1000826:	fcd946e3          	blt	s2,a3,10007f2 <rsa2048_v1_5+0xa2>
      *mme_mod = *(ptrm+i);
 100082a:	00f98733          	add	a4,s3,a5
    if((64*(i+1)<=size_m)&&(64*(i)<size_m)){
 100082e:	0725d363          	bge	a1,s2,1000894 <rsa2048_v1_5+0x144>
      *mme_mod = *(ptrm+i);
 1000832:	6318                	ld	a4,0(a4)
 1000834:	07a1                	addi	a5,a5,8
 1000836:	0406869b          	addiw	a3,a3,64
 100083a:	34e83023          	sd	a4,832(a6)
  for(int i=0; i<tot_size; i=i+1){
 100083e:	fec791e3          	bne	a5,a2,1000820 <rsa2048_v1_5+0xd0>
 1000842:	86a6                	mv	a3,s1
 1000844:	10048613          	addi	a2,s1,256
  }
  //RSQR
  for(int i=0; i<tot_size; i=i+1){
    *mme_rsqr = *(ptrr+i);
 1000848:	00021737          	lui	a4,0x21
 100084c:	629c                	ld	a5,0(a3)
 100084e:	06a1                	addi	a3,a3,8
 1000850:	36f73023          	sd	a5,864(a4) # 21360 <_tbss_end+0x21360>
  for(int i=0; i<tot_size; i=i+1){
 1000854:	fec69ce3          	bne	a3,a2,100084c <rsa2048_v1_5+0xfc>
  }
  //WAIT
  while(*mme_status==0);
 1000858:	00021737          	lui	a4,0x21
 100085c:	3c074783          	lbu	a5,960(a4) # 213c0 <_tbss_end+0x213c0>
 1000860:	0ff7f793          	andi	a5,a5,255
 1000864:	dfe5                	beqz	a5,100085c <rsa2048_v1_5+0x10c>
 1000866:	8722                	mv	a4,s0
 1000868:	10040613          	addi	a2,s0,256
  //OUT
  for(int i=0; i<tot_size; i=i+1){
    *(ptr_out+i) = *mme_out;
 100086c:	000216b7          	lui	a3,0x21
 1000870:	3806b783          	ld	a5,896(a3) # 21380 <_tbss_end+0x21380>
 1000874:	0721                	addi	a4,a4,8
 1000876:	fef73c23          	sd	a5,-8(a4)
  for(int i=0; i<tot_size; i=i+1){
 100087a:	fee61be3          	bne	a2,a4,1000870 <rsa2048_v1_5+0x120>
  }
}
 100087e:	60b6                	ld	ra,328(sp)
 1000880:	6416                	ld	s0,320(sp)
 1000882:	74f2                	ld	s1,312(sp)
 1000884:	7952                	ld	s2,304(sp)
 1000886:	79b2                	ld	s3,296(sp)
 1000888:	7a12                	ld	s4,288(sp)
 100088a:	6af2                	ld	s5,280(sp)
 100088c:	6b52                	ld	s6,272(sp)
 100088e:	6bb2                	ld	s7,264(sp)
 1000890:	6171                	addi	sp,sp,336
 1000892:	8082                	ret
      *mme_mod = 0;
 1000894:	34083023          	sd	zero,832(a6)
 1000898:	bfbd                	j	1000816 <rsa2048_v1_5+0xc6>

000000000100089a <rsa2048_decrypt>:
void rsa2048_decrypt(void* source_p, void* source_key_exp, void* source_key_mod, void* source_r_sqr, void* dest, int size_p, int size_m){
 100089a:	7129                	addi	sp,sp,-320
 100089c:	f24a                	sd	s2,288(sp)
 100089e:	ee4e                	sd	s3,280(sp)
 10008a0:	e656                	sd	s5,264(sp)
 10008a2:	892a                	mv	s2,a0
 10008a4:	8aae                	mv	s5,a1
 10008a6:	89b2                	mv	s3,a2
  volatile uint64_t arr[RSA_LEN] = {0,0,0,0,0,0,0,0};
 10008a8:	4581                	li	a1,0
 10008aa:	10000613          	li	a2,256
 10008ae:	850a                	mv	a0,sp
void rsa2048_decrypt(void* source_p, void* source_key_exp, void* source_key_mod, void* source_r_sqr, void* dest, int size_p, int size_m){
 10008b0:	fa22                	sd	s0,304(sp)
 10008b2:	f626                	sd	s1,296(sp)
 10008b4:	ea52                	sd	s4,272(sp)
 10008b6:	84b6                	mv	s1,a3
 10008b8:	843a                	mv	s0,a4
 10008ba:	fe06                	sd	ra,312(sp)
 10008bc:	8a42                	mv	s4,a6
  volatile uint64_t arr[RSA_LEN] = {0,0,0,0,0,0,0,0};
 10008be:	14a030ef          	jal	ra,1003a08 <memset>
 10008c2:	4781                	li	a5,0
  //uint64_t tot_size = 32;

  //EXP
  //printf("\nEXP %lx\n", source_key_exp);
  for(int i=0; i<tot_size; i=i+1){
    if(i<2){
 10008c4:	4605                	li	a2,1
      //printf("%lx ", *(ptre+i));
      *mme_exp = *(ptre+i);
    }
    else
      *mme_exp = 0;
 10008c6:	000216b7          	lui	a3,0x21
  for(int i=0; i<tot_size; i=i+1){
 10008ca:	457d                	li	a0,31
 10008cc:	0007871b          	sext.w	a4,a5
    if(i<2){
 10008d0:	00f67b63          	bgeu	a2,a5,10008e6 <rsa2048_decrypt+0x4c>
      *mme_exp = 0;
 10008d4:	3206b023          	sd	zero,800(a3) # 21320 <_tbss_end+0x21320>
  for(int i=0; i<tot_size; i=i+1){
 10008d8:	00a70f63          	beq	a4,a0,10008f6 <rsa2048_decrypt+0x5c>
 10008dc:	0785                	addi	a5,a5,1
 10008de:	0007871b          	sext.w	a4,a5
    if(i<2){
 10008e2:	fef669e3          	bltu	a2,a5,10008d4 <rsa2048_decrypt+0x3a>
      *mme_exp = *(ptre+i);
 10008e6:	00379713          	slli	a4,a5,0x3
 10008ea:	9756                	add	a4,a4,s5
 10008ec:	6318                	ld	a4,0(a4)
 10008ee:	0785                	addi	a5,a5,1
 10008f0:	32e6b023          	sd	a4,800(a3)
  for(int i=0; i<tot_size; i=i+1){
 10008f4:	b7ed                	j	10008de <rsa2048_decrypt+0x44>
 10008f6:	854a                	mv	a0,s2
 10008f8:	10090693          	addi	a3,s2,256
  
  //sourcep must be 2048 bits
  //printf("\nPLAINTEXT %lx\n", source_p);
  for(int i=0; i<tot_size; i=i+1) {
    //printf("%lx ", *((uint64_t*)source_p+i));
    *mme_plaintext = *((uint64_t*)source_p+i);
 10008fc:	00021737          	lui	a4,0x21
 1000900:	611c                	ld	a5,0(a0)
 1000902:	0521                	addi	a0,a0,8
 1000904:	30f73023          	sd	a5,768(a4) # 21300 <_tbss_end+0x21300>
  for(int i=0; i<tot_size; i=i+1) {
 1000908:	fed51ce3          	bne	a0,a3,1000900 <rsa2048_decrypt+0x66>
  }

  //MOD
  for(int i=0; i<tot_size; i=i+1){
 100090c:	6585                	lui	a1,0x1
 100090e:	864e                	mv	a2,s3
  for(int i=0; i<tot_size; i=i+1) {
 1000910:	04000793          	li	a5,64
      uint64_t mod = ((one<<(size_m-64*i))-one)&data;
      //uint64_t mod = ~(one<<(size_m-64*i)-one);
      *mme_mod = mod;
    }
    else
      *mme_mod = 0;
 1000914:	00021537          	lui	a0,0x21
      uint64_t mod = ((one<<(size_m-64*i))-one)&data;
 1000918:	040a089b          	addiw	a7,s4,64
 100091c:	587d                	li	a6,-1
  for(int i=0; i<tot_size; i=i+1){
 100091e:	84058593          	addi	a1,a1,-1984 # 840 <_tbss_end+0x840>
 1000922:	a015                	j	1000946 <rsa2048_decrypt+0xac>
      uint64_t mod = ((one<<(size_m-64*i))-one)&data;
 1000924:	40f8873b          	subw	a4,a7,a5
 1000928:	00e81733          	sll	a4,a6,a4
 100092c:	fff74713          	not	a4,a4
    else if((64*(i+1)>=size_m)&&(64*i<(size_m))){
 1000930:	0946d163          	bge	a3,s4,10009b2 <rsa2048_decrypt+0x118>
      uint64_t data = *(ptrm+i);
 1000934:	6214                	ld	a3,0(a2)
      uint64_t mod = ((one<<(size_m-64*i))-one)&data;
 1000936:	8f75                	and	a4,a4,a3
      *mme_mod = mod;
 1000938:	34e53023          	sd	a4,832(a0) # 21340 <_tbss_end+0x21340>
  for(int i=0; i<tot_size; i=i+1){
 100093c:	0407879b          	addiw	a5,a5,64
 1000940:	0621                	addi	a2,a2,8
 1000942:	02b78163          	beq	a5,a1,1000964 <rsa2048_decrypt+0xca>
    if((64*(i+1)<=size_m)&&(64*(i)<size_m)){
 1000946:	fc07871b          	addiw	a4,a5,-64
    else if((64*(i+1)>=size_m)&&(64*i<(size_m))){
 100094a:	86ba                	mv	a3,a4
    if((64*(i+1)<=size_m)&&(64*(i)<size_m)){
 100094c:	fcfa4ce3          	blt	s4,a5,1000924 <rsa2048_decrypt+0x8a>
 1000950:	07475163          	bge	a4,s4,10009b2 <rsa2048_decrypt+0x118>
      *mme_mod = *(ptrm+i);
 1000954:	6218                	ld	a4,0(a2)
 1000956:	0407879b          	addiw	a5,a5,64
 100095a:	0621                	addi	a2,a2,8
 100095c:	34e53023          	sd	a4,832(a0)
  for(int i=0; i<tot_size; i=i+1){
 1000960:	feb793e3          	bne	a5,a1,1000946 <rsa2048_decrypt+0xac>
 1000964:	86a6                	mv	a3,s1
 1000966:	10048613          	addi	a2,s1,256
  }
  //RSQR
  //printf("\nRR\n");
  for(int i=0; i<tot_size; i=i+1){
    //printf("%x ", *(ptrr+i));
    *mme_rsqr = *(ptrr+i);
 100096a:	00021737          	lui	a4,0x21
 100096e:	629c                	ld	a5,0(a3)
 1000970:	06a1                	addi	a3,a3,8
 1000972:	36f73023          	sd	a5,864(a4) # 21360 <_tbss_end+0x21360>
  for(int i=0; i<tot_size; i=i+1){
 1000976:	fed61ce3          	bne	a2,a3,100096e <rsa2048_decrypt+0xd4>
  }
  //WAIT
  while(*mme_status==0);
 100097a:	00021737          	lui	a4,0x21
 100097e:	3c074783          	lbu	a5,960(a4) # 213c0 <_tbss_end+0x213c0>
 1000982:	0ff7f793          	andi	a5,a5,255
 1000986:	dfe5                	beqz	a5,100097e <rsa2048_decrypt+0xe4>
 1000988:	8722                	mv	a4,s0
 100098a:	10040613          	addi	a2,s0,256
  //OUT
  for(int i=0; i<tot_size; i=i+1){
    *(ptr_out+i) = *mme_out;
 100098e:	000216b7          	lui	a3,0x21
 1000992:	3806b783          	ld	a5,896(a3) # 21380 <_tbss_end+0x21380>
 1000996:	0721                	addi	a4,a4,8
 1000998:	fef73c23          	sd	a5,-8(a4)
  for(int i=0; i<tot_size; i=i+1){
 100099c:	fee61be3          	bne	a2,a4,1000992 <rsa2048_decrypt+0xf8>
  }
}
 10009a0:	70f2                	ld	ra,312(sp)
 10009a2:	7452                	ld	s0,304(sp)
 10009a4:	74b2                	ld	s1,296(sp)
 10009a6:	7912                	ld	s2,288(sp)
 10009a8:	69f2                	ld	s3,280(sp)
 10009aa:	6a52                	ld	s4,272(sp)
 10009ac:	6ab2                	ld	s5,264(sp)
 10009ae:	6131                	addi	sp,sp,320
 10009b0:	8082                	ret
      *mme_mod = 0;
 10009b2:	34053023          	sd	zero,832(a0)
 10009b6:	b759                	j	100093c <rsa2048_decrypt+0xa2>

00000000010009b8 <digest_message>:
{
 10009b8:	87ae                	mv	a5,a1
 10009ba:	85b2                	mv	a1,a2
    compute_hash((void*)message, (void*)digest, message_len<<3, debug_flag);
 10009bc:	0037961b          	slliw	a2,a5,0x3
 10009c0:	b029                	j	10001ca <compute_hash>

00000000010009c2 <init_fuse>:
*fuse=0xa9;*(fuse+1)=0xcf;*(fuse+2)=0xe5;*(fuse+3)=0x9d;*(fuse+4)=0x5e;*(fuse+5)=0xde;*(fuse+6)=0xb0;*(fuse+7)=0x42;*(fuse+8)=0xcb;*(fuse+9)=0x91;*(fuse+10)=0x73;*(fuse+11)=0x28;*(fuse+12)=0xca;*(fuse+13)=0x70;*(fuse+14)=0xa7;*(fuse+15)=0x24;*(fuse+16)=0xc6;*(fuse+17)=0x23;*(fuse+18)=0x95;*(fuse+19)=0x8f;*(fuse+20)=0xde;*(fuse+21)=0xc2;*(fuse+22)=0xf5;*(fuse+23)=0xaf;*(fuse+24)=0x40;*(fuse+25)=0x71;*(fuse+26)=0xcd;*(fuse+27)=0xd1;*(fuse+28)=0xa9;*(fuse+29)=0x4f;*(fuse+30)=0xc5;*(fuse+31)=0x33;
 10009c2:	fcf00693          	li	a3,-49
 10009c6:	00d500a3          	sb	a3,1(a0)
 10009ca:	5695                	li	a3,-27
 10009cc:	00d50123          	sb	a3,2(a0)
 10009d0:	f9d00693          	li	a3,-99
 10009d4:	00d501a3          	sb	a3,3(a0)
 10009d8:	05e00693          	li	a3,94
 10009dc:	00d50223          	sb	a3,4(a0)
 10009e0:	fb000693          	li	a3,-80
 10009e4:	00d50323          	sb	a3,6(a0)
 10009e8:	04200693          	li	a3,66
 10009ec:	00d503a3          	sb	a3,7(a0)
 10009f0:	fcb00693          	li	a3,-53
 10009f4:	00d50423          	sb	a3,8(a0)
 10009f8:	f9100693          	li	a3,-111
 10009fc:	00d504a3          	sb	a3,9(a0)
 1000a00:	07300693          	li	a3,115
 1000a04:	00d50523          	sb	a3,10(a0)
 1000a08:	02800693          	li	a3,40
 1000a0c:	fde00713          	li	a4,-34
 1000a10:	00d505a3          	sb	a3,11(a0)
 1000a14:	fca00693          	li	a3,-54
 1000a18:	00e502a3          	sb	a4,5(a0)
 1000a1c:	00d50623          	sb	a3,12(a0)
 1000a20:	00e50a23          	sb	a4,20(a0)
 1000a24:	07000693          	li	a3,112
 1000a28:	fc200713          	li	a4,-62
 1000a2c:	00d506a3          	sb	a3,13(a0)
 1000a30:	00e50aa3          	sb	a4,21(a0)
 1000a34:	fa700693          	li	a3,-89
 1000a38:	5755                	li	a4,-11
 1000a3a:	00d50723          	sb	a3,14(a0)
 1000a3e:	00e50b23          	sb	a4,22(a0)
 1000a42:	02400693          	li	a3,36
 1000a46:	faf00713          	li	a4,-81
 1000a4a:	fa900793          	li	a5,-87
 1000a4e:	00d507a3          	sb	a3,15(a0)
 1000a52:	00e50ba3          	sb	a4,23(a0)
 1000a56:	fc600693          	li	a3,-58
 1000a5a:	04000713          	li	a4,64
 1000a5e:	00f50023          	sb	a5,0(a0)
 1000a62:	00d50823          	sb	a3,16(a0)
 1000a66:	00e50c23          	sb	a4,24(a0)
 1000a6a:	02300693          	li	a3,35
 1000a6e:	07100713          	li	a4,113
 1000a72:	00f50e23          	sb	a5,28(a0)
 1000a76:	04f00793          	li	a5,79
 1000a7a:	00d508a3          	sb	a3,17(a0)
 1000a7e:	00e50ca3          	sb	a4,25(a0)
 1000a82:	f9500693          	li	a3,-107
 1000a86:	fcd00713          	li	a4,-51
 1000a8a:	00f50ea3          	sb	a5,29(a0)
 1000a8e:	fc500793          	li	a5,-59
 1000a92:	00d50923          	sb	a3,18(a0)
 1000a96:	00e50d23          	sb	a4,26(a0)
 1000a9a:	f8f00693          	li	a3,-113
 1000a9e:	fd100713          	li	a4,-47
 1000aa2:	00f50f23          	sb	a5,30(a0)
 1000aa6:	03300793          	li	a5,51
 1000aaa:	00d509a3          	sb	a3,19(a0)
 1000aae:	00e50da3          	sb	a4,27(a0)
 1000ab2:	00f50fa3          	sb	a5,31(a0)
}
 1000ab6:	8082                	ret

0000000001000ab8 <verify_srk>:
{
 1000ab8:	716d                	addi	sp,sp,-272
*fuse=0xa9;*(fuse+1)=0xcf;*(fuse+2)=0xe5;*(fuse+3)=0x9d;*(fuse+4)=0x5e;*(fuse+5)=0xde;*(fuse+6)=0xb0;*(fuse+7)=0x42;*(fuse+8)=0xcb;*(fuse+9)=0x91;*(fuse+10)=0x73;*(fuse+11)=0x28;*(fuse+12)=0xca;*(fuse+13)=0x70;*(fuse+14)=0xa7;*(fuse+15)=0x24;*(fuse+16)=0xc6;*(fuse+17)=0x23;*(fuse+18)=0x95;*(fuse+19)=0x8f;*(fuse+20)=0xde;*(fuse+21)=0xc2;*(fuse+22)=0xf5;*(fuse+23)=0xaf;*(fuse+24)=0x40;*(fuse+25)=0x71;*(fuse+26)=0xcd;*(fuse+27)=0xd1;*(fuse+28)=0xa9;*(fuse+29)=0x4f;*(fuse+30)=0xc5;*(fuse+31)=0x33;
 1000aba:	00003797          	auipc	a5,0x3
 1000abe:	2e67b783          	ld	a5,742(a5) # 1003da0 <main+0x1e0>
{
 1000ac2:	e606                	sd	ra,264(sp)
 1000ac4:	e222                	sd	s0,256(sp)
 1000ac6:	fda6                	sd	s1,248(sp)
 1000ac8:	f9ca                	sd	s2,240(sp)
 1000aca:	f5ce                	sd	s3,232(sp)
 1000acc:	f1d2                	sd	s4,224(sp)
 1000ace:	edd6                	sd	s5,216(sp)
 1000ad0:	e9da                	sd	s6,208(sp)
 1000ad2:	e5de                	sd	s7,200(sp)
*fuse=0xa9;*(fuse+1)=0xcf;*(fuse+2)=0xe5;*(fuse+3)=0x9d;*(fuse+4)=0x5e;*(fuse+5)=0xde;*(fuse+6)=0xb0;*(fuse+7)=0x42;*(fuse+8)=0xcb;*(fuse+9)=0x91;*(fuse+10)=0x73;*(fuse+11)=0x28;*(fuse+12)=0xca;*(fuse+13)=0x70;*(fuse+14)=0xa7;*(fuse+15)=0x24;*(fuse+16)=0xc6;*(fuse+17)=0x23;*(fuse+18)=0x95;*(fuse+19)=0x8f;*(fuse+20)=0xde;*(fuse+21)=0xc2;*(fuse+22)=0xf5;*(fuse+23)=0xaf;*(fuse+24)=0x40;*(fuse+25)=0x71;*(fuse+26)=0xcd;*(fuse+27)=0xd1;*(fuse+28)=0xa9;*(fuse+29)=0x4f;*(fuse+30)=0xc5;*(fuse+31)=0x33;
 1000ad4:	e03e                	sd	a5,0(sp)
 1000ad6:	00003797          	auipc	a5,0x3
 1000ada:	2d27b783          	ld	a5,722(a5) # 1003da8 <main+0x1e8>
 1000ade:	e43e                	sd	a5,8(sp)
    if (*table == 0x01) {
 1000ae0:	00054703          	lbu	a4,0(a0)
*fuse=0xa9;*(fuse+1)=0xcf;*(fuse+2)=0xe5;*(fuse+3)=0x9d;*(fuse+4)=0x5e;*(fuse+5)=0xde;*(fuse+6)=0xb0;*(fuse+7)=0x42;*(fuse+8)=0xcb;*(fuse+9)=0x91;*(fuse+10)=0x73;*(fuse+11)=0x28;*(fuse+12)=0xca;*(fuse+13)=0x70;*(fuse+14)=0xa7;*(fuse+15)=0x24;*(fuse+16)=0xc6;*(fuse+17)=0x23;*(fuse+18)=0x95;*(fuse+19)=0x8f;*(fuse+20)=0xde;*(fuse+21)=0xc2;*(fuse+22)=0xf5;*(fuse+23)=0xaf;*(fuse+24)=0x40;*(fuse+25)=0x71;*(fuse+26)=0xcd;*(fuse+27)=0xd1;*(fuse+28)=0xa9;*(fuse+29)=0x4f;*(fuse+30)=0xc5;*(fuse+31)=0x33;
 1000ae4:	00003797          	auipc	a5,0x3
 1000ae8:	2cc7b783          	ld	a5,716(a5) # 1003db0 <main+0x1f0>
 1000aec:	e83e                	sd	a5,16(sp)
 1000aee:	00003797          	auipc	a5,0x3
 1000af2:	2ca7b783          	ld	a5,714(a5) # 1003db8 <main+0x1f8>
 1000af6:	ec3e                	sd	a5,24(sp)
    if (*table == 0x01) {
 1000af8:	4785                	li	a5,1
 1000afa:	00f70e63          	beq	a4,a5,1000b16 <verify_srk+0x5e>
    return 0;
 1000afe:	4501                	li	a0,0
}
 1000b00:	60b2                	ld	ra,264(sp)
 1000b02:	6412                	ld	s0,256(sp)
 1000b04:	74ee                	ld	s1,248(sp)
 1000b06:	794e                	ld	s2,240(sp)
 1000b08:	79ae                	ld	s3,232(sp)
 1000b0a:	7a0e                	ld	s4,224(sp)
 1000b0c:	6aee                	ld	s5,216(sp)
 1000b0e:	6b4e                	ld	s6,208(sp)
 1000b10:	6bae                	ld	s7,200(sp)
 1000b12:	6151                	addi	sp,sp,272
 1000b14:	8082                	ret
    int i=0,srk_n = *(table+3),tlen = EXTRACT_LEN(table+1);
 1000b16:	00354783          	lbu	a5,3(a0)
        while(i<srk_n && temp<=cond)
 1000b1a:	cbc5                	beqz	a5,1000bca <verify_srk+0x112>
    uint8_t *cond = table+tlen;
 1000b1c:	00254703          	lbu	a4,2(a0)
 1000b20:	00154903          	lbu	s2,1(a0)
    uint8_t fuse[32],digest[32],intermediate_hash[32*4],*temp = table+4;
 1000b24:	00450b93          	addi	s7,a0,4
    uint8_t *cond = table+tlen;
 1000b28:	0722                	slli	a4,a4,0x8
 1000b2a:	01276933          	or	s2,a4,s2
 1000b2e:	0922                	slli	s2,s2,0x8
 1000b30:	8321                	srli	a4,a4,0x8
 1000b32:	00e96933          	or	s2,s2,a4
 1000b36:	1942                	slli	s2,s2,0x30
 1000b38:	03095913          	srli	s2,s2,0x30
 1000b3c:	992a                	add	s2,s2,a0
        while(i<srk_n && temp<=cond)
 1000b3e:	09796663          	bltu	s2,s7,1000bca <verify_srk+0x112>
 1000b42:	fff7899b          	addiw	s3,a5,-1
 1000b46:	1982                	slli	s3,s3,0x20
 1000b48:	0209d993          	srli	s3,s3,0x20
 1000b4c:	04010b13          	addi	s6,sp,64
 1000b50:	0996                	slli	s3,s3,0x5
 1000b52:	02000a93          	li	s5,32
 1000b56:	99da                	add	s3,s3,s6
 1000b58:	84da                	mv	s1,s6
 1000b5a:	02010a13          	addi	s4,sp,32
 1000b5e:	416a8abb          	subw	s5,s5,s6
 1000b62:	a029                	j	1000b6c <verify_srk+0xb4>
 1000b64:	02048493          	addi	s1,s1,32
 1000b68:	05796163          	bltu	s2,s7,1000baa <verify_srk+0xf2>
            mlen = EXTRACT_LEN((temp+1));
 1000b6c:	002bc783          	lbu	a5,2(s7)
 1000b70:	001bc403          	lbu	s0,1(s7)
    compute_hash((void*)message, (void*)digest, message_len<<3, debug_flag);
 1000b74:	855e                	mv	a0,s7
 1000b76:	07a2                	slli	a5,a5,0x8
 1000b78:	8c5d                	or	s0,s0,a5
 1000b7a:	0422                	slli	s0,s0,0x8
 1000b7c:	83a1                	srli	a5,a5,0x8
 1000b7e:	8c5d                	or	s0,s0,a5
 1000b80:	1442                	slli	s0,s0,0x30
 1000b82:	9041                	srli	s0,s0,0x30
 1000b84:	4681                	li	a3,0
 1000b86:	00341613          	slli	a2,s0,0x3
 1000b8a:	85d2                	mv	a1,s4
 1000b8c:	e3eff0ef          	jal	ra,10001ca <compute_hash>
            memcpy(intermediate_hash+len,digest,32);
 1000b90:	7782                	ld	a5,32(sp)
            temp=temp+mlen;
 1000b92:	9ba2                	add	s7,s7,s0
            memcpy(intermediate_hash+len,digest,32);
 1000b94:	e09c                	sd	a5,0(s1)
 1000b96:	77a2                	ld	a5,40(sp)
 1000b98:	e49c                	sd	a5,8(s1)
 1000b9a:	77c2                	ld	a5,48(sp)
 1000b9c:	e89c                	sd	a5,16(s1)
 1000b9e:	77e2                	ld	a5,56(sp)
 1000ba0:	ec9c                	sd	a5,24(s1)
            len+=32;
 1000ba2:	009a87bb          	addw	a5,s5,s1
        while(i<srk_n && temp<=cond)
 1000ba6:	fb349fe3          	bne	s1,s3,1000b64 <verify_srk+0xac>
 1000baa:	0037961b          	slliw	a2,a5,0x3
    compute_hash((void*)message, (void*)digest, message_len<<3, debug_flag);
 1000bae:	4681                	li	a3,0
 1000bb0:	85d2                	mv	a1,s4
 1000bb2:	855a                	mv	a0,s6
 1000bb4:	e16ff0ef          	jal	ra,10001ca <compute_hash>
        if (strncmp(digest,fuse,32)==0){
 1000bb8:	02000613          	li	a2,32
 1000bbc:	858a                	mv	a1,sp
 1000bbe:	8552                	mv	a0,s4
 1000bc0:	77b020ef          	jal	ra,1003b3a <strncmp>
            return 1;
 1000bc4:	00153513          	seqz	a0,a0
 1000bc8:	bf25                	j	1000b00 <verify_srk+0x48>
        while(i<srk_n && temp<=cond)
 1000bca:	4601                	li	a2,0
 1000bcc:	04010b13          	addi	s6,sp,64
 1000bd0:	02010a13          	addi	s4,sp,32
 1000bd4:	bfe9                	j	1000bae <verify_srk+0xf6>

0000000001000bd6 <load_key>:
    if (*(temp) == 0x04){
 1000bd6:	0006c703          	lbu	a4,0(a3)
 1000bda:	4791                	li	a5,4
 1000bdc:	00f70463          	beq	a4,a5,1000be4 <load_key+0xe>
}
 1000be0:	4501                	li	a0,0
 1000be2:	8082                	ret
 1000be4:	d22ff06f          	j	1000106 <load_key.part.0>

0000000001000be8 <RSAsignVerify>:
int RSAsignVerify(uint8_t *hash,int hash_len,uint8_t *sign,int sig_len,int verif_index)
{
 1000be8:	cb010113          	addi	sp,sp,-848
 1000bec:	33313423          	sd	s3,808(sp)
 1000bf0:	89aa                	mv	s3,a0
    uint8_t msg[256];
    bignum_t sig,val;
    BN_init(&sig);
 1000bf2:	0208                	addi	a0,sp,256
{
 1000bf4:	34113423          	sd	ra,840(sp)
 1000bf8:	34813023          	sd	s0,832(sp)
 1000bfc:	32913c23          	sd	s1,824(sp)
 1000c00:	33213823          	sd	s2,816(sp)
 1000c04:	33413023          	sd	s4,800(sp)
 1000c08:	84b2                	mv	s1,a2
 1000c0a:	843a                	mv	s0,a4
 1000c0c:	8a36                	mv	s4,a3
 1000c0e:	892e                	mv	s2,a1
    BN_init(&sig);
 1000c10:	106010ef          	jal	ra,1001d16 <BN_init>
    BN_init(&val);
 1000c14:	0c08                	addi	a0,sp,528
 1000c16:	100010ef          	jal	ra,1001d16 <BN_init>
    BN_bin2bn(&sig,sign,0,sig_len);
 1000c1a:	86d2                	mv	a3,s4
 1000c1c:	85a6                	mv	a1,s1
 1000c1e:	0208                	addi	a0,sp,256
 1000c20:	4601                	li	a2,0
 1000c22:	100010ef          	jal	ra,1001d22 <BN_bin2bn>
    key_entry* source_key= pk_store + verif_index;
 1000c26:	33800713          	li	a4,824
 1000c2a:	02e40433          	mul	s0,s0,a4
 1000c2e:	10001737          	lui	a4,0x10001
 1000c32:	070e                	slli	a4,a4,0x3
 1000c34:	0721                	addi	a4,a4,8
    printf("RSA Address %x %x %x %x %x\n", &val, &sig,&(source_key->d),&(source_key->n), &(source_key->rr));
 1000c36:	0210                	addi	a2,sp,256
 1000c38:	0c0c                	addi	a1,sp,528
 1000c3a:	00003517          	auipc	a0,0x3
 1000c3e:	1be50513          	addi	a0,a0,446 # 1003df8 <pk_store+0x8>
    key_entry* source_key= pk_store + verif_index;
 1000c42:	943a                	add	s0,s0,a4
    printf("RSA Address %x %x %x %x %x\n", &val, &sig,&(source_key->d),&(source_key->n), &(source_key->rr));
 1000c44:	22040793          	addi	a5,s0,544
 1000c48:	11040713          	addi	a4,s0,272
 1000c4c:	86a2                	mv	a3,s0
 1000c4e:	4ab020ef          	jal	ra,10038f8 <printf>
    register long int t1 asm("t1");
    __asm__("rdcycle t1");
 1000c52:	c0002373          	rdcycle	t1
    long int *xxad = 0x80010000;
    *xxad = t1;
 1000c56:	080014b7          	lui	s1,0x8001
    #ifdef RSADRIVER
      rsa2048_decrypt(&(sig.digits), &(source_key->d.digits), &(source_key->n.digits), &(source_key->rr.digits), &(val.digits), 2048, 2048);
 1000c5a:	6805                	lui	a6,0x1
 1000c5c:	80080813          	addi	a6,a6,-2048 # 800 <_tbss_end+0x800>
    *xxad = t1;
 1000c60:	0492                	slli	s1,s1,0x4
 1000c62:	0064b023          	sd	t1,0(s1) # 8001000 <__global_pointer$+0x6ffca60>
      rsa2048_decrypt(&(sig.digits), &(source_key->d.digits), &(source_key->n.digits), &(source_key->rr.digits), &(val.digits), 2048, 2048);
 1000c66:	87c2                	mv	a5,a6
 1000c68:	0c38                	addi	a4,sp,536
 1000c6a:	22840693          	addi	a3,s0,552
 1000c6e:	11840613          	addi	a2,s0,280
 1000c72:	00840593          	addi	a1,s0,8
 1000c76:	0228                	addi	a0,sp,264
 1000c78:	c23ff0ef          	jal	ra,100089a <rsa2048_decrypt>
    #else
      rsaDecrypt(&val,&sig,&(source_key->d),&(source_key->n), source_key->rr);
    #endif

    __asm__("rdcycle t1");
 1000c7c:	c0002373          	rdcycle	t1
    long int *xxad2 = 0x80010008;
    *xxad2 = t1;
    printf(" \n Difference - %ld \n",((*xxad2)-(*xxad)));
 1000c80:	608c                	ld	a1,0(s1)
    *xxad2 = t1;
 1000c82:	0064b423          	sd	t1,8(s1)
    printf(" \n Difference - %ld \n",((*xxad2)-(*xxad)));
 1000c86:	00003517          	auipc	a0,0x3
 1000c8a:	19250513          	addi	a0,a0,402 # 1003e18 <pk_store+0x28>
 1000c8e:	40b305b3          	sub	a1,t1,a1
 1000c92:	467020ef          	jal	ra,10038f8 <printf>
    int len = BN_bn2bin(&val,msg);
 1000c96:	858a                	mv	a1,sp
 1000c98:	0c08                	addi	a0,sp,528
 1000c9a:	146010ef          	jal	ra,1001de0 <BN_bn2bin>
        printf("\n");
        for(i=0;i<32;++i)
            printf("%x %x\n",hash[i],msg[len-hash_len+i]);
        printf("\n");
    #endif 
    if (strncmp(msg+len-hash_len,hash,hash_len)==0){
 1000c9e:	41250533          	sub	a0,a0,s2
 1000ca2:	864a                	mv	a2,s2
 1000ca4:	85ce                	mv	a1,s3
 1000ca6:	950a                	add	a0,a0,sp
 1000ca8:	693020ef          	jal	ra,1003b3a <strncmp>
        printf("Signature Verified!\n");
    #endif
    }
    else
        return 0;
}
 1000cac:	34813083          	ld	ra,840(sp)
 1000cb0:	34013403          	ld	s0,832(sp)
 1000cb4:	33813483          	ld	s1,824(sp)
 1000cb8:	33013903          	ld	s2,816(sp)
 1000cbc:	32813983          	ld	s3,808(sp)
 1000cc0:	32013a03          	ld	s4,800(sp)
 1000cc4:	00153513          	seqz	a0,a0
 1000cc8:	35010113          	addi	sp,sp,848
 1000ccc:	8082                	ret

0000000001000cce <verify_certificate>:
    uint8_t *temp = cert,digest[32];
    int cert_len = EXTRACT_LEN((temp+1)),i=0;
    #ifdef DEBUG
        printf("%d\n",cert_len);
    #endif
    if (*(temp) == 0x04){
 1000cce:	00054603          	lbu	a2,0(a0)
 1000cd2:	4691                	li	a3,4
 1000cd4:	00d60563          	beq	a2,a3,1000cde <verify_certificate+0x10>
            //printf("SHA VERIFY CERT %x %x\n", cert, digest);
            digest_message(cert,cert_len+3,digest,1);
            return(RSAsignVerify(digest,32,temp+3,sig_len,verif_index));
        }
    }
    return 0;
 1000cd8:	4701                	li	a4,0
    
}
 1000cda:	853a                	mv	a0,a4
 1000cdc:	8082                	ret
{
 1000cde:	7139                	addi	sp,sp,-64
 1000ce0:	f426                	sd	s1,40(sp)
 1000ce2:	fc06                	sd	ra,56(sp)
 1000ce4:	f822                	sd	s0,48(sp)
 1000ce6:	f04a                	sd	s2,32(sp)
        temp = temp+6+mod_len+exp_len+rr_len;
 1000ce8:	00854803          	lbu	a6,8(a0)
 1000cec:	84ae                	mv	s1,a1
 1000cee:	00a54583          	lbu	a1,10(a0)
 1000cf2:	00754403          	lbu	s0,7(a0)
 1000cf6:	00954603          	lbu	a2,9(a0)
 1000cfa:	00c54703          	lbu	a4,12(a0)
 1000cfe:	0822                	slli	a6,a6,0x8
 1000d00:	05a2                	slli	a1,a1,0x8
 1000d02:	00b54683          	lbu	a3,11(a0)
 1000d06:	00886433          	or	s0,a6,s0
 1000d0a:	8e4d                	or	a2,a2,a1
 1000d0c:	0722                	slli	a4,a4,0x8
 1000d0e:	0422                	slli	s0,s0,0x8
 1000d10:	00885813          	srli	a6,a6,0x8
 1000d14:	0622                	slli	a2,a2,0x8
 1000d16:	81a1                	srli	a1,a1,0x8
 1000d18:	8ed9                	or	a3,a3,a4
 1000d1a:	01046433          	or	s0,s0,a6
 1000d1e:	8e4d                	or	a2,a2,a1
 1000d20:	8321                	srli	a4,a4,0x8
 1000d22:	1442                	slli	s0,s0,0x30
 1000d24:	1642                	slli	a2,a2,0x30
 1000d26:	06a2                	slli	a3,a3,0x8
 1000d28:	9241                	srli	a2,a2,0x30
 1000d2a:	8ed9                	or	a3,a3,a4
 1000d2c:	9041                	srli	s0,s0,0x30
 1000d2e:	9432                	add	s0,s0,a2
 1000d30:	16c2                	slli	a3,a3,0x30
 1000d32:	92c1                	srli	a3,a3,0x30
 1000d34:	0435                	addi	s0,s0,13
 1000d36:	9436                	add	s0,s0,a3
 1000d38:	942a                	add	s0,s0,a0
        if (*(temp) == 0x03){
 1000d3a:	00044603          	lbu	a2,0(s0)
 1000d3e:	468d                	li	a3,3
    return 0;
 1000d40:	4701                	li	a4,0
        if (*(temp) == 0x03){
 1000d42:	00d60963          	beq	a2,a3,1000d54 <verify_certificate+0x86>
}
 1000d46:	70e2                	ld	ra,56(sp)
 1000d48:	7442                	ld	s0,48(sp)
 1000d4a:	74a2                	ld	s1,40(sp)
 1000d4c:	7902                	ld	s2,32(sp)
 1000d4e:	853a                	mv	a0,a4
 1000d50:	6121                	addi	sp,sp,64
 1000d52:	8082                	ret
    int cert_len = EXTRACT_LEN((temp+1)),i=0;
 1000d54:	00254703          	lbu	a4,2(a0)
 1000d58:	00154603          	lbu	a2,1(a0)
            sig_len = EXTRACT_LEN(temp+1);
 1000d5c:	00244783          	lbu	a5,2(s0)
    int cert_len = EXTRACT_LEN((temp+1)),i=0;
 1000d60:	0722                	slli	a4,a4,0x8
            sig_len = EXTRACT_LEN(temp+1);
 1000d62:	00144903          	lbu	s2,1(s0)
    int cert_len = EXTRACT_LEN((temp+1)),i=0;
 1000d66:	8e59                	or	a2,a2,a4
 1000d68:	0622                	slli	a2,a2,0x8
 1000d6a:	8321                	srli	a4,a4,0x8
 1000d6c:	8e59                	or	a2,a2,a4
            sig_len = EXTRACT_LEN(temp+1);
 1000d6e:	07a2                	slli	a5,a5,0x8
 1000d70:	0127e933          	or	s2,a5,s2
    int cert_len = EXTRACT_LEN((temp+1)),i=0;
 1000d74:	0106161b          	slliw	a2,a2,0x10
            sig_len = EXTRACT_LEN(temp+1);
 1000d78:	83a1                	srli	a5,a5,0x8
 1000d7a:	0922                	slli	s2,s2,0x8
    int cert_len = EXTRACT_LEN((temp+1)),i=0;
 1000d7c:	0106561b          	srliw	a2,a2,0x10
            sig_len = EXTRACT_LEN(temp+1);
 1000d80:	00f96933          	or	s2,s2,a5
            digest_message(cert,cert_len+3,digest,1);
 1000d84:	260d                	addiw	a2,a2,3
    compute_hash((void*)message, (void*)digest, message_len<<3, debug_flag);
 1000d86:	0036161b          	slliw	a2,a2,0x3
 1000d8a:	858a                	mv	a1,sp
 1000d8c:	4685                	li	a3,1
            sig_len = EXTRACT_LEN(temp+1);
 1000d8e:	1942                	slli	s2,s2,0x30
    compute_hash((void*)message, (void*)digest, message_len<<3, debug_flag);
 1000d90:	c3aff0ef          	jal	ra,10001ca <compute_hash>
            sig_len = EXTRACT_LEN(temp+1);
 1000d94:	03095913          	srli	s2,s2,0x30
            return(RSAsignVerify(digest,32,temp+3,sig_len,verif_index));
 1000d98:	8726                	mv	a4,s1
 1000d9a:	86ca                	mv	a3,s2
 1000d9c:	00340613          	addi	a2,s0,3
 1000da0:	02000593          	li	a1,32
 1000da4:	850a                	mv	a0,sp
 1000da6:	e43ff0ef          	jal	ra,1000be8 <RSAsignVerify>
 1000daa:	872a                	mv	a4,a0
 1000dac:	bf69                	j	1000d46 <verify_certificate+0x78>

0000000001000dae <install_key>:
int install_key(uint8_t type_of_key,uint8_t crypto_algo,uint8_t source_index,uint8_t tgt_index,void *pointer_to_certificate)
{
    int result=0;
    key_entry* target_key= pk_store + tgt_index;
 1000dae:	33800813          	li	a6,824
 1000db2:	030686b3          	mul	a3,a3,a6
 1000db6:	100017b7          	lui	a5,0x10001
{
 1000dba:	7139                	addi	sp,sp,-64
    key_entry* target_key= pk_store + tgt_index;
 1000dbc:	078e                	slli	a5,a5,0x3
{
 1000dbe:	f822                	sd	s0,48(sp)
 1000dc0:	f426                	sd	s1,40(sp)
 1000dc2:	ec4e                	sd	s3,24(sp)
    key_entry* target_key= pk_store + tgt_index;
 1000dc4:	00878493          	addi	s1,a5,8 # 10001008 <__global_pointer$+0xeffca68>
{
 1000dc8:	842a                	mv	s0,a0
 1000dca:	fc06                	sd	ra,56(sp)
 1000dcc:	f04a                	sd	s2,32(sp)
    if (type_of_key == 2 )
 1000dce:	4509                	li	a0,2
{
 1000dd0:	89ba                	mv	s3,a4
    key_entry* target_key= pk_store + tgt_index;
 1000dd2:	94b6                	add	s1,s1,a3
    if (type_of_key == 2 )
 1000dd4:	00a40d63          	beq	s0,a0,1000dee <install_key+0x40>
        {     
            result = load_key(&(target_key->d),&(target_key->n),&(target_key->rr),cert+3);
            target_key->key_type = type_of_key;
        }
    }
    else if(type_of_key==1)
 1000dd8:	4785                	li	a5,1
 1000dda:	04f40463          	beq	s0,a5,1000e22 <install_key+0x74>
            return 0;
 1000dde:	4501                	li	a0,0
            }
            target_key->key_type = type_of_key;
        } 
    }
    return result;
}
 1000de0:	70e2                	ld	ra,56(sp)
 1000de2:	7442                	ld	s0,48(sp)
 1000de4:	74a2                	ld	s1,40(sp)
 1000de6:	7902                	ld	s2,32(sp)
 1000de8:	69e2                	ld	s3,24(sp)
 1000dea:	6121                	addi	sp,sp,64
 1000dec:	8082                	ret
        if (pk_store[source_index].key_type != 1)
 1000dee:	03060833          	mul	a6,a2,a6
 1000df2:	4685                	li	a3,1
 1000df4:	97c2                	add	a5,a5,a6
 1000df6:	3387c403          	lbu	s0,824(a5)
 1000dfa:	fed412e3          	bne	s0,a3,1000dde <install_key+0x30>
        if (verify_certificate(cert+3,source_index)==1)
 1000dfe:	00370913          	addi	s2,a4,3 # 10001003 <__global_pointer$+0xeffca63>
 1000e02:	85b2                	mv	a1,a2
 1000e04:	854a                	mv	a0,s2
 1000e06:	ec9ff0ef          	jal	ra,1000cce <verify_certificate>
 1000e0a:	fc851ae3          	bne	a0,s0,1000dde <install_key+0x30>
    if (*(temp) == 0x04){
 1000e0e:	0039c703          	lbu	a4,3(s3)
 1000e12:	4791                	li	a5,4
        return 0;
 1000e14:	4501                	li	a0,0
    if (*(temp) == 0x04){
 1000e16:	08f70763          	beq	a4,a5,1000ea4 <install_key+0xf6>
            target_key->key_type = type_of_key;
 1000e1a:	4789                	li	a5,2
 1000e1c:	32f48823          	sb	a5,816(s1)
 1000e20:	b7c1                	j	1000de0 <install_key+0x32>
        if (verify_srk(cert)==1)
 1000e22:	853a                	mv	a0,a4
 1000e24:	e432                	sd	a2,8(sp)
 1000e26:	c93ff0ef          	jal	ra,1000ab8 <verify_srk>
 1000e2a:	6622                	ld	a2,8(sp)
 1000e2c:	fa8519e3          	bne	a0,s0,1000dde <install_key+0x30>
            unsigned int mlen,i = 0,srk_len = EXTRACT_LEN(cert+1),srk_n=*(cert+3);
 1000e30:	0039c583          	lbu	a1,3(s3)
            cert=cert+4;
 1000e34:	00498693          	addi	a3,s3,4
            while(i<srk_n) 
 1000e38:	c1b9                	beqz	a1,1000e7e <install_key+0xd0>
                mlen = EXTRACT_LEN((cert+1));
 1000e3a:	0069c803          	lbu	a6,6(s3)
 1000e3e:	0059c783          	lbu	a5,5(s3)
                if(i==source_index) 
 1000e42:	0006051b          	sext.w	a0,a2
 1000e46:	00881713          	slli	a4,a6,0x8
 1000e4a:	8fd9                	or	a5,a5,a4
 1000e4c:	07a2                	slli	a5,a5,0x8
 1000e4e:	8321                	srli	a4,a4,0x8
 1000e50:	8fd9                	or	a5,a5,a4
 1000e52:	17c2                	slli	a5,a5,0x30
 1000e54:	93c1                	srli	a5,a5,0x30
 1000e56:	ca0d                	beqz	a2,1000e88 <install_key+0xda>
            unsigned int mlen,i = 0,srk_len = EXTRACT_LEN(cert+1),srk_n=*(cert+3);
 1000e58:	4601                	li	a2,0
 1000e5a:	a831                	j	1000e76 <install_key+0xc8>
 1000e5c:	0026c703          	lbu	a4,2(a3)
 1000e60:	0016c783          	lbu	a5,1(a3)
 1000e64:	0722                	slli	a4,a4,0x8
 1000e66:	8fd9                	or	a5,a5,a4
 1000e68:	07a2                	slli	a5,a5,0x8
 1000e6a:	8321                	srli	a4,a4,0x8
 1000e6c:	8fd9                	or	a5,a5,a4
 1000e6e:	17c2                	slli	a5,a5,0x30
 1000e70:	93c1                	srli	a5,a5,0x30
                if(i==source_index) 
 1000e72:	00a60b63          	beq	a2,a0,1000e88 <install_key+0xda>
                i++;
 1000e76:	2605                	addiw	a2,a2,1
                cert+=mlen;
 1000e78:	96be                	add	a3,a3,a5
            while(i<srk_n) 
 1000e7a:	fec591e3          	bne	a1,a2,1000e5c <install_key+0xae>
    int result=0;
 1000e7e:	4501                	li	a0,0
            target_key->key_type = type_of_key;
 1000e80:	4785                	li	a5,1
 1000e82:	32f48823          	sb	a5,816(s1)
 1000e86:	bfa9                	j	1000de0 <install_key+0x32>
    if (*(temp) == 0x04){
 1000e88:	0006c703          	lbu	a4,0(a3)
 1000e8c:	4791                	li	a5,4
    int result=0;
 1000e8e:	4501                	li	a0,0
    if (*(temp) == 0x04){
 1000e90:	fef718e3          	bne	a4,a5,1000e80 <install_key+0xd2>
 1000e94:	22048613          	addi	a2,s1,544
 1000e98:	11048593          	addi	a1,s1,272
 1000e9c:	8526                	mv	a0,s1
 1000e9e:	a68ff0ef          	jal	ra,1000106 <load_key.part.0>
 1000ea2:	bff9                	j	1000e80 <install_key+0xd2>
 1000ea4:	86ca                	mv	a3,s2
 1000ea6:	22048613          	addi	a2,s1,544
 1000eaa:	11048593          	addi	a1,s1,272
 1000eae:	8526                	mv	a0,s1
 1000eb0:	a56ff0ef          	jal	ra,1000106 <load_key.part.0>
 1000eb4:	b79d                	j	1000e1a <install_key+0x6c>

0000000001000eb6 <auth_data>:

int auth_data(uint8_t hash_algo, uint8_t crypto_algo, uint8_t pki_store_index,void *mem_addr_start, int length,void *csf_addr_start, int csf_len , void *pointer_to_signature)
{
 1000eb6:	7135                	addi	sp,sp,-160
 1000eb8:	e922                	sd	s0,144(sp)
    int result=0;
    uint8_t *sign = (uint8_t*)pointer_to_signature;
    key_entry* source_key= pk_store + pki_store_index;
 1000eba:	33800413          	li	s0,824
 1000ebe:	02860433          	mul	s0,a2,s0
 1000ec2:	10001537          	lui	a0,0x10001
 1000ec6:	050e                	slli	a0,a0,0x3
{
 1000ec8:	85b2                	mv	a1,a2
    key_entry* source_key= pk_store + pki_store_index;
 1000eca:	00850613          	addi	a2,a0,8 # 10001008 <__global_pointer$+0xeffca68>
{
 1000ece:	e14a                	sd	s2,128(sp)
    printf("pki_store_index=%x pk_store= %x source_key= %x\n",pki_store_index, pk_store, source_key);
 1000ed0:	0005891b          	sext.w	s2,a1
{
 1000ed4:	fcce                	sd	s3,120(sp)
    printf("pki_store_index=%x pk_store= %x source_key= %x\n",pki_store_index, pk_store, source_key);
 1000ed6:	85ca                	mv	a1,s2
{
 1000ed8:	89b6                	mv	s3,a3
    key_entry* source_key= pk_store + pki_store_index;
 1000eda:	9432                	add	s0,s0,a2
    printf("pki_store_index=%x pk_store= %x source_key= %x\n",pki_store_index, pk_store, source_key);
 1000edc:	86a2                	mv	a3,s0
 1000ede:	00003517          	auipc	a0,0x3
 1000ee2:	f5250513          	addi	a0,a0,-174 # 1003e30 <pk_store+0x40>
{
 1000ee6:	ed06                	sd	ra,152(sp)
 1000ee8:	e526                	sd	s1,136(sp)
 1000eea:	f8d2                	sd	s4,112(sp)
 1000eec:	84c6                	mv	s1,a7
 1000eee:	f4d6                	sd	s5,104(sp)
 1000ef0:	f0da                	sd	s6,96(sp)
 1000ef2:	8a3a                	mv	s4,a4
 1000ef4:	8abe                	mv	s5,a5
 1000ef6:	8b42                	mv	s6,a6
    printf("pki_store_index=%x pk_store= %x source_key= %x\n",pki_store_index, pk_store, source_key);
 1000ef8:	201020ef          	jal	ra,10038f8 <printf>
    printf("key_type= %x %x %x\n",source_key->key_type, sign, *sign);
 1000efc:	33044583          	lbu	a1,816(s0)
 1000f00:	0004c683          	lbu	a3,0(s1)
 1000f04:	8626                	mv	a2,s1
 1000f06:	00003517          	auipc	a0,0x3
 1000f0a:	f5a50513          	addi	a0,a0,-166 # 1003e60 <pk_store+0x70>
 1000f0e:	1eb020ef          	jal	ra,10038f8 <printf>
    if ((source_key->key_type == 2 || source_key->key_type == 3) && *sign == 0x03)
 1000f12:	33044583          	lbu	a1,816(s0)
 1000f16:	4885                	li	a7,1
    int result=0;
 1000f18:	4501                	li	a0,0
    if ((source_key->key_type == 2 || source_key->key_type == 3) && *sign == 0x03)
 1000f1a:	35f9                	addiw	a1,a1,-2
 1000f1c:	0ff5f593          	andi	a1,a1,255
 1000f20:	00b8fc63          	bgeu	a7,a1,1000f38 <auth_data+0x82>
        result = RSAsignVerify((uint8_t*)final_hash,32,(sign+3),EXTRACT_LEN(sign+1),pki_store_index);
    }

    //printf("HIIII %d", result);
    return result;
}
 1000f24:	60ea                	ld	ra,152(sp)
 1000f26:	644a                	ld	s0,144(sp)
 1000f28:	64aa                	ld	s1,136(sp)
 1000f2a:	690a                	ld	s2,128(sp)
 1000f2c:	79e6                	ld	s3,120(sp)
 1000f2e:	7a46                	ld	s4,112(sp)
 1000f30:	7aa6                	ld	s5,104(sp)
 1000f32:	7b06                	ld	s6,96(sp)
 1000f34:	610d                	addi	sp,sp,160
 1000f36:	8082                	ret
    if ((source_key->key_type == 2 || source_key->key_type == 3) && *sign == 0x03)
 1000f38:	0004c703          	lbu	a4,0(s1)
 1000f3c:	478d                	li	a5,3
 1000f3e:	fef713e3          	bne	a4,a5,1000f24 <auth_data+0x6e>
    compute_hash((void*)message, (void*)digest, message_len<<3, debug_flag);
 1000f42:	003b161b          	slliw	a2,s6,0x3
 1000f46:	100c                	addi	a1,sp,32
 1000f48:	8556                	mv	a0,s5
 1000f4a:	4681                	li	a3,0
 1000f4c:	a7eff0ef          	jal	ra,10001ca <compute_hash>
 1000f50:	003a161b          	slliw	a2,s4,0x3
 1000f54:	008c                	addi	a1,sp,64
 1000f56:	854e                	mv	a0,s3
 1000f58:	4681                	li	a3,0
 1000f5a:	a70ff0ef          	jal	ra,10001ca <compute_hash>
 1000f5e:	858a                	mv	a1,sp
 1000f60:	1008                	addi	a0,sp,32
 1000f62:	4681                	li	a3,0
 1000f64:	20000613          	li	a2,512
 1000f68:	a62ff0ef          	jal	ra,10001ca <compute_hash>
        result = RSAsignVerify((uint8_t*)final_hash,32,(sign+3),EXTRACT_LEN(sign+1),pki_store_index);
 1000f6c:	0024c783          	lbu	a5,2(s1)
 1000f70:	0014c683          	lbu	a3,1(s1)
 1000f74:	874a                	mv	a4,s2
 1000f76:	07a2                	slli	a5,a5,0x8
 1000f78:	8edd                	or	a3,a3,a5
 1000f7a:	06a2                	slli	a3,a3,0x8
 1000f7c:	83a1                	srli	a5,a5,0x8
 1000f7e:	8edd                	or	a3,a3,a5
 1000f80:	16c2                	slli	a3,a3,0x30
 1000f82:	92c1                	srli	a3,a3,0x30
 1000f84:	00348613          	addi	a2,s1,3
 1000f88:	02000593          	li	a1,32
 1000f8c:	850a                	mv	a0,sp
 1000f8e:	c5bff0ef          	jal	ra,1000be8 <RSAsignVerify>
 1000f92:	bf49                	j	1000f24 <auth_data+0x6e>

0000000001000f94 <initialise_lib>:
{
    int i;
    for(i=0;i<2;++i)
    {
      key_entry* pks= pk_store + i;
      pks->key_type=0; 
 1000f94:	100017b7          	lui	a5,0x10001
 1000f98:	078e                	slli	a5,a5,0x3
 1000f9a:	32078c23          	sb	zero,824(a5) # 10001338 <__global_pointer$+0xeffcd98>
 1000f9e:	66078823          	sb	zero,1648(a5)
    }
}
 1000fa2:	8082                	ret

0000000001000fa4 <sha256_transform>:
	0x748f82ee,0x78a5636f,0x84c87814,0x8cc70208,0x90befffa,0xa4506ceb,0xbef9a3f7,0xc67178f2
};

/*********************** FUNCTION DEFINITIONS ***********************/
void sha256_transform(SHA256_CTX *ctx, const BYTE data[])
{
 1000fa4:	7109                	addi	sp,sp,-384
 1000fa6:	02010e13          	addi	t3,sp,32
 1000faa:	e6da                	sd	s6,328(sp)
 1000fac:	fea2                	sd	s0,376(sp)
 1000fae:	faa6                	sd	s1,368(sp)
 1000fb0:	f6ca                	sd	s2,360(sp)
 1000fb2:	f2ce                	sd	s3,352(sp)
 1000fb4:	eed2                	sd	s4,344(sp)
 1000fb6:	ead6                	sd	s5,336(sp)
 1000fb8:	e2de                	sd	s7,320(sp)
 1000fba:	fe62                	sd	s8,312(sp)
 1000fbc:	fa66                	sd	s9,304(sp)
 1000fbe:	f66a                	sd	s10,296(sp)
 1000fc0:	f26e                	sd	s11,288(sp)
 1000fc2:	8b2a                	mv	s6,a0
	WORD a, b, c, d, e, f, g, h, i, j, t1, t2, m[64];

	for (i = 0, j = 0; i < 16; ++i, j += 4)
 1000fc4:	06010813          	addi	a6,sp,96
{
 1000fc8:	8772                	mv	a4,t3
		m[i] = (data[j] << 24) | (data[j + 1] << 16) | (data[j + 2] << 8) | (data[j + 3]);
 1000fca:	0005c783          	lbu	a5,0(a1)
 1000fce:	0015c603          	lbu	a2,1(a1)
 1000fd2:	0035c503          	lbu	a0,3(a1)
 1000fd6:	0025c683          	lbu	a3,2(a1)
 1000fda:	0187979b          	slliw	a5,a5,0x18
 1000fde:	0106161b          	slliw	a2,a2,0x10
 1000fe2:	8fd1                	or	a5,a5,a2
 1000fe4:	8fc9                	or	a5,a5,a0
 1000fe6:	0086969b          	slliw	a3,a3,0x8
 1000fea:	8fd5                	or	a5,a5,a3
 1000fec:	c31c                	sw	a5,0(a4)
	for (i = 0, j = 0; i < 16; ++i, j += 4)
 1000fee:	0711                	addi	a4,a4,4
 1000ff0:	0591                	addi	a1,a1,4
 1000ff2:	fce81ce3          	bne	a6,a4,1000fca <sha256_transform+0x26>
 1000ff6:	0c0e0f93          	addi	t6,t3,192
 1000ffa:	87f2                	mv	a5,t3
	for ( ; i < 64; ++i)
		m[i] = SIG1(m[i - 2]) + m[i - 7] + SIG0(m[i - 15]) + m[i - 16];
 1000ffc:	5f88                	lw	a0,56(a5)
 1000ffe:	43d0                	lw	a2,4(a5)
 1001000:	53d8                	lw	a4,36(a5)
 1001002:	0115581b          	srliw	a6,a0,0x11
 1001006:	0135569b          	srliw	a3,a0,0x13
 100100a:	0007a303          	lw	t1,0(a5)
 100100e:	00f5159b          	slliw	a1,a0,0xf
 1001012:	00d5189b          	slliw	a7,a0,0xd
 1001016:	0105e5b3          	or	a1,a1,a6
 100101a:	00d8e8b3          	or	a7,a7,a3
 100101e:	01961f1b          	slliw	t5,a2,0x19
 1001022:	0076569b          	srliw	a3,a2,0x7
 1001026:	00e6181b          	slliw	a6,a2,0xe
 100102a:	01265e9b          	srliw	t4,a2,0x12
 100102e:	0115c5b3          	xor	a1,a1,a7
 1001032:	00a5551b          	srliw	a0,a0,0xa
 1001036:	01e6e6b3          	or	a3,a3,t5
 100103a:	01d86833          	or	a6,a6,t4
 100103e:	8da9                	xor	a1,a1,a0
 1001040:	0067073b          	addw	a4,a4,t1
 1001044:	0106c6b3          	xor	a3,a3,a6
 1001048:	0036561b          	srliw	a2,a2,0x3
 100104c:	9f2d                	addw	a4,a4,a1
 100104e:	8eb1                	xor	a3,a3,a2
 1001050:	9f35                	addw	a4,a4,a3
 1001052:	c3b8                	sw	a4,64(a5)
	for ( ; i < 64; ++i)
 1001054:	0791                	addi	a5,a5,4
 1001056:	faff93e3          	bne	t6,a5,1000ffc <sha256_transform+0x58>
	c = ctx->state[2];
	d = ctx->state[3];
	e = ctx->state[4];
	f = ctx->state[5];
	g = ctx->state[6];
	h = ctx->state[7];
 100105a:	06cb2783          	lw	a5,108(s6)
	a = ctx->state[0];
 100105e:	050b2d83          	lw	s11,80(s6)
	b = ctx->state[1];
 1001062:	054b2d03          	lw	s10,84(s6)
	c = ctx->state[2];
 1001066:	058b2c83          	lw	s9,88(s6)
	d = ctx->state[3];
 100106a:	05cb2c03          	lw	s8,92(s6)
	e = ctx->state[4];
 100106e:	060b2b83          	lw	s7,96(s6)
	f = ctx->state[5];
 1001072:	064b2403          	lw	s0,100(s6)
	g = ctx->state[6];
 1001076:	068b2503          	lw	a0,104(s6)
	h = ctx->state[7];
 100107a:	428a3937          	lui	s2,0x428a3
	f = ctx->state[5];
 100107e:	e422                	sd	s0,8(sp)
	g = ctx->state[6];
 1001080:	e82a                	sd	a0,16(sp)
	h = ctx->state[7];
 1001082:	ec3e                	sd	a5,24(sp)

	for (i = 0; i < 64; ++i) {
 1001084:	ab418493          	addi	s1,gp,-1356 # 1004054 <k+0x4>
 1001088:	100e0a93          	addi	s5,t3,256
	h = ctx->state[7];
 100108c:	8a3e                	mv	s4,a5
	e = ctx->state[4];
 100108e:	86de                	mv	a3,s7
	d = ctx->state[3];
 1001090:	89e2                	mv	s3,s8
	c = ctx->state[2];
 1001092:	8ee6                	mv	t4,s9
	b = ctx->state[1];
 1001094:	8f6a                	mv	t5,s10
	a = ctx->state[0];
 1001096:	85ee                	mv	a1,s11
	h = ctx->state[7];
 1001098:	f9890913          	addi	s2,s2,-104 # 428a2f98 <__global_pointer$+0x4189e9f8>
 100109c:	a821                	j	10010b4 <sha256_transform+0x110>
 100109e:	0004a903          	lw	s2,0(s1)
	for (i = 0; i < 64; ++i) {
 10010a2:	8a2a                	mv	s4,a0
 10010a4:	89f6                	mv	s3,t4
 10010a6:	8522                	mv	a0,s0
 10010a8:	8efa                	mv	t4,t5
 10010aa:	8436                	mv	s0,a3
 10010ac:	8f2e                	mv	t5,a1
 10010ae:	0491                	addi	s1,s1,4
		t1 = h + EP1(e) + CH(e,f,g) + k[i] + m[i];
		t2 = EP0(a) + MAJ(a,b,c);
		h = g;
		g = f;
		f = e;
		e = d + t1;
 10010b0:	86ba                	mv	a3,a4
		d = c;
		c = b;
		b = a;
		a = t1 + t2;
 10010b2:	85be                	mv	a1,a5
		t1 = h + EP1(e) + CH(e,f,g) + k[i] + m[i];
 10010b4:	0066d29b          	srliw	t0,a3,0x6
 10010b8:	01a6981b          	slliw	a6,a3,0x1a
 10010bc:	0156989b          	slliw	a7,a3,0x15
 10010c0:	8f96                	mv	t6,t0
 10010c2:	00b6d71b          	srliw	a4,a3,0xb
 10010c6:	010fe2b3          	or	t0,t6,a6
 10010ca:	01176733          	or	a4,a4,a7
 10010ce:	0196d31b          	srliw	t1,a3,0x19
 10010d2:	fff6c793          	not	a5,a3
 10010d6:	0076961b          	slliw	a2,a3,0x7
 10010da:	00e2c833          	xor	a6,t0,a4
 10010de:	0086ffb3          	and	t6,a3,s0
 10010e2:	00a7f8b3          	and	a7,a5,a0
 10010e6:	00666633          	or	a2,a2,t1
 10010ea:	00c84633          	xor	a2,a6,a2
 10010ee:	01f8c7b3          	xor	a5,a7,t6
 10010f2:	9fb1                	addw	a5,a5,a2
 10010f4:	000e2603          	lw	a2,0(t3)
		t2 = EP0(a) + MAJ(a,b,c);
 10010f8:	0135929b          	slliw	t0,a1,0x13
 10010fc:	0025d39b          	srliw	t2,a1,0x2
 1001100:	01e5931b          	slliw	t1,a1,0x1e
 1001104:	00d5d71b          	srliw	a4,a1,0xd
 1001108:	00576733          	or	a4,a4,t0
 100110c:	01df4833          	xor	a6,t5,t4
 1001110:	00a5989b          	slliw	a7,a1,0xa
 1001114:	0165df9b          	srliw	t6,a1,0x16
 1001118:	0063e3b3          	or	t2,t2,t1
 100111c:	00e3c3b3          	xor	t2,t2,a4
 1001120:	01df72b3          	and	t0,t5,t4
 1001124:	0105f833          	and	a6,a1,a6
		t1 = h + EP1(e) + CH(e,f,g) + k[i] + m[i];
 1001128:	9fb1                	addw	a5,a5,a2
		t2 = EP0(a) + MAJ(a,b,c);
 100112a:	01f8e8b3          	or	a7,a7,t6
		t1 = h + EP1(e) + CH(e,f,g) + k[i] + m[i];
 100112e:	014787bb          	addw	a5,a5,s4
		t2 = EP0(a) + MAJ(a,b,c);
 1001132:	0113c3b3          	xor	t2,t2,a7
 1001136:	00584833          	xor	a6,a6,t0
		t1 = h + EP1(e) + CH(e,f,g) + k[i] + m[i];
 100113a:	0127893b          	addw	s2,a5,s2
		t2 = EP0(a) + MAJ(a,b,c);
 100113e:	0e11                	addi	t3,t3,4
 1001140:	010387bb          	addw	a5,t2,a6
		e = d + t1;
 1001144:	0139073b          	addw	a4,s2,s3
		a = t1 + t2;
 1001148:	00f907bb          	addw	a5,s2,a5
	for (i = 0; i < 64; ++i) {
 100114c:	f5ca99e3          	bne	s5,t3,100109e <sha256_transform+0xfa>
	ctx->state[0] += a;
	ctx->state[1] += b;
	ctx->state[2] += c;
	ctx->state[3] += d;
	ctx->state[4] += e;
	ctx->state[5] += f;
 1001150:	6622                	ld	a2,8(sp)
	ctx->state[0] += a;
 1001152:	00fd87bb          	addw	a5,s11,a5
	ctx->state[1] += b;
 1001156:	00bd05bb          	addw	a1,s10,a1
	ctx->state[5] += f;
 100115a:	9eb1                	addw	a3,a3,a2
	ctx->state[6] += g;
 100115c:	6642                	ld	a2,16(sp)
	ctx->state[2] += c;
 100115e:	01ec8f3b          	addw	t5,s9,t5
	ctx->state[3] += d;
 1001162:	01dc0ebb          	addw	t4,s8,t4
	ctx->state[6] += g;
 1001166:	9c31                	addw	s0,s0,a2
	ctx->state[7] += h;
 1001168:	6662                	ld	a2,24(sp)
	ctx->state[6] += g;
 100116a:	068b2423          	sw	s0,104(s6)
}
 100116e:	7476                	ld	s0,376(sp)
	ctx->state[4] += e;
 1001170:	00eb873b          	addw	a4,s7,a4
	ctx->state[7] += h;
 1001174:	9d31                	addw	a0,a0,a2
	ctx->state[0] += a;
 1001176:	04fb2823          	sw	a5,80(s6)
	ctx->state[1] += b;
 100117a:	04bb2a23          	sw	a1,84(s6)
	ctx->state[2] += c;
 100117e:	05eb2c23          	sw	t5,88(s6)
	ctx->state[3] += d;
 1001182:	05db2e23          	sw	t4,92(s6)
	ctx->state[4] += e;
 1001186:	06eb2023          	sw	a4,96(s6)
	ctx->state[5] += f;
 100118a:	06db2223          	sw	a3,100(s6)
	ctx->state[7] += h;
 100118e:	06ab2623          	sw	a0,108(s6)
}
 1001192:	74d6                	ld	s1,368(sp)
 1001194:	7936                	ld	s2,360(sp)
 1001196:	7996                	ld	s3,352(sp)
 1001198:	6a76                	ld	s4,344(sp)
 100119a:	6ad6                	ld	s5,336(sp)
 100119c:	6b36                	ld	s6,328(sp)
 100119e:	6b96                	ld	s7,320(sp)
 10011a0:	7c72                	ld	s8,312(sp)
 10011a2:	7cd2                	ld	s9,304(sp)
 10011a4:	7d32                	ld	s10,296(sp)
 10011a6:	7d92                	ld	s11,288(sp)
 10011a8:	6119                	addi	sp,sp,384
 10011aa:	8082                	ret

00000000010011ac <sha256_init>:

void sha256_init(SHA256_CTX *ctx)
{
	ctx->datalen = 0;
	ctx->bitlen = 0;
	ctx->state[0] = 0x6a09e667;
 10011ac:	00003797          	auipc	a5,0x3
 10011b0:	c147b783          	ld	a5,-1004(a5) # 1003dc0 <main+0x200>
 10011b4:	e93c                	sd	a5,80(a0)
	ctx->state[1] = 0xbb67ae85;
	ctx->state[2] = 0x3c6ef372;
 10011b6:	00003797          	auipc	a5,0x3
 10011ba:	c127b783          	ld	a5,-1006(a5) # 1003dc8 <main+0x208>
 10011be:	ed3c                	sd	a5,88(a0)
	ctx->state[3] = 0xa54ff53a;
	ctx->state[4] = 0x510e527f;
 10011c0:	00003797          	auipc	a5,0x3
 10011c4:	c107b783          	ld	a5,-1008(a5) # 1003dd0 <main+0x210>
 10011c8:	f13c                	sd	a5,96(a0)
	ctx->state[5] = 0x9b05688c;
	ctx->state[6] = 0x1f83d9ab;
 10011ca:	00003797          	auipc	a5,0x3
 10011ce:	c0e7b783          	ld	a5,-1010(a5) # 1003dd8 <main+0x218>
	ctx->datalen = 0;
 10011d2:	04052023          	sw	zero,64(a0)
	ctx->bitlen = 0;
 10011d6:	04053423          	sd	zero,72(a0)
	ctx->state[6] = 0x1f83d9ab;
 10011da:	f53c                	sd	a5,104(a0)
	ctx->state[7] = 0x5be0cd19;
}
 10011dc:	8082                	ret

00000000010011de <sha256_update>:
	WORD i;

  //for(int j = 0; j<=i-1;j++)
  //  printf("%x ", ctx->data[j]);
  //printf("\n");
	for (i = 0; i < len; ++i) {
 10011de:	c63d                	beqz	a2,100124c <sha256_update+0x6e>
{
 10011e0:	7179                	addi	sp,sp,-48
 10011e2:	e84a                	sd	s2,16(sp)
 10011e4:	fff6091b          	addiw	s2,a2,-1
 10011e8:	1902                	slli	s2,s2,0x20
 10011ea:	02095913          	srli	s2,s2,0x20
 10011ee:	00158793          	addi	a5,a1,1
 10011f2:	f022                	sd	s0,32(sp)
 10011f4:	ec26                	sd	s1,24(sp)
 10011f6:	e44e                	sd	s3,8(sp)
 10011f8:	f406                	sd	ra,40(sp)
 10011fa:	84aa                	mv	s1,a0
 10011fc:	842e                	mv	s0,a1
 10011fe:	993e                	add	s2,s2,a5
		ctx->data[ctx->datalen] = data[i];
		ctx->datalen++;
		if (ctx->datalen == 64) {
 1001200:	04000993          	li	s3,64
		ctx->data[ctx->datalen] = data[i];
 1001204:	40bc                	lw	a5,64(s1)
 1001206:	00044683          	lbu	a3,0(s0)
 100120a:	0405                	addi	s0,s0,1
 100120c:	02079713          	slli	a4,a5,0x20
 1001210:	9301                	srli	a4,a4,0x20
 1001212:	9726                	add	a4,a4,s1
 1001214:	00d70023          	sb	a3,0(a4)
		ctx->datalen++;
 1001218:	2785                	addiw	a5,a5,1
 100121a:	c0bc                	sw	a5,64(s1)
		if (ctx->datalen == 64) {
 100121c:	01378b63          	beq	a5,s3,1001232 <sha256_update+0x54>
	for (i = 0; i < len; ++i) {
 1001220:	ff2412e3          	bne	s0,s2,1001204 <sha256_update+0x26>
			sha256_transform(ctx, ctx->data);
			ctx->bitlen += 512;
			ctx->datalen = 0;
		}
	}
}
 1001224:	70a2                	ld	ra,40(sp)
 1001226:	7402                	ld	s0,32(sp)
 1001228:	64e2                	ld	s1,24(sp)
 100122a:	6942                	ld	s2,16(sp)
 100122c:	69a2                	ld	s3,8(sp)
 100122e:	6145                	addi	sp,sp,48
 1001230:	8082                	ret
			sha256_transform(ctx, ctx->data);
 1001232:	85a6                	mv	a1,s1
 1001234:	8526                	mv	a0,s1
 1001236:	d6fff0ef          	jal	ra,1000fa4 <sha256_transform>
			ctx->bitlen += 512;
 100123a:	64bc                	ld	a5,72(s1)
			ctx->datalen = 0;
 100123c:	0404a023          	sw	zero,64(s1)
			ctx->bitlen += 512;
 1001240:	20078793          	addi	a5,a5,512
 1001244:	e4bc                	sd	a5,72(s1)
	for (i = 0; i < len; ++i) {
 1001246:	fb241fe3          	bne	s0,s2,1001204 <sha256_update+0x26>
 100124a:	bfe9                	j	1001224 <sha256_update+0x46>
 100124c:	8082                	ret

000000000100124e <sha256_final>:

void sha256_final(SHA256_CTX *ctx, BYTE hash[])
{
	WORD i;

	i = ctx->datalen;
 100124e:	4138                	lw	a4,64(a0)
{
 1001250:	1101                	addi	sp,sp,-32
 1001252:	e822                	sd	s0,16(sp)
 1001254:	e426                	sd	s1,8(sp)
 1001256:	0017079b          	addiw	a5,a4,1
 100125a:	ec06                	sd	ra,24(sp)
  //for(int j = 0; j<=i-1;j++)
    //printf("%x ", ctx->data[j]);
  //printf("\n");

	// Pad whatever data is left in the buffer.
	if (ctx->datalen < 56) {
 100125c:	03700613          	li	a2,55
{
 1001260:	842a                	mv	s0,a0
 1001262:	84ae                	mv	s1,a1
 1001264:	0007869b          	sext.w	a3,a5
	if (ctx->datalen < 56) {
 1001268:	02e66b63          	bltu	a2,a4,100129e <sha256_final+0x50>
		ctx->data[i++] = 0x80;
 100126c:	02071793          	slli	a5,a4,0x20
 1001270:	9381                	srli	a5,a5,0x20
 1001272:	97aa                	add	a5,a5,a0
 1001274:	f8000613          	li	a2,-128
 1001278:	00c78023          	sb	a2,0(a5)
		while (i < 56)
 100127c:	03800793          	li	a5,56
 1001280:	12f68963          	beq	a3,a5,10013b2 <sha256_final+0x164>
 1001284:	03800613          	li	a2,56
			ctx->data[i++] = 0x00;
 1001288:	0006879b          	sext.w	a5,a3
 100128c:	1782                	slli	a5,a5,0x20
 100128e:	9381                	srli	a5,a5,0x20
 1001290:	97a2                	add	a5,a5,s0
 1001292:	2685                	addiw	a3,a3,1
 1001294:	00078023          	sb	zero,0(a5)
		while (i < 56)
 1001298:	fec698e3          	bne	a3,a2,1001288 <sha256_final+0x3a>
 100129c:	a899                	j	10012f2 <sha256_final+0xa4>
	}
	else {
		ctx->data[i++] = 0x80;
 100129e:	02071613          	slli	a2,a4,0x20
 10012a2:	9201                	srli	a2,a2,0x20
 10012a4:	962a                	add	a2,a2,a0
 10012a6:	f8000593          	li	a1,-128
 10012aa:	00b60023          	sb	a1,0(a2)
		while (i < 64)
 10012ae:	03f00613          	li	a2,63
 10012b2:	02d66563          	bltu	a2,a3,10012dc <sha256_final+0x8e>
 10012b6:	1782                	slli	a5,a5,0x20
 10012b8:	03e00613          	li	a2,62
 10012bc:	9381                	srli	a5,a5,0x20
 10012be:	00150693          	addi	a3,a0,1
 10012c2:	9e19                	subw	a2,a2,a4
 10012c4:	00f68733          	add	a4,a3,a5
 10012c8:	02061693          	slli	a3,a2,0x20
 10012cc:	9281                	srli	a3,a3,0x20
 10012ce:	97aa                	add	a5,a5,a0
 10012d0:	9736                	add	a4,a4,a3
			ctx->data[i++] = 0x00;
 10012d2:	00078023          	sb	zero,0(a5)
		while (i < 64)
 10012d6:	0785                	addi	a5,a5,1
 10012d8:	fef71de3          	bne	a4,a5,10012d2 <sha256_final+0x84>
		sha256_transform(ctx, ctx->data);
 10012dc:	85a2                	mv	a1,s0
 10012de:	8522                	mv	a0,s0
 10012e0:	cc5ff0ef          	jal	ra,1000fa4 <sha256_transform>
		memset(ctx->data, 0, 56);
 10012e4:	03800613          	li	a2,56
 10012e8:	4581                	li	a1,0
 10012ea:	8522                	mv	a0,s0
 10012ec:	71c020ef          	jal	ra,1003a08 <memset>
 10012f0:	4038                	lw	a4,64(s0)
	}

	// Append to the padding the total message's length in bits and transform.
	ctx->bitlen += ctx->datalen * 8;
 10012f2:	6434                	ld	a3,72(s0)
 10012f4:	0037179b          	slliw	a5,a4,0x3
 10012f8:	1782                	slli	a5,a5,0x20
 10012fa:	9381                	srli	a5,a5,0x20
 10012fc:	97b6                	add	a5,a5,a3
	ctx->data[63] = ctx->bitlen;
	ctx->data[62] = ctx->bitlen >> 8;
 10012fe:	0087d693          	srli	a3,a5,0x8
 1001302:	00879713          	slli	a4,a5,0x8
 1001306:	0ff6f693          	andi	a3,a3,255
	ctx->data[61] = ctx->bitlen >> 16;
	ctx->data[60] = ctx->bitlen >> 24;
	ctx->data[59] = ctx->bitlen >> 32;
 100130a:	0207d513          	srli	a0,a5,0x20
	ctx->data[58] = ctx->bitlen >> 40;
 100130e:	0287d593          	srli	a1,a5,0x28
	ctx->data[62] = ctx->bitlen >> 8;
 1001312:	8f55                	or	a4,a4,a3
	ctx->data[61] = ctx->bitlen >> 16;
 1001314:	0107d893          	srli	a7,a5,0x10
	ctx->data[57] = ctx->bitlen >> 48;
	ctx->data[56] = ctx->bitlen >> 56;
 1001318:	0387d693          	srli	a3,a5,0x38
	ctx->data[60] = ctx->bitlen >> 24;
 100131c:	0187d813          	srli	a6,a5,0x18
	ctx->data[57] = ctx->bitlen >> 48;
 1001320:	0307d613          	srli	a2,a5,0x30
	ctx->bitlen += ctx->datalen * 8;
 1001324:	e43c                	sd	a5,72(s0)
	ctx->data[59] = ctx->bitlen >> 32;
 1001326:	02a40da3          	sb	a0,59(s0)
	ctx->data[58] = ctx->bitlen >> 40;
 100132a:	02b40d23          	sb	a1,58(s0)
	ctx->data[56] = ctx->bitlen >> 56;
 100132e:	02d40c23          	sb	a3,56(s0)
  //for(int j = 0; j<=63;j++)
    //printf("%x ", ctx->data[j]);
  //printf("\n");
	sha256_transform(ctx, ctx->data);
 1001332:	85a2                	mv	a1,s0
	ctx->data[62] = ctx->bitlen >> 8;
 1001334:	02e41f23          	sh	a4,62(s0)
	ctx->data[61] = ctx->bitlen >> 16;
 1001338:	03140ea3          	sb	a7,61(s0)
	ctx->data[60] = ctx->bitlen >> 24;
 100133c:	03040e23          	sb	a6,60(s0)
	ctx->data[57] = ctx->bitlen >> 48;
 1001340:	02c40ca3          	sb	a2,57(s0)
	sha256_transform(ctx, ctx->data);
 1001344:	8522                	mv	a0,s0
 1001346:	c5fff0ef          	jal	ra,1000fa4 <sha256_transform>

	// Since this implementation uses little endian byte ordering and SHA uses big endian,
	// reverse all the bytes when copying the final state to the output hash.
	for (i = 0; i < 4; ++i) {
 100134a:	85a6                	mv	a1,s1
	sha256_transform(ctx, ctx->data);
 100134c:	47e1                	li	a5,24
	for (i = 0; i < 4; ++i) {
 100134e:	56e1                	li	a3,-8
		hash[i]      = (ctx->state[0] >> (24 - i * 8)) & 0x000000ff;
 1001350:	4838                	lw	a4,80(s0)
 1001352:	0585                	addi	a1,a1,1
 1001354:	00f7573b          	srlw	a4,a4,a5
 1001358:	fee58fa3          	sb	a4,-1(a1)
		hash[i + 4]  = (ctx->state[1] >> (24 - i * 8)) & 0x000000ff;
 100135c:	4878                	lw	a4,84(s0)
 100135e:	00f7573b          	srlw	a4,a4,a5
 1001362:	00e581a3          	sb	a4,3(a1)
		hash[i + 8]  = (ctx->state[2] >> (24 - i * 8)) & 0x000000ff;
 1001366:	4c38                	lw	a4,88(s0)
 1001368:	00f7573b          	srlw	a4,a4,a5
 100136c:	00e583a3          	sb	a4,7(a1)
		hash[i + 12] = (ctx->state[3] >> (24 - i * 8)) & 0x000000ff;
 1001370:	4c78                	lw	a4,92(s0)
 1001372:	00f7573b          	srlw	a4,a4,a5
 1001376:	00e585a3          	sb	a4,11(a1)
		hash[i + 16] = (ctx->state[4] >> (24 - i * 8)) & 0x000000ff;
 100137a:	5038                	lw	a4,96(s0)
 100137c:	00f7573b          	srlw	a4,a4,a5
 1001380:	00e587a3          	sb	a4,15(a1)
		hash[i + 20] = (ctx->state[5] >> (24 - i * 8)) & 0x000000ff;
 1001384:	5078                	lw	a4,100(s0)
 1001386:	00f7573b          	srlw	a4,a4,a5
 100138a:	00e589a3          	sb	a4,19(a1)
		hash[i + 24] = (ctx->state[6] >> (24 - i * 8)) & 0x000000ff;
 100138e:	5438                	lw	a4,104(s0)
 1001390:	00f7573b          	srlw	a4,a4,a5
 1001394:	00e58ba3          	sb	a4,23(a1)
		hash[i + 28] = (ctx->state[7] >> (24 - i * 8)) & 0x000000ff;
 1001398:	5478                	lw	a4,108(s0)
 100139a:	00f7573b          	srlw	a4,a4,a5
 100139e:	00e58da3          	sb	a4,27(a1)
	for (i = 0; i < 4; ++i) {
 10013a2:	37e1                	addiw	a5,a5,-8
 10013a4:	fad796e3          	bne	a5,a3,1001350 <sha256_final+0x102>
	}
}
 10013a8:	60e2                	ld	ra,24(sp)
 10013aa:	6442                	ld	s0,16(sp)
 10013ac:	64a2                	ld	s1,8(sp)
 10013ae:	6105                	addi	sp,sp,32
 10013b0:	8082                	ret
		while (i < 56)
 10013b2:	03700713          	li	a4,55
 10013b6:	bf35                	j	10012f2 <sha256_final+0xa4>

00000000010013b8 <BN_cmp_abs>:
 * If X == Y return 0
 * If X < Y return -1
 * If X > Y return 1
 */
static int BN_cmp_abs( bignum_t *X, bignum_t *Y )
{
 10013b8:	882a                	mv	a6,a0
 10013ba:	10850713          	addi	a4,a0,264
 10013be:	02100793          	li	a5,33
 10013c2:	a019                	j	10013c8 <BN_cmp_abs+0x10>
 10013c4:	17fd                	addi	a5,a5,-1
    size_t i, j;

    for( i = MAX_DIGITS; i > 0; i-- )
 10013c6:	c781                	beqz	a5,10013ce <BN_cmp_abs+0x16>
        if( X->digits[i - 1] != 0 )
 10013c8:	6314                	ld	a3,0(a4)
 10013ca:	1761                	addi	a4,a4,-8
 10013cc:	dee5                	beqz	a3,10013c4 <BN_cmp_abs+0xc>
            break;

    for( j = MAX_DIGITS; j > 0; j-- )
 10013ce:	10858713          	addi	a4,a1,264
{
 10013d2:	02100693          	li	a3,33
 10013d6:	a019                	j	10013dc <BN_cmp_abs+0x24>
 10013d8:	16fd                	addi	a3,a3,-1
    for( j = MAX_DIGITS; j > 0; j-- )
 10013da:	ca95                	beqz	a3,100140e <BN_cmp_abs+0x56>
        if( Y->digits[j - 1] != 0 )
 10013dc:	6310                	ld	a2,0(a4)
 10013de:	1761                	addi	a4,a4,-8
 10013e0:	de65                	beqz	a2,10013d8 <BN_cmp_abs+0x20>
            break;

    if( i == 0 && j == 0 )
        return( 0 );

    if( i > j ) return(  1 );
 10013e2:	4505                	li	a0,1
 10013e4:	02f6e463          	bltu	a3,a5,100140c <BN_cmp_abs+0x54>
    if( j > i ) return( -1 );
 10013e8:	557d                	li	a0,-1
 10013ea:	02d7e163          	bltu	a5,a3,100140c <BN_cmp_abs+0x54>
 10013ee:	078e                	slli	a5,a5,0x3
 10013f0:	00f80733          	add	a4,a6,a5
 10013f4:	97ae                	add	a5,a5,a1

    for( ; i > 0; i-- )
 10013f6:	00e80f63          	beq	a6,a4,1001414 <BN_cmp_abs+0x5c>
    {
        if( X->digits[i - 1] > Y->digits[i - 1] ) return(  1 );
 10013fa:	6310                	ld	a2,0(a4)
 10013fc:	6394                	ld	a3,0(a5)
 10013fe:	1761                	addi	a4,a4,-8
 1001400:	17e1                	addi	a5,a5,-8
 1001402:	00c6eb63          	bltu	a3,a2,1001418 <BN_cmp_abs+0x60>
        if( X->digits[i - 1] < Y->digits[i - 1] ) return( -1 );
 1001406:	fed678e3          	bgeu	a2,a3,10013f6 <BN_cmp_abs+0x3e>
    if( j > i ) return( -1 );
 100140a:	557d                	li	a0,-1
    }

    return( 0 );
}
 100140c:	8082                	ret
        return( 0 );
 100140e:	4501                	li	a0,0
    if( i == 0 && j == 0 )
 1001410:	fbe9                	bnez	a5,10013e2 <BN_cmp_abs+0x2a>
}
 1001412:	8082                	ret
        return( 0 );
 1001414:	4501                	li	a0,0
 1001416:	8082                	ret
    if( i > j ) return(  1 );
 1001418:	4505                	li	a0,1
 100141a:	8082                	ret

000000000100141c <BN_sub_hlp>:
static void BN_sub_hlp( size_t n, word *s, word *d )
{
	size_t i;
	word c, z;

	for( i = c = 0; i < n; i++, s++, d++ )
 100141c:	c921                	beqz	a0,100146c <BN_sub_hlp+0x50>
 100141e:	00351313          	slli	t1,a0,0x3
 1001422:	006588b3          	add	a7,a1,t1
 1001426:	86b2                	mv	a3,a2
 1001428:	4781                	li	a5,0
	{
		z = ( *d <  c );     *d -=  c;
 100142a:	0006b803          	ld	a6,0(a3)
	for( i = c = 0; i < n; i++, s++, d++ )
 100142e:	06a1                	addi	a3,a3,8
 1001430:	05a1                	addi	a1,a1,8
		z = ( *d <  c );     *d -=  c;
 1001432:	40f80733          	sub	a4,a6,a5
 1001436:	fee6bc23          	sd	a4,-8(a3)
		c = ( *d < *s ) + z; *d -= *s;
 100143a:	ff85b503          	ld	a0,-8(a1)
		z = ( *d <  c );     *d -=  c;
 100143e:	00f837b3          	sltu	a5,a6,a5
		c = ( *d < *s ) + z; *d -= *s;
 1001442:	40a70833          	sub	a6,a4,a0
 1001446:	ff06bc23          	sd	a6,-8(a3)
 100144a:	00a73733          	sltu	a4,a4,a0
 100144e:	97ba                	add	a5,a5,a4
	for( i = c = 0; i < n; i++, s++, d++ )
 1001450:	fd159de3          	bne	a1,a7,100142a <BN_sub_hlp+0xe>
 1001454:	961a                	add	a2,a2,t1
	}

	while( c != 0 )
 1001456:	e399                	bnez	a5,100145c <BN_sub_hlp+0x40>
 1001458:	a819                	j	100146e <BN_sub_hlp+0x52>
	{
		z = ( *d < c ); *d -= c;
		c = z; i++; d++;
 100145a:	4785                	li	a5,1
		z = ( *d < c ); *d -= c;
 100145c:	6218                	ld	a4,0(a2)
		c = z; i++; d++;
 100145e:	0621                	addi	a2,a2,8
		z = ( *d < c ); *d -= c;
 1001460:	40f706b3          	sub	a3,a4,a5
 1001464:	fed63c23          	sd	a3,-8(a2)
	while( c != 0 )
 1001468:	fef769e3          	bltu	a4,a5,100145a <BN_sub_hlp+0x3e>
	}
}
 100146c:	8082                	ret
 100146e:	8082                	ret

0000000001001470 <BN_init.part.0>:
    for(i=0;i<MAX_DIGITS;i++)
 1001470:	00850793          	addi	a5,a0,8
 1001474:	11050713          	addi	a4,a0,272
	X->digits[i]=0;
 1001478:	0007b023          	sd	zero,0(a5)
    for(i=0;i<MAX_DIGITS;i++)
 100147c:	07a1                	addi	a5,a5,8
 100147e:	fee79de3          	bne	a5,a4,1001478 <BN_init.part.0+0x8>
}
 1001482:	8082                	ret

0000000001001484 <BN_add_abs>:
{
 1001484:	1101                	addi	sp,sp,-32
 1001486:	e426                	sd	s1,8(sp)
 1001488:	e04a                	sd	s2,0(sp)
 100148a:	ec06                	sd	ra,24(sp)
 100148c:	e822                	sd	s0,16(sp)
 100148e:	892a                	mv	s2,a0
 1001490:	84b2                	mv	s1,a2
    if( X != A )
 1001492:	02b50563          	beq	a0,a1,10014bc <BN_add_abs+0x38>
 1001496:	842e                	mv	s0,a1
    if( X == NULL )
 1001498:	c509                	beqz	a0,10014a2 <BN_add_abs+0x1e>
    X->sign = 1;
 100149a:	4785                	li	a5,1
 100149c:	c11c                	sw	a5,0(a0)
    for(i=0;i<MAX_DIGITS;i++)
 100149e:	fd3ff0ef          	jal	ra,1001470 <BN_init.part.0>
 10014a2:	00840793          	addi	a5,s0,8
 10014a6:	00890713          	addi	a4,s2,8
 10014aa:	11040593          	addi	a1,s0,272
	X->digits[i]=Y->digits[i];
 10014ae:	6394                	ld	a3,0(a5)
 10014b0:	07a1                	addi	a5,a5,8
 10014b2:	0721                	addi	a4,a4,8
 10014b4:	fed73c23          	sd	a3,-8(a4)
    for(i=0;i<MAX_DIGITS;i++)
 10014b8:	feb79be3          	bne	a5,a1,10014ae <BN_add_abs+0x2a>
    X->sign = 1;
 10014bc:	4785                	li	a5,1
 10014be:	00f92023          	sw	a5,0(s2)
 10014c2:	02100693          	li	a3,33
 10014c6:	10848793          	addi	a5,s1,264
 10014ca:	a019                	j	10014d0 <BN_add_abs+0x4c>
 10014cc:	16fd                	addi	a3,a3,-1
    for( j = MAX_DIGITS; j > 0; j-- )
 10014ce:	cabd                	beqz	a3,1001544 <BN_add_abs+0xc0>
        if( B->digits[j - 1] != 0 )
 10014d0:	6398                	ld	a4,0(a5)
 10014d2:	17e1                	addi	a5,a5,-8
 10014d4:	df65                	beqz	a4,10014cc <BN_add_abs+0x48>
    o = B->digits; p = X->digits; c = 0;
 10014d6:	00168813          	addi	a6,a3,1
 10014da:	00890e13          	addi	t3,s2,8
 10014de:	00381593          	slli	a1,a6,0x3
 10014e2:	00848513          	addi	a0,s1,8
    for( i = 0; i < j; i++, o++, p++ )
 10014e6:	00b48333          	add	t1,s1,a1
    o = B->digits; p = X->digits; c = 0;
 10014ea:	8672                	mv	a2,t3
 10014ec:	4701                	li	a4,0
        *p +=  c; c  = ( *p <  c );
 10014ee:	621c                	ld	a5,0(a2)
    for( i = 0; i < j; i++, o++, p++ )
 10014f0:	0621                	addi	a2,a2,8
 10014f2:	0521                	addi	a0,a0,8
        *p +=  c; c  = ( *p <  c );
 10014f4:	97ba                	add	a5,a5,a4
 10014f6:	fef63c23          	sd	a5,-8(a2)
        *p += *o; c += ( *p < *o );
 10014fa:	ff853883          	ld	a7,-8(a0)
        *p +=  c; c  = ( *p <  c );
 10014fe:	00e7b733          	sltu	a4,a5,a4
        *p += *o; c += ( *p < *o );
 1001502:	97c6                	add	a5,a5,a7
 1001504:	fef63c23          	sd	a5,-8(a2)
 1001508:	ff853883          	ld	a7,-8(a0)
 100150c:	0117b7b3          	sltu	a5,a5,a7
 1001510:	973e                	add	a4,a4,a5
    for( i = 0; i < j; i++, o++, p++ )
 1001512:	fc651ee3          	bne	a0,t1,10014ee <BN_add_abs+0x6a>
 1001516:	ff858793          	addi	a5,a1,-8
 100151a:	97f2                	add	a5,a5,t3
    while( c != 0 )
 100151c:	c705                	beqz	a4,1001544 <BN_add_abs+0xc0>
        if( i >= MAX_DIGITS )
 100151e:	02000593          	li	a1,32
 1001522:	a019                	j	1001528 <BN_add_abs+0xa4>
        *p += c; c = ( *p < c ); i++; p++;
 1001524:	4705                	li	a4,1
 1001526:	0805                	addi	a6,a6,1
            p = X->digits + i;
 1001528:	00369613          	slli	a2,a3,0x3
        if( i >= MAX_DIGITS )
 100152c:	00d5f463          	bgeu	a1,a3,1001534 <BN_add_abs+0xb0>
 1001530:	00ce07b3          	add	a5,t3,a2
        *p += c; c = ( *p < c ); i++; p++;
 1001534:	6390                	ld	a2,0(a5)
 1001536:	07a1                	addi	a5,a5,8
 1001538:	86c2                	mv	a3,a6
 100153a:	963a                	add	a2,a2,a4
 100153c:	fec7bc23          	sd	a2,-8(a5)
    while( c != 0 )
 1001540:	fee662e3          	bltu	a2,a4,1001524 <BN_add_abs+0xa0>
}
 1001544:	60e2                	ld	ra,24(sp)
 1001546:	6442                	ld	s0,16(sp)
 1001548:	64a2                	ld	s1,8(sp)
 100154a:	6902                	ld	s2,0(sp)
 100154c:	6105                	addi	sp,sp,32
 100154e:	8082                	ret

0000000001001550 <BN_sub_abs>:

/*
 * Unsigned subtraction: X = |A| - |B|  (HAC 14.9)
 */
static int BN_sub_abs( bignum_t *X, bignum_t *A, bignum_t *B )
{
 1001550:	7129                	addi	sp,sp,-320
 1001552:	f626                	sd	s1,296(sp)
 1001554:	f24a                	sd	s2,288(sp)
 1001556:	ea52                	sd	s4,272(sp)
 1001558:	84aa                	mv	s1,a0
 100155a:	8932                	mv	s2,a2
    X->sign = 1;
 100155c:	4a05                	li	s4,1
 100155e:	850a                	mv	a0,sp
{
 1001560:	fa22                	sd	s0,304(sp)
 1001562:	fe06                	sd	ra,312(sp)
 1001564:	ee4e                	sd	s3,280(sp)
 1001566:	842e                	mv	s0,a1
    X->sign = 1;
 1001568:	c052                	sw	s4,0(sp)
    for(i=0;i<MAX_DIGITS;i++)
 100156a:	f07ff0ef          	jal	ra,1001470 <BN_init.part.0>
    int ret;
    size_t n;

    BN_init( &TB );

    if( X == B )
 100156e:	07248463          	beq	s1,s2,10015d6 <BN_sub_abs+0x86>
    {
       BN_copy( &TB, B );
        B = &TB;
    }

    if( X != A )
 1001572:	00848993          	addi	s3,s1,8
 1001576:	02848763          	beq	s1,s0,10015a4 <BN_sub_abs+0x54>
    if( X == NULL )
 100157a:	49a1                	li	s3,8
 100157c:	c881                	beqz	s1,100158c <BN_sub_abs+0x3c>
 100157e:	00848993          	addi	s3,s1,8
    X->sign = 1;
 1001582:	4785                	li	a5,1
 1001584:	c09c                	sw	a5,0(s1)
    for(i=0;i<MAX_DIGITS;i++)
 1001586:	8526                	mv	a0,s1
 1001588:	ee9ff0ef          	jal	ra,1001470 <BN_init.part.0>
 100158c:	00840793          	addi	a5,s0,8
 1001590:	874e                	mv	a4,s3
 1001592:	11040813          	addi	a6,s0,272
	X->digits[i]=Y->digits[i];
 1001596:	6394                	ld	a3,0(a5)
 1001598:	07a1                	addi	a5,a5,8
 100159a:	0721                	addi	a4,a4,8
 100159c:	fed73c23          	sd	a3,-8(a4)
    for(i=0;i<MAX_DIGITS;i++)
 10015a0:	fef81be3          	bne	a6,a5,1001596 <BN_sub_abs+0x46>
        BN_copy( X, A );

    /*
     * X should always be positive as a result of unsigned subtractions.
     */
    X->sign = 1;
 10015a4:	4785                	li	a5,1
 10015a6:	c09c                	sw	a5,0(s1)
 10015a8:	02100513          	li	a0,33
 10015ac:	10890793          	addi	a5,s2,264
 10015b0:	a019                	j	10015b6 <BN_sub_abs+0x66>
 10015b2:	157d                	addi	a0,a0,-1

    ret = 0;

    for( n =MAX_DIGITS; n > 0; n-- )
 10015b4:	c501                	beqz	a0,10015bc <BN_sub_abs+0x6c>
        if( B->digits[n - 1] != 0 )
 10015b6:	6398                	ld	a4,0(a5)
 10015b8:	17e1                	addi	a5,a5,-8
 10015ba:	df65                	beqz	a4,10015b2 <BN_sub_abs+0x62>
            break;

    BN_sub_hlp( n, B->digits, X->digits );
 10015bc:	864e                	mv	a2,s3
 10015be:	00890593          	addi	a1,s2,8
 10015c2:	e5bff0ef          	jal	ra,100141c <BN_sub_hlp>
}
 10015c6:	70f2                	ld	ra,312(sp)
 10015c8:	7452                	ld	s0,304(sp)
 10015ca:	74b2                	ld	s1,296(sp)
 10015cc:	7912                	ld	s2,288(sp)
 10015ce:	69f2                	ld	s3,280(sp)
 10015d0:	6a52                	ld	s4,272(sp)
 10015d2:	6131                	addi	sp,sp,320
 10015d4:	8082                	ret
    X->sign = 1;
 10015d6:	850a                	mv	a0,sp
 10015d8:	00848993          	addi	s3,s1,8
 10015dc:	c052                	sw	s4,0(sp)
    for(i=0;i<MAX_DIGITS;i++)
 10015de:	e93ff0ef          	jal	ra,1001470 <BN_init.part.0>
    for(i=0;i<MAX_DIGITS;i++)
 10015e2:	874e                	mv	a4,s3
 10015e4:	003c                	addi	a5,sp,8
 10015e6:	0a0c                	addi	a1,sp,272
	X->digits[i]=Y->digits[i];
 10015e8:	6314                	ld	a3,0(a4)
 10015ea:	07a1                	addi	a5,a5,8
 10015ec:	0721                	addi	a4,a4,8
 10015ee:	fed7bc23          	sd	a3,-8(a5)
    for(i=0;i<MAX_DIGITS;i++)
 10015f2:	feb79be3          	bne	a5,a1,10015e8 <BN_sub_abs+0x98>
    X->sign = Y->sign;
 10015f6:	00092783          	lw	a5,0(s2)
        B = &TB;
 10015fa:	890a                	mv	s2,sp
    X->sign = Y->sign;
 10015fc:	c03e                	sw	a5,0(sp)
    if( X != A )
 10015fe:	f88492e3          	bne	s1,s0,1001582 <BN_sub_abs+0x32>
 1001602:	b74d                	j	10015a4 <BN_sub_abs+0x54>

0000000001001604 <BN_mul_hlp.constprop.0>:
}

/*
 * Helper function used in Montgomery multiplication.
*/
static void BN_mul_hlp( size_t i, word *s, word *d, word b )
 1001604:	56fd                	li	a3,-1
 1001606:	7159                	addi	sp,sp,-112
 1001608:	9281                	srli	a3,a3,0x20
 100160a:	e86e                	sd	s11,16(sp)
 100160c:	87ae                	mv	a5,a1
 100160e:	e42e                	sd	a1,8(sp)
{
	word c = 0, t = 0;
	for( ; i >= 16; i -= 16 )
	{
		MULADDC_INIT
 1001610:	02065713          	srli	a4,a2,0x20
static void BN_mul_hlp( size_t i, word *s, word *d, word b )
 1001614:	f4a2                	sd	s0,104(sp)
 1001616:	f0a6                	sd	s1,96(sp)
 1001618:	ecca                	sd	s2,88(sp)
 100161a:	e8ce                	sd	s3,80(sp)
 100161c:	e4d2                	sd	s4,72(sp)
 100161e:	e0d6                	sd	s5,64(sp)
 1001620:	fc5a                	sd	s6,56(sp)
 1001622:	f85e                	sd	s7,48(sp)
 1001624:	f462                	sd	s8,40(sp)
 1001626:	f066                	sd	s9,32(sp)
 1001628:	ec6a                	sd	s10,24(sp)
 100162a:	8e75                	and	a2,a2,a3
 100162c:	10050d93          	addi	s11,a0,256
	word c = 0, t = 0;
 1001630:	4581                	li	a1,0
			MULADDC_CORE   MULADDC_CORE
 1001632:	00053983          	ld	s3,0(a0)
 1001636:	0007bc03          	ld	s8,0(a5)
 100163a:	0087bb83          	ld	s7,8(a5)
 100163e:	00d9f833          	and	a6,s3,a3
 1001642:	03070433          	mul	s0,a4,a6
 1001646:	0209d993          	srli	s3,s3,0x20
			MULADDC_CORE   MULADDC_CORE
 100164a:	0107bb03          	ld	s6,16(a5)
 100164e:	0187b383          	ld	t2,24(a5)
			MULADDC_CORE   MULADDC_CORE
 1001652:	0207b283          	ld	t0,32(a5)
 1001656:	0287bf83          	ld	t6,40(a5)
			MULADDC_CORE   MULADDC_CORE
 100165a:	0307bf03          	ld	t5,48(a5)
 100165e:	0387be83          	ld	t4,56(a5)

			MULADDC_CORE   MULADDC_CORE
 1001662:	0407be03          	ld	t3,64(a5)
 1001666:	0487b303          	ld	t1,72(a5)
			MULADDC_CORE   MULADDC_CORE
 100166a:	02c984b3          	mul	s1,s3,a2
 100166e:	02041a93          	slli	s5,s0,0x20
			MULADDC_CORE   MULADDC_CORE
 1001672:	0507b883          	ld	a7,80(a5)
 1001676:	08078793          	addi	a5,a5,128
 100167a:	08050513          	addi	a0,a0,128
			MULADDC_CORE   MULADDC_CORE
 100167e:	9001                	srli	s0,s0,0x20
 1001680:	02c80833          	mul	a6,a6,a2
 1001684:	02049d13          	slli	s10,s1,0x20
 1001688:	9081                	srli	s1,s1,0x20
 100168a:	9426                	add	s0,s0,s1
 100168c:	033709b3          	mul	s3,a4,s3
 1001690:	9856                	add	a6,a6,s5
 1001692:	010d0a33          	add	s4,s10,a6
 1001696:	00ba0cb3          	add	s9,s4,a1
 100169a:	018c8933          	add	s2,s9,s8
 100169e:	f927b023          	sd	s2,-128(a5)
 10016a2:	f8853483          	ld	s1,-120(a0)
 10016a6:	01583ab3          	sltu	s5,a6,s5
 10016aa:	01893933          	sltu	s2,s2,s8
 10016ae:	00d4f833          	and	a6,s1,a3
 10016b2:	03070c33          	mul	s8,a4,a6
 10016b6:	944e                	add	s0,s0,s3
 10016b8:	9081                	srli	s1,s1,0x20
 10016ba:	9aa2                	add	s5,s5,s0
 10016bc:	01aa3a33          	sltu	s4,s4,s10
 10016c0:	00bcb5b3          	sltu	a1,s9,a1
 10016c4:	9a56                	add	s4,s4,s5
 10016c6:	9a2e                	add	s4,s4,a1
 10016c8:	9952                	add	s2,s2,s4
 10016ca:	02c48433          	mul	s0,s1,a2
 10016ce:	020c1593          	slli	a1,s8,0x20
 10016d2:	020c5993          	srli	s3,s8,0x20
 10016d6:	02c80833          	mul	a6,a6,a2
 10016da:	02041c13          	slli	s8,s0,0x20
 10016de:	9001                	srli	s0,s0,0x20
 10016e0:	99a2                	add	s3,s3,s0
 10016e2:	029704b3          	mul	s1,a4,s1
 10016e6:	982e                	add	a6,a6,a1
 10016e8:	010c0433          	add	s0,s8,a6
 10016ec:	00890d33          	add	s10,s2,s0
 10016f0:	017d0ab3          	add	s5,s10,s7
 10016f4:	f957b423          	sd	s5,-120(a5)
			MULADDC_CORE   MULADDC_CORE
 10016f8:	f9053a03          	ld	s4,-112(a0)
			MULADDC_CORE   MULADDC_CORE
 10016fc:	00b83833          	sltu	a6,a6,a1
 1001700:	01843c33          	sltu	s8,s0,s8
			MULADDC_CORE   MULADDC_CORE
 1001704:	00da7cb3          	and	s9,s4,a3
			MULADDC_CORE   MULADDC_CORE
 1001708:	94ce                	add	s1,s1,s3
 100170a:	9826                	add	a6,a6,s1
			MULADDC_CORE   MULADDC_CORE
 100170c:	03970433          	mul	s0,a4,s9
			MULADDC_CORE   MULADDC_CORE
 1001710:	9862                	add	a6,a6,s8
			MULADDC_CORE   MULADDC_CORE
 1001712:	020a5a13          	srli	s4,s4,0x20
			MULADDC_CORE   MULADDC_CORE
 1001716:	012d3d33          	sltu	s10,s10,s2
 100171a:	9d42                	add	s10,s10,a6
 100171c:	017abbb3          	sltu	s7,s5,s7
 1001720:	9bea                	add	s7,s7,s10
			MULADDC_CORE   MULADDC_CORE
 1001722:	02ca0833          	mul	a6,s4,a2
 1001726:	02041593          	slli	a1,s0,0x20
 100172a:	9001                	srli	s0,s0,0x20
 100172c:	02cc8cb3          	mul	s9,s9,a2
 1001730:	02081913          	slli	s2,a6,0x20
 1001734:	02085813          	srli	a6,a6,0x20
 1001738:	9442                	add	s0,s0,a6
 100173a:	9cae                	add	s9,s9,a1
 100173c:	03470a33          	mul	s4,a4,s4
 1001740:	01990833          	add	a6,s2,s9
 1001744:	010b8ab3          	add	s5,s7,a6
 1001748:	016a89b3          	add	s3,s5,s6
 100174c:	f937b823          	sd	s3,-112(a5)
 1001750:	f9853483          	ld	s1,-104(a0)
 1001754:	00bcbcb3          	sltu	s9,s9,a1
 1001758:	01283833          	sltu	a6,a6,s2
 100175c:	00d4f5b3          	and	a1,s1,a3
 1001760:	9081                	srli	s1,s1,0x20
 1001762:	02b70c33          	mul	s8,a4,a1
 1001766:	9a22                	add	s4,s4,s0
 1001768:	9cd2                	add	s9,s9,s4
 100176a:	9866                	add	a6,a6,s9
 100176c:	017abab3          	sltu	s5,s5,s7
 1001770:	01580bb3          	add	s7,a6,s5
 1001774:	0169bb33          	sltu	s6,s3,s6
 1001778:	9bda                	add	s7,s7,s6
 100177a:	02c48433          	mul	s0,s1,a2
 100177e:	020c1a93          	slli	s5,s8,0x20
 1001782:	020c5a13          	srli	s4,s8,0x20
 1001786:	02c585b3          	mul	a1,a1,a2
 100178a:	02041913          	slli	s2,s0,0x20
 100178e:	9001                	srli	s0,s0,0x20
 1001790:	9452                	add	s0,s0,s4
 1001792:	029704b3          	mul	s1,a4,s1
 1001796:	95d6                	add	a1,a1,s5
 1001798:	00b90cb3          	add	s9,s2,a1
 100179c:	019b89b3          	add	s3,s7,s9
 10017a0:	00798833          	add	a6,s3,t2
 10017a4:	f907bc23          	sd	a6,-104(a5)
			MULADDC_CORE   MULADDC_CORE
 10017a8:	fa053d03          	ld	s10,-96(a0)
			MULADDC_CORE   MULADDC_CORE
 10017ac:	0155b5b3          	sltu	a1,a1,s5
 10017b0:	012cbcb3          	sltu	s9,s9,s2
			MULADDC_CORE   MULADDC_CORE
 10017b4:	00dd7c33          	and	s8,s10,a3
			MULADDC_CORE   MULADDC_CORE
 10017b8:	9426                	add	s0,s0,s1
			MULADDC_CORE   MULADDC_CORE
 10017ba:	03870933          	mul	s2,a4,s8
			MULADDC_CORE   MULADDC_CORE
 10017be:	95a2                	add	a1,a1,s0
			MULADDC_CORE   MULADDC_CORE
 10017c0:	020d5d13          	srli	s10,s10,0x20
			MULADDC_CORE   MULADDC_CORE
 10017c4:	007833b3          	sltu	t2,a6,t2
 10017c8:	00bc8b33          	add	s6,s9,a1
 10017cc:	0179bbb3          	sltu	s7,s3,s7
 10017d0:	9b5e                	add	s6,s6,s7
 10017d2:	9b1e                	add	s6,s6,t2
			MULADDC_CORE   MULADDC_CORE
 10017d4:	02cd0833          	mul	a6,s10,a2
 10017d8:	02091a93          	slli	s5,s2,0x20
 10017dc:	02095493          	srli	s1,s2,0x20
 10017e0:	02cc05b3          	mul	a1,s8,a2
 10017e4:	02081993          	slli	s3,a6,0x20
 10017e8:	02085813          	srli	a6,a6,0x20
 10017ec:	94c2                	add	s1,s1,a6
 10017ee:	95d6                	add	a1,a1,s5
 10017f0:	00b98433          	add	s0,s3,a1
 10017f4:	008b03b3          	add	t2,s6,s0
 10017f8:	00538bb3          	add	s7,t2,t0
 10017fc:	fb77b023          	sd	s7,-96(a5)
 1001800:	fa853a03          	ld	s4,-88(a0)
 1001804:	03a70d33          	mul	s10,a4,s10
 1001808:	01343433          	sltu	s0,s0,s3
 100180c:	00da7833          	and	a6,s4,a3
 1001810:	020a5a13          	srli	s4,s4,0x20
 1001814:	0163bb33          	sltu	s6,t2,s6
 1001818:	0155b933          	sltu	s2,a1,s5
 100181c:	005bb2b3          	sltu	t0,s7,t0
 1001820:	030709b3          	mul	s3,a4,a6
 1001824:	01a485b3          	add	a1,s1,s10
 1001828:	95ca                	add	a1,a1,s2
 100182a:	95a2                	add	a1,a1,s0
 100182c:	95da                	add	a1,a1,s6
 100182e:	00b284b3          	add	s1,t0,a1
 1001832:	02ca03b3          	mul	t2,s4,a2
 1001836:	02099913          	slli	s2,s3,0x20
 100183a:	0209d413          	srli	s0,s3,0x20
 100183e:	02c80833          	mul	a6,a6,a2
 1001842:	02039593          	slli	a1,t2,0x20
 1001846:	0203d393          	srli	t2,t2,0x20
 100184a:	93a2                	add	t2,t2,s0
 100184c:	984a                	add	a6,a6,s2
 100184e:	034702b3          	mul	t0,a4,s4
 1001852:	01058bb3          	add	s7,a1,a6
 1001856:	01748b33          	add	s6,s1,s7
 100185a:	01fb0ab3          	add	s5,s6,t6
 100185e:	fb57b423          	sd	s5,-88(a5)
			MULADDC_CORE   MULADDC_CORE
 1001862:	fb053983          	ld	s3,-80(a0)
			MULADDC_CORE   MULADDC_CORE
 1001866:	01283933          	sltu	s2,a6,s2
 100186a:	00bbb5b3          	sltu	a1,s7,a1
			MULADDC_CORE   MULADDC_CORE
 100186e:	00d9f833          	and	a6,s3,a3
 1001872:	0209d993          	srli	s3,s3,0x20
 1001876:	03070433          	mul	s0,a4,a6
			MULADDC_CORE   MULADDC_CORE
 100187a:	929e                	add	t0,t0,t2
 100187c:	92ca                	add	t0,t0,s2
 100187e:	009b34b3          	sltu	s1,s6,s1
 1001882:	92ae                	add	t0,t0,a1
 1001884:	01fabfb3          	sltu	t6,s5,t6
 1001888:	92a6                	add	t0,t0,s1
 100188a:	92fe                	add	t0,t0,t6
			MULADDC_CORE   MULADDC_CORE
 100188c:	02c983b3          	mul	t2,s3,a2
 1001890:	02041493          	slli	s1,s0,0x20
 1001894:	9001                	srli	s0,s0,0x20
 1001896:	02c80833          	mul	a6,a6,a2
 100189a:	02039593          	slli	a1,t2,0x20
 100189e:	0203d393          	srli	t2,t2,0x20
 10018a2:	93a2                	add	t2,t2,s0
 10018a4:	03370fb3          	mul	t6,a4,s3
 10018a8:	9826                	add	a6,a6,s1
 10018aa:	01058bb3          	add	s7,a1,a6
 10018ae:	01728b33          	add	s6,t0,s7
 10018b2:	01eb0ab3          	add	s5,s6,t5
 10018b6:	fb57b823          	sd	s5,-80(a5)
 10018ba:	fb853903          	ld	s2,-72(a0)
 10018be:	009834b3          	sltu	s1,a6,s1
 10018c2:	00bbb5b3          	sltu	a1,s7,a1
 10018c6:	00d97a33          	and	s4,s2,a3
 10018ca:	9f9e                	add	t6,t6,t2
 10018cc:	9fa6                	add	t6,t6,s1
 10018ce:	03470433          	mul	s0,a4,s4
 10018d2:	02095913          	srli	s2,s2,0x20
 10018d6:	005b32b3          	sltu	t0,s6,t0
 10018da:	9fae                	add	t6,t6,a1
 10018dc:	9f96                	add	t6,t6,t0
 10018de:	01eabf33          	sltu	t5,s5,t5
 10018e2:	01ff03b3          	add	t2,t5,t6
 10018e6:	02c902b3          	mul	t0,s2,a2
 10018ea:	02041993          	slli	s3,s0,0x20
 10018ee:	9001                	srli	s0,s0,0x20
 10018f0:	02ca0833          	mul	a6,s4,a2
 10018f4:	02029593          	slli	a1,t0,0x20
 10018f8:	0202d293          	srli	t0,t0,0x20
 10018fc:	92a2                	add	t0,t0,s0
 10018fe:	03270b33          	mul	s6,a4,s2
 1001902:	984e                	add	a6,a6,s3
 1001904:	01058f33          	add	t5,a1,a6
 1001908:	01e38ab3          	add	s5,t2,t5
 100190c:	01da8433          	add	s0,s5,t4
 1001910:	fa87bc23          	sd	s0,-72(a5)
			MULADDC_CORE   MULADDC_CORE
 1001914:	fc053483          	ld	s1,-64(a0)
			MULADDC_CORE   MULADDC_CORE
 1001918:	01383833          	sltu	a6,a6,s3
 100191c:	00bf35b3          	sltu	a1,t5,a1
			MULADDC_CORE   MULADDC_CORE
 1001920:	00d4ffb3          	and	t6,s1,a3
			MULADDC_CORE   MULADDC_CORE
 1001924:	01628f33          	add	t5,t0,s6
 1001928:	9f42                	add	t5,t5,a6
			MULADDC_CORE   MULADDC_CORE
 100192a:	03f70933          	mul	s2,a4,t6
 100192e:	0204da13          	srli	s4,s1,0x20
			MULADDC_CORE   MULADDC_CORE
 1001932:	007ab3b3          	sltu	t2,s5,t2
 1001936:	9f2e                	add	t5,t5,a1
 1001938:	9f1e                	add	t5,t5,t2
 100193a:	01d43eb3          	sltu	t4,s0,t4
 100193e:	9f76                	add	t5,t5,t4
			MULADDC_CORE   MULADDC_CORE
 1001940:	02ca03b3          	mul	t2,s4,a2
 1001944:	02091293          	slli	t0,s2,0x20
 1001948:	02095913          	srli	s2,s2,0x20
 100194c:	02cf8fb3          	mul	t6,t6,a2
 1001950:	02039593          	slli	a1,t2,0x20
 1001954:	0203d393          	srli	t2,t2,0x20
 1001958:	991e                	add	s2,s2,t2
 100195a:	034704b3          	mul	s1,a4,s4
 100195e:	9f96                	add	t6,t6,t0
 1001960:	01f58eb3          	add	t4,a1,t6
 1001964:	01df0433          	add	s0,t5,t4
 1001968:	01c403b3          	add	t2,s0,t3
 100196c:	fc77b023          	sd	t2,-64(a5)
 1001970:	fc853983          	ld	s3,-56(a0)
 1001974:	005fbfb3          	sltu	t6,t6,t0
 1001978:	00beb5b3          	sltu	a1,t4,a1
 100197c:	00d9f833          	and	a6,s3,a3
 1001980:	00990eb3          	add	t4,s2,s1
 1001984:	0209d993          	srli	s3,s3,0x20
 1001988:	01c3be33          	sltu	t3,t2,t3
 100198c:	9efe                	add	t4,t4,t6
 100198e:	030703b3          	mul	t2,a4,a6
 1001992:	9eae                	add	t4,t4,a1
 1001994:	01e43433          	sltu	s0,s0,t5
 1001998:	9ea2                	add	t4,t4,s0
 100199a:	9ef2                	add	t4,t4,t3
 100199c:	02c98fb3          	mul	t6,s3,a2
 10019a0:	02039f13          	slli	t5,t2,0x20
 10019a4:	0203d393          	srli	t2,t2,0x20
 10019a8:	02c805b3          	mul	a1,a6,a2
 10019ac:	020f9813          	slli	a6,t6,0x20
 10019b0:	020fdf93          	srli	t6,t6,0x20
 10019b4:	93fe                	add	t2,t2,t6
 10019b6:	033702b3          	mul	t0,a4,s3
 10019ba:	95fa                	add	a1,a1,t5
 10019bc:	00b80a33          	add	s4,a6,a1
 10019c0:	014e8933          	add	s2,t4,s4
 10019c4:	006904b3          	add	s1,s2,t1
 10019c8:	fc97b423          	sd	s1,-56(a5)
			MULADDC_CORE   MULADDC_CORE
 10019cc:	fd053403          	ld	s0,-48(a0)
			MULADDC_CORE   MULADDC_CORE
 10019d0:	01e5bf33          	sltu	t5,a1,t5
 10019d4:	010a3833          	sltu	a6,s4,a6
			MULADDC_CORE   MULADDC_CORE
 10019d8:	00d47e33          	and	t3,s0,a3
			MULADDC_CORE   MULADDC_CORE
 10019dc:	929e                	add	t0,t0,t2
			MULADDC_CORE   MULADDC_CORE
 10019de:	03c70fb3          	mul	t6,a4,t3
 10019e2:	9001                	srli	s0,s0,0x20
			MULADDC_CORE   MULADDC_CORE
 10019e4:	9f16                	add	t5,t5,t0
 10019e6:	987a                	add	a6,a6,t5
 10019e8:	01d93eb3          	sltu	t4,s2,t4
 10019ec:	9876                	add	a6,a6,t4
 10019ee:	0064b333          	sltu	t1,s1,t1
 10019f2:	9342                	add	t1,t1,a6
			MULADDC_CORE   MULADDC_CORE
 10019f4:	02c40f33          	mul	t5,s0,a2
 10019f8:	020f9e93          	slli	t4,t6,0x20
 10019fc:	020fdf93          	srli	t6,t6,0x20
 1001a00:	02ce0e33          	mul	t3,t3,a2
 1001a04:	020f1593          	slli	a1,t5,0x20
 1001a08:	020f5f13          	srli	t5,t5,0x20
 1001a0c:	9f7e                	add	t5,t5,t6
 1001a0e:	9e76                	add	t3,t3,t4
 1001a10:	01c583b3          	add	t2,a1,t3
 1001a14:	00730833          	add	a6,t1,t2
 1001a18:	011802b3          	add	t0,a6,a7
 1001a1c:	fc57b823          	sd	t0,-48(a5)
 1001a20:	fd853903          	ld	s2,-40(a0)
 1001a24:	028709b3          	mul	s3,a4,s0
 1001a28:	00683333          	sltu	t1,a6,t1
 1001a2c:	00d97fb3          	and	t6,s2,a3
 1001a30:	02095913          	srli	s2,s2,0x20
 1001a34:	01de3e33          	sltu	t3,t3,t4
 1001a38:	00b3b5b3          	sltu	a1,t2,a1
 1001a3c:	fd87b403          	ld	s0,-40(a5)
 1001a40:	0112b8b3          	sltu	a7,t0,a7
			MULADDC_CORE   MULADDC_CORE
 1001a44:	fe07b383          	ld	t2,-32(a5)
 1001a48:	fe87b283          	ld	t0,-24(a5)
			MULADDC_CORE   MULADDC_CORE
 1001a4c:	03f704b3          	mul	s1,a4,t6
 1001a50:	9f4e                	add	t5,t5,s3
 1001a52:	9e7a                	add	t3,t3,t5
 1001a54:	95f2                	add	a1,a1,t3
 1001a56:	959a                	add	a1,a1,t1
 1001a58:	00b88333          	add	t1,a7,a1
			MULADDC_CORE   MULADDC_CORE
 1001a5c:	ff07b883          	ld	a7,-16(a5)
 1001a60:	ff87b583          	ld	a1,-8(a5)
			MULADDC_CORE   MULADDC_CORE
 1001a64:	02c90833          	mul	a6,s2,a2
 1001a68:	02049e93          	slli	t4,s1,0x20
 1001a6c:	9081                	srli	s1,s1,0x20
 1001a6e:	02cf8fb3          	mul	t6,t6,a2
 1001a72:	02081f13          	slli	t5,a6,0x20
 1001a76:	02085813          	srli	a6,a6,0x20
 1001a7a:	9826                	add	a6,a6,s1
 1001a7c:	03270933          	mul	s2,a4,s2
 1001a80:	9ff6                	add	t6,t6,t4
 1001a82:	01ff0bb3          	add	s7,t5,t6
 1001a86:	01730b33          	add	s6,t1,s7
 1001a8a:	008b0ab3          	add	s5,s6,s0
 1001a8e:	fd57bc23          	sd	s5,-40(a5)
			MULADDC_CORE   MULADDC_CORE
 1001a92:	fe053a03          	ld	s4,-32(a0)
			MULADDC_CORE   MULADDC_CORE
 1001a96:	01dfbfb3          	sltu	t6,t6,t4
 1001a9a:	01ebbf33          	sltu	t5,s7,t5
			MULADDC_CORE   MULADDC_CORE
 1001a9e:	00da79b3          	and	s3,s4,a3
			MULADDC_CORE   MULADDC_CORE
 1001aa2:	01280eb3          	add	t4,a6,s2
			MULADDC_CORE   MULADDC_CORE
 1001aa6:	033704b3          	mul	s1,a4,s3
 1001aaa:	020a5a13          	srli	s4,s4,0x20
			MULADDC_CORE   MULADDC_CORE
 1001aae:	9efe                	add	t4,t4,t6
 1001ab0:	9efa                	add	t4,t4,t5
 1001ab2:	006b3333          	sltu	t1,s6,t1
 1001ab6:	9e9a                	add	t4,t4,t1
 1001ab8:	008ab433          	sltu	s0,s5,s0
 1001abc:	9476                	add	s0,s0,t4
			MULADDC_CORE   MULADDC_CORE
 1001abe:	02ca0fb3          	mul	t6,s4,a2
 1001ac2:	02049913          	slli	s2,s1,0x20
 1001ac6:	9081                	srli	s1,s1,0x20
 1001ac8:	02c98f33          	mul	t5,s3,a2
 1001acc:	020f9e93          	slli	t4,t6,0x20
 1001ad0:	020fdf93          	srli	t6,t6,0x20
 1001ad4:	9fa6                	add	t6,t6,s1
 1001ad6:	03470a33          	mul	s4,a4,s4
 1001ada:	9f4a                	add	t5,t5,s2
 1001adc:	01ee8e33          	add	t3,t4,t5
 1001ae0:	01c40833          	add	a6,s0,t3
 1001ae4:	00780ab3          	add	s5,a6,t2
 1001ae8:	ff57b023          	sd	s5,-32(a5)
 1001aec:	fe853483          	ld	s1,-24(a0)
 1001af0:	012f3f33          	sltu	t5,t5,s2
 1001af4:	01de3eb3          	sltu	t4,t3,t4
 1001af8:	00d4f933          	and	s2,s1,a3
 1001afc:	014f8e33          	add	t3,t6,s4
 1001b00:	0204d993          	srli	s3,s1,0x20
 1001b04:	00883833          	sltu	a6,a6,s0
 1001b08:	9e7a                	add	t3,t3,t5
 1001b0a:	03270433          	mul	s0,a4,s2
 1001b0e:	9e76                	add	t3,t3,t4
 1001b10:	9e42                	add	t3,t3,a6
 1001b12:	007ab3b3          	sltu	t2,s5,t2
 1001b16:	93f2                	add	t2,t2,t3
 1001b18:	02c98fb3          	mul	t6,s3,a2
 1001b1c:	02041f13          	slli	t5,s0,0x20
 1001b20:	9001                	srli	s0,s0,0x20
 1001b22:	02c90eb3          	mul	t4,s2,a2
 1001b26:	020f9e13          	slli	t3,t6,0x20
 1001b2a:	020fdf93          	srli	t6,t6,0x20
 1001b2e:	01f40333          	add	t1,s0,t6
 1001b32:	033704b3          	mul	s1,a4,s3
 1001b36:	9efa                	add	t4,t4,t5
 1001b38:	01de0ab3          	add	s5,t3,t4
 1001b3c:	01538a33          	add	s4,t2,s5
 1001b40:	005a0433          	add	s0,s4,t0
 1001b44:	fe87b423          	sd	s0,-24(a5)
			MULADDC_CORE   MULADDC_CORE
 1001b48:	ff053f83          	ld	t6,-16(a0)
			MULADDC_CORE   MULADDC_CORE
 1001b4c:	01eebf33          	sltu	t5,t4,t5
 1001b50:	01cabe33          	sltu	t3,s5,t3
			MULADDC_CORE   MULADDC_CORE
 1001b54:	00dffeb3          	and	t4,t6,a3
			MULADDC_CORE   MULADDC_CORE
 1001b58:	9326                	add	t1,t1,s1
 1001b5a:	937a                	add	t1,t1,t5
			MULADDC_CORE   MULADDC_CORE
 1001b5c:	020fd913          	srli	s2,t6,0x20
			MULADDC_CORE   MULADDC_CORE
 1001b60:	007a33b3          	sltu	t2,s4,t2
 1001b64:	005432b3          	sltu	t0,s0,t0
 1001b68:	9372                	add	t1,t1,t3
			MULADDC_CORE   MULADDC_CORE
 1001b6a:	03d70433          	mul	s0,a4,t4
			MULADDC_CORE   MULADDC_CORE
 1001b6e:	931e                	add	t1,t1,t2
 1001b70:	929a                	add	t0,t0,t1
			MULADDC_CORE   MULADDC_CORE
 1001b72:	02c903b3          	mul	t2,s2,a2
 1001b76:	02041f13          	slli	t5,s0,0x20
 1001b7a:	9001                	srli	s0,s0,0x20
 1001b7c:	02ce8eb3          	mul	t4,t4,a2
 1001b80:	02039e13          	slli	t3,t2,0x20
 1001b84:	0203d393          	srli	t2,t2,0x20
 1001b88:	93a2                	add	t2,t2,s0
 1001b8a:	03270fb3          	mul	t6,a4,s2
 1001b8e:	9efa                	add	t4,t4,t5
 1001b90:	01de09b3          	add	s3,t3,t4
 1001b94:	01328833          	add	a6,t0,s3
 1001b98:	01180433          	add	s0,a6,a7
 1001b9c:	fe87b823          	sd	s0,-16(a5)
 1001ba0:	ff853303          	ld	t1,-8(a0)
 1001ba4:	01eebeb3          	sltu	t4,t4,t5
 1001ba8:	005832b3          	sltu	t0,a6,t0
 1001bac:	01c9be33          	sltu	t3,s3,t3
 1001bb0:	01f38833          	add	a6,t2,t6
 1001bb4:	9876                	add	a6,a6,t4
 1001bb6:	9872                	add	a6,a6,t3
 1001bb8:	02035f13          	srli	t5,t1,0x20
 1001bbc:	9816                	add	a6,a6,t0
 1001bbe:	00d374b3          	and	s1,t1,a3
 1001bc2:	011438b3          	sltu	a7,s0,a7
 1001bc6:	98c2                	add	a7,a7,a6
 1001bc8:	02970333          	mul	t1,a4,s1
 1001bcc:	02cf0833          	mul	a6,t5,a2
 1001bd0:	02031e93          	slli	t4,t1,0x20
 1001bd4:	02035313          	srli	t1,t1,0x20
 1001bd8:	02c48e33          	mul	t3,s1,a2
 1001bdc:	02085f93          	srli	t6,a6,0x20
 1001be0:	937e                	add	t1,t1,t6
 1001be2:	1802                	slli	a6,a6,0x20
 1001be4:	03e70f33          	mul	t5,a4,t5
 1001be8:	9e76                	add	t3,t3,t4
 1001bea:	01c802b3          	add	t0,a6,t3
 1001bee:	01de3e33          	sltu	t3,t3,t4
 1001bf2:	00588fb3          	add	t6,a7,t0
 1001bf6:	0102b833          	sltu	a6,t0,a6
 1001bfa:	00bf8eb3          	add	t4,t6,a1
 1001bfe:	011fb8b3          	sltu	a7,t6,a7
 1001c02:	00beb5b3          	sltu	a1,t4,a1
 1001c06:	ffd7bc23          	sd	t4,-8(a5)
 1001c0a:	937a                	add	t1,t1,t5
 1001c0c:	9372                	add	t1,t1,t3
 1001c0e:	981a                	add	a6,a6,t1
 1001c10:	9846                	add	a6,a6,a7
 1001c12:	95c2                	add	a1,a1,a6
	for( ; i >= 16; i -= 16 )
 1001c14:	a0ad9fe3          	bne	s11,a0,1001632 <BN_mul_hlp.constprop.0+0x2e>
 1001c18:	67a2                	ld	a5,8(sp)
 1001c1a:	10078713          	addi	a4,a5,256
			MULADDC_CORE   MULADDC_CORE
			MULADDC_CORE   MULADDC_CORE
			MULADDC_STOP
	}

	for( ; i > 0; i-- )
 1001c1e:	a011                	j	1001c22 <BN_mul_hlp.constprop.0+0x61e>
	}

	t++;

	do {
		*d += c; c = ( *d < c ); d++;
 1001c20:	4585                	li	a1,1
 1001c22:	631c                	ld	a5,0(a4)
 1001c24:	0721                	addi	a4,a4,8
 1001c26:	97ae                	add	a5,a5,a1
 1001c28:	fef73c23          	sd	a5,-8(a4)
	}
	while( c != 0 );
 1001c2c:	feb7eae3          	bltu	a5,a1,1001c20 <BN_mul_hlp.constprop.0+0x61c>
}
 1001c30:	7426                	ld	s0,104(sp)
 1001c32:	7486                	ld	s1,96(sp)
 1001c34:	6966                	ld	s2,88(sp)
 1001c36:	69c6                	ld	s3,80(sp)
 1001c38:	6a26                	ld	s4,72(sp)
 1001c3a:	6a86                	ld	s5,64(sp)
 1001c3c:	7b62                	ld	s6,56(sp)
 1001c3e:	7bc2                	ld	s7,48(sp)
 1001c40:	7c22                	ld	s8,40(sp)
 1001c42:	7c82                	ld	s9,32(sp)
 1001c44:	6d62                	ld	s10,24(sp)
 1001c46:	6dc2                	ld	s11,16(sp)
 1001c48:	6165                	addi	sp,sp,112
 1001c4a:	8082                	ret

0000000001001c4c <BN_montmul>:
/* Helper function for Montgomery multiplication 
 *
 */
static void BN_montmul( bignum_t *A, bignum_t *B, bignum_t *N, word mm,
		mulnum_t *T )
{
 1001c4c:	7119                	addi	sp,sp,-128
 1001c4e:	87aa                	mv	a5,a0
 1001c50:	f466                	sd	s9,40(sp)
	size_t i, n, m;
	word u0, u1, *d;

	memset( T->muldigits, 0, (2*(MAX_DIGITS)) * CIL );
 1001c52:	00870c93          	addi	s9,a4,8
{
 1001c56:	f0ca                	sd	s2,96(sp)
 1001c58:	e0da                	sd	s6,64(sp)
 1001c5a:	fc5e                	sd	s7,56(sp)
 1001c5c:	f862                	sd	s8,48(sp)
 1001c5e:	893a                	mv	s2,a4
 1001c60:	e42a                	sd	a0,8(sp)
 1001c62:	8b2e                	mv	s6,a1
 1001c64:	8bb2                	mv	s7,a2
 1001c66:	00878c13          	addi	s8,a5,8
	memset( T->muldigits, 0, (2*(MAX_DIGITS)) * CIL );
 1001c6a:	21000613          	li	a2,528
 1001c6e:	4581                	li	a1,0
 1001c70:	8566                	mv	a0,s9
{
 1001c72:	f8a2                	sd	s0,112(sp)
 1001c74:	ecce                	sd	s3,88(sp)
 1001c76:	e8d2                	sd	s4,80(sp)
 1001c78:	e4d6                	sd	s5,72(sp)
 1001c7a:	ec6e                	sd	s11,24(sp)
 1001c7c:	fc86                	sd	ra,120(sp)
 1001c7e:	f4a6                	sd	s1,104(sp)
 1001c80:	f06a                	sd	s10,32(sp)
 1001c82:	89b6                	mv	s3,a3
 1001c84:	008b0a93          	addi	s5,s6,8
	memset( T->muldigits, 0, (2*(MAX_DIGITS)) * CIL );
 1001c88:	581010ef          	jal	ra,1003a08 <memset>

	d = T->muldigits;
	n = MAX_DIGITS-1;
	m = MAX_DIGITS-1;

	for( i = 0; i < n; i++ )
 1001c8c:	008b8a13          	addi	s4,s7,8
 1001c90:	8de2                	mv	s11,s8
 1001c92:	10890913          	addi	s2,s2,264
	memset( T->muldigits, 0, (2*(MAX_DIGITS)) * CIL );
 1001c96:	8466                	mv	s0,s9
	{
		/*
		 * T = (T + u0*B + u1*N) / 2^BIL
		 */
		u0 = A->digits[i];
 1001c98:	000dbd03          	ld	s10,0(s11)
		u1 = ( d[0] + u0 * B->digits[0] ) * mm;
 1001c9c:	008b3483          	ld	s1,8(s6)
 1001ca0:	601c                	ld	a5,0(s0)

		BN_mul_hlp( m, B->digits, d, u0 );
 1001ca2:	85a2                	mv	a1,s0
		u1 = ( d[0] + u0 * B->digits[0] ) * mm;
 1001ca4:	029d04b3          	mul	s1,s10,s1
		BN_mul_hlp( m, B->digits, d, u0 );
 1001ca8:	866a                	mv	a2,s10
 1001caa:	8556                	mv	a0,s5
 1001cac:	0da1                	addi	s11,s11,8
		u1 = ( d[0] + u0 * B->digits[0] ) * mm;
 1001cae:	94be                	add	s1,s1,a5
 1001cb0:	033484b3          	mul	s1,s1,s3
		BN_mul_hlp( m, B->digits, d, u0 );
 1001cb4:	951ff0ef          	jal	ra,1001604 <BN_mul_hlp.constprop.0>
		BN_mul_hlp( n, N->digits, d, u1 );
 1001cb8:	85a2                	mv	a1,s0
 1001cba:	8552                	mv	a0,s4

		*d++ = u0; d[n+1] = 0;
 1001cbc:	0421                	addi	s0,s0,8
		BN_mul_hlp( n, N->digits, d, u1 );
 1001cbe:	8626                	mv	a2,s1
 1001cc0:	945ff0ef          	jal	ra,1001604 <BN_mul_hlp.constprop.0>
		*d++ = u0; d[n+1] = 0;
 1001cc4:	ffa43c23          	sd	s10,-8(s0)
 1001cc8:	10043423          	sd	zero,264(s0)
	for( i = 0; i < n; i++ )
 1001ccc:	fc8916e3          	bne	s2,s0,1001c98 <BN_montmul+0x4c>
	}

	memcpy( A->digits, d, (n+1) * CIL );
 1001cd0:	85ca                	mv	a1,s2
 1001cd2:	10800613          	li	a2,264
 1001cd6:	8562                	mv	a0,s8
 1001cd8:	4f1010ef          	jal	ra,10039c8 <memcpy>

	if( BN_cmp_abs( A, N ) >= 0 )
 1001cdc:	6522                	ld	a0,8(sp)
 1001cde:	85de                	mv	a1,s7
 1001ce0:	ed8ff0ef          	jal	ra,10013b8 <BN_cmp_abs>
 1001ce4:	02054663          	bltz	a0,1001d10 <BN_montmul+0xc4>
	{
		BN_sub_hlp( n, N->digits, A->digits );
 1001ce8:	8662                	mv	a2,s8
 1001cea:	85d2                	mv	a1,s4
	}
	else
	{
		BN_sub_hlp( n, A->digits, T->muldigits );
	}
}
 1001cec:	7446                	ld	s0,112(sp)
 1001cee:	70e6                	ld	ra,120(sp)
 1001cf0:	74a6                	ld	s1,104(sp)
 1001cf2:	7906                	ld	s2,96(sp)
 1001cf4:	69e6                	ld	s3,88(sp)
 1001cf6:	6a46                	ld	s4,80(sp)
 1001cf8:	6aa6                	ld	s5,72(sp)
 1001cfa:	6b06                	ld	s6,64(sp)
 1001cfc:	7be2                	ld	s7,56(sp)
 1001cfe:	7c42                	ld	s8,48(sp)
 1001d00:	7ca2                	ld	s9,40(sp)
 1001d02:	7d02                	ld	s10,32(sp)
 1001d04:	6de2                	ld	s11,24(sp)
		BN_sub_hlp( n, A->digits, T->muldigits );
 1001d06:	02000513          	li	a0,32
}
 1001d0a:	6109                	addi	sp,sp,128
		BN_sub_hlp( n, A->digits, T->muldigits );
 1001d0c:	f10ff06f          	j	100141c <BN_sub_hlp>
 1001d10:	8666                	mv	a2,s9
 1001d12:	85e2                	mv	a1,s8
 1001d14:	bfe1                	j	1001cec <BN_montmul+0xa0>

0000000001001d16 <BN_init>:
    if( X == NULL )
 1001d16:	c509                	beqz	a0,1001d20 <BN_init+0xa>
    X->sign = 1;
 1001d18:	4705                	li	a4,1
 1001d1a:	c118                	sw	a4,0(a0)
    for(i=0;i<MAX_DIGITS;i++)
 1001d1c:	f54ff06f          	j	1001470 <BN_init.part.0>
}
 1001d20:	8082                	ret

0000000001001d22 <BN_bin2bn>:
    for(i=0;i<length/BN_BYTES;++i){
 1001d22:	41f6d29b          	sraiw	t0,a3,0x1f
 1001d26:	01d2d79b          	srliw	a5,t0,0x1d
 1001d2a:	9fb5                	addw	a5,a5,a3
 1001d2c:	4037df1b          	sraiw	t5,a5,0x3
    unsigned char *temp = ptr+length-1;
 1001d30:	fff68713          	addi	a4,a3,-1
    (*bn).sign=sign;
 1001d34:	c110                	sw	a2,0(a0)
    for(i=0;i<length/BN_BYTES;++i){
 1001d36:	479d                	li	a5,7
 1001d38:	8ffa                	mv	t6,t5
    unsigned char *temp = ptr+length-1;
 1001d3a:	00e588b3          	add	a7,a1,a4
    for(i=0;i<length/BN_BYTES;++i){
 1001d3e:	08d7df63          	bge	a5,a3,1001ddc <BN_bin2bn+0xba>
 1001d42:	00850e93          	addi	t4,a0,8
    unsigned char *temp = ptr+length-1;
 1001d46:	8e46                	mv	t3,a7
    for(i=0;i<length/BN_BYTES;++i){
 1001d48:	4301                	li	t1,0
        for(j=0;j<BN_BYTES;j++,temp--){
 1001d4a:	04000813          	li	a6,64
    for(i=0;i<length/BN_BYTES;++i){
 1001d4e:	8672                	mv	a2,t3
 1001d50:	4781                	li	a5,0
        k=0;
 1001d52:	4581                	li	a1,0
            k = k |(word) (*temp)<<(j*8);
 1001d54:	00064703          	lbu	a4,0(a2)
        for(j=0;j<BN_BYTES;j++,temp--){
 1001d58:	167d                	addi	a2,a2,-1
            k = k |(word) (*temp)<<(j*8);
 1001d5a:	00f71733          	sll	a4,a4,a5
 1001d5e:	27a1                	addiw	a5,a5,8
 1001d60:	8dd9                	or	a1,a1,a4
        for(j=0;j<BN_BYTES;j++,temp--){
 1001d62:	ff0799e3          	bne	a5,a6,1001d54 <BN_bin2bn+0x32>
        (*bn).digits[i]=k;
 1001d66:	00beb023          	sd	a1,0(t4)
    for(i=0;i<length/BN_BYTES;++i){
 1001d6a:	2305                	addiw	t1,t1,1
 1001d6c:	1e61                	addi	t3,t3,-8
 1001d6e:	0ea1                	addi	t4,t4,8
 1001d70:	fde34fe3          	blt	t1,t5,1001d4e <BN_bin2bn+0x2c>
 1001d74:	87fe                	mv	a5,t6
 1001d76:	01e04363          	bgtz	t5,1001d7c <BN_bin2bn+0x5a>
 1001d7a:	4785                	li	a5,1
 1001d7c:	471d                	li	a4,7
 1001d7e:	0007859b          	sext.w	a1,a5
 1001d82:	57e1                	li	a5,-8
 1001d84:	02d74e63          	blt	a4,a3,1001dc0 <BN_bin2bn+0x9e>
 1001d88:	98be                	add	a7,a7,a5
    for(j=0;j<length - ((length/BN_BYTES) * BN_BYTES) ;j++,temp--)
 1001d8a:	01d2d29b          	srliw	t0,t0,0x1d
 1001d8e:	00d286bb          	addw	a3,t0,a3
 1001d92:	8a9d                	andi	a3,a3,7
 1001d94:	405687bb          	subw	a5,a3,t0
 1001d98:	02f05c63          	blez	a5,1001dd0 <BN_bin2bn+0xae>
 1001d9c:	0037969b          	slliw	a3,a5,0x3
    k = 0;
 1001da0:	4601                	li	a2,0
    for(j=0;j<length - ((length/BN_BYTES) * BN_BYTES) ;j++,temp--)
 1001da2:	4781                	li	a5,0
        k = k |(word) (*temp)<<(j*8);
 1001da4:	0008c703          	lbu	a4,0(a7)
    for(j=0;j<length - ((length/BN_BYTES) * BN_BYTES) ;j++,temp--)
 1001da8:	18fd                	addi	a7,a7,-1
        k = k |(word) (*temp)<<(j*8);
 1001daa:	00f71733          	sll	a4,a4,a5
 1001dae:	27a1                	addiw	a5,a5,8
 1001db0:	8e59                	or	a2,a2,a4
    for(j=0;j<length - ((length/BN_BYTES) * BN_BYTES) ;j++,temp--)
 1001db2:	fef699e3          	bne	a3,a5,1001da4 <BN_bin2bn+0x82>
    (*bn).digits[i]=k;
 1001db6:	00359793          	slli	a5,a1,0x3
 1001dba:	97aa                	add	a5,a5,a0
 1001dbc:	e790                	sd	a2,8(a5)
}
 1001dbe:	8082                	ret
 1001dc0:	ffff879b          	addiw	a5,t6,-1
 1001dc4:	1782                	slli	a5,a5,0x20
 1001dc6:	9381                	srli	a5,a5,0x20
 1001dc8:	fff7c793          	not	a5,a5
 1001dcc:	078e                	slli	a5,a5,0x3
 1001dce:	bf6d                	j	1001d88 <BN_bin2bn+0x66>
    (*bn).digits[i]=k;
 1001dd0:	00359793          	slli	a5,a1,0x3
    k = 0;
 1001dd4:	4601                	li	a2,0
    (*bn).digits[i]=k;
 1001dd6:	97aa                	add	a5,a5,a0
 1001dd8:	e790                	sd	a2,8(a5)
}
 1001dda:	8082                	ret
    for(i=0;i<length/BN_BYTES;++i){
 1001ddc:	4581                	li	a1,0
 1001dde:	b775                	j	1001d8a <BN_bin2bn+0x68>

0000000001001de0 <BN_bn2bin>:
        if(bn->sign==-1)
 1001de0:	4118                	lw	a4,0(a0)
 1001de2:	57fd                	li	a5,-1
{
 1001de4:	88aa                	mv	a7,a0
        if(bn->sign==-1)
 1001de6:	00f71763          	bne	a4,a5,1001df4 <BN_bn2bin+0x14>
	  *(buf++)='-';
 1001dea:	02d00793          	li	a5,45
 1001dee:	00f58023          	sb	a5,0(a1)
 1001df2:	0585                	addi	a1,a1,1
 1001df4:	10888613          	addi	a2,a7,264
 1001df8:	4501                	li	a0,0
 1001dfa:	4681                	li	a3,0
		for (j = WORD_SIZE - 8; j >= 0; j -= 8) {
 1001dfc:	5861                	li	a6,-8
 1001dfe:	03800713          	li	a4,56
			v = (unsigned char)(((bn->digits[i] >> j)) & 0xff);
 1001e02:	621c                	ld	a5,0(a2)
 1001e04:	00e7d7b3          	srl	a5,a5,a4
 1001e08:	0ff7f793          	andi	a5,a5,255
 1001e0c:	3761                	addiw	a4,a4,-8
			if (z || (v != 0)) {
 1001e0e:	e291                	bnez	a3,1001e12 <BN_bn2bin+0x32>
 1001e10:	c791                	beqz	a5,1001e1c <BN_bn2bin+0x3c>
				*(buf++) = v; 
 1001e12:	00f58023          	sb	a5,0(a1)
				z1++;
 1001e16:	2505                	addiw	a0,a0,1
				*(buf++) = v; 
 1001e18:	0585                	addi	a1,a1,1
				z = 1;
 1001e1a:	4685                	li	a3,1
		for (j = WORD_SIZE - 8; j >= 0; j -= 8) {
 1001e1c:	ff0713e3          	bne	a4,a6,1001e02 <BN_bn2bin+0x22>
	for (i = MAX_DIGITS-1; i >= 0; i--) {
 1001e20:	1661                	addi	a2,a2,-8
 1001e22:	fcc89ee3          	bne	a7,a2,1001dfe <BN_bn2bin+0x1e>
 1001e26:	8082                	ret

0000000001001e28 <BN_hex2bn>:
{
 1001e28:	7179                	addi	sp,sp,-48
 1001e2a:	ec26                	sd	s1,24(sp)
 1001e2c:	e84a                	sd	s2,16(sp)
 1001e2e:	f406                	sd	ra,40(sp)
 1001e30:	f022                	sd	s0,32(sp)
 1001e32:	e44e                	sd	s3,8(sp)
 1001e34:	892a                	mv	s2,a0
 1001e36:	84ae                	mv	s1,a1
    if( X == NULL )
 1001e38:	c509                	beqz	a0,1001e42 <BN_hex2bn+0x1a>
    X->sign = 1;
 1001e3a:	4785                	li	a5,1
 1001e3c:	c11c                	sw	a5,0(a0)
    for(i=0;i<MAX_DIGITS;i++)
 1001e3e:	e32ff0ef          	jal	ra,1001470 <BN_init.part.0>
	if ((a == NULL) || (*a == '\0'))
 1001e42:	c4f1                	beqz	s1,1001f0e <BN_hex2bn+0xe6>
 1001e44:	0004c503          	lbu	a0,0(s1)
		return (0);
 1001e48:	4981                	li	s3,0
	if ((a == NULL) || (*a == '\0'))
 1001e4a:	c179                	beqz	a0,1001f10 <BN_hex2bn+0xe8>
	if (*a == '-') {
 1001e4c:	02d00793          	li	a5,45
 1001e50:	0cf50863          	beq	a0,a5,1001f20 <BN_hex2bn+0xf8>
	for (i = 0; isxdigit((unsigned char)a[i]); i++) ;
 1001e54:	4401                	li	s0,0
 1001e56:	a021                	j	1001e5e <BN_hex2bn+0x36>
 1001e58:	0006c503          	lbu	a0,0(a3)
 1001e5c:	843a                	mv	s0,a4
 1001e5e:	4c9010ef          	jal	ra,1003b26 <isxdigit>
 1001e62:	00140713          	addi	a4,s0,1
 1001e66:	00e486b3          	add	a3,s1,a4
 1001e6a:	0004079b          	sext.w	a5,s0
 1001e6e:	f56d                	bnez	a0,1001e58 <BN_hex2bn+0x30>
	num = i + neg;
 1001e70:	013789bb          	addw	s3,a5,s3
	if (bn == NULL)
 1001e74:	08090e63          	beqz	s2,1001f10 <BN_hex2bn+0xe8>
	while (j > 0) {
 1001e78:	cfc1                	beqz	a5,1001f10 <BN_hex2bn+0xe8>
 1001e7a:	fff7829b          	addiw	t0,a5,-1
 1001e7e:	ff078f9b          	addiw	t6,a5,-16
 1001e82:	ff02f293          	andi	t0,t0,-16
 1001e86:	8f3e                	mv	t5,a5
 1001e88:	00890593          	addi	a1,s2,8
 1001e8c:	405f82bb          	subw	t0,t6,t0
		m = ((BN_BYTES * 2) <= j) ? (BN_BYTES * 2) : j;
 1001e90:	4541                	li	a0,16
			if ((c >= '0') && (c <= '9'))
 1001e92:	4325                	li	t1,9
			else if ((c >= 'a') && (c <= 'f'))
 1001e94:	4e15                	li	t3,5
		m = ((BN_BYTES * 2) <= j) ? (BN_BYTES * 2) : j;
 1001e96:	873e                	mv	a4,a5
 1001e98:	00f55363          	bge	a0,a5,1001e9e <BN_hex2bn+0x76>
 1001e9c:	4741                	li	a4,16
 1001e9e:	fff7079b          	addiw	a5,a4,-1
 1001ea2:	01e48833          	add	a6,s1,t5
 1001ea6:	0007069b          	sext.w	a3,a4
		l = 0;
 1001eaa:	0805                	addi	a6,a6,1
 1001eac:	1782                	slli	a5,a5,0x20
 1001eae:	40df0733          	sub	a4,t5,a3
 1001eb2:	40d80833          	sub	a6,a6,a3
 1001eb6:	9381                	srli	a5,a5,0x20
 1001eb8:	9726                	add	a4,a4,s1
 1001eba:	983e                	add	a6,a6,a5
 1001ebc:	4681                	li	a3,0
 1001ebe:	a801                	j	1001ece <BN_hex2bn+0xa6>
 1001ec0:	fa96079b          	addiw	a5,a2,-87
			l = (l << 4) | k;
 1001ec4:	0692                	slli	a3,a3,0x4
 1001ec6:	0705                	addi	a4,a4,1
 1001ec8:	8edd                	or	a3,a3,a5
			if (--m <= 0) {
 1001eca:	02e80863          	beq	a6,a4,1001efa <BN_hex2bn+0xd2>
			c = a[j - m];
 1001ece:	00074603          	lbu	a2,0(a4)
			if ((c >= '0') && (c <= '9'))
 1001ed2:	fd06079b          	addiw	a5,a2,-48
			else if ((c >= 'a') && (c <= 'f'))
 1001ed6:	f9f6089b          	addiw	a7,a2,-97
			if ((c >= '0') && (c <= '9'))
 1001eda:	fef375e3          	bgeu	t1,a5,1001ec4 <BN_hex2bn+0x9c>
			else if ((c >= 'A') && (c <= 'F'))
 1001ede:	fbf60e9b          	addiw	t4,a2,-65
			else if ((c >= 'a') && (c <= 'f'))
 1001ee2:	fd1e7fe3          	bgeu	t3,a7,1001ec0 <BN_hex2bn+0x98>
				k = c - 'A' + 10;
 1001ee6:	4781                	li	a5,0
			else if ((c >= 'A') && (c <= 'F'))
 1001ee8:	fdde6ee3          	bltu	t3,t4,1001ec4 <BN_hex2bn+0x9c>
 1001eec:	fc96079b          	addiw	a5,a2,-55
			l = (l << 4) | k;
 1001ef0:	0692                	slli	a3,a3,0x4
 1001ef2:	0705                	addi	a4,a4,1
 1001ef4:	8edd                	or	a3,a3,a5
			if (--m <= 0) {
 1001ef6:	fce81ce3          	bne	a6,a4,1001ece <BN_hex2bn+0xa6>
				(*bn).digits[h++] = l;
 1001efa:	e194                	sd	a3,0(a1)
		j -= (BN_BYTES * 2);
 1001efc:	000f879b          	sext.w	a5,t6
	while (j > 0) {
 1001f00:	1f41                	addi	t5,t5,-16
 1001f02:	05a1                	addi	a1,a1,8
 1001f04:	00f28663          	beq	t0,a5,1001f10 <BN_hex2bn+0xe8>
 1001f08:	ff078f9b          	addiw	t6,a5,-16
 1001f0c:	b769                	j	1001e96 <BN_hex2bn+0x6e>
		return (0);
 1001f0e:	4981                	li	s3,0
}
 1001f10:	70a2                	ld	ra,40(sp)
 1001f12:	7402                	ld	s0,32(sp)
 1001f14:	64e2                	ld	s1,24(sp)
 1001f16:	6942                	ld	s2,16(sp)
 1001f18:	854e                	mv	a0,s3
 1001f1a:	69a2                	ld	s3,8(sp)
 1001f1c:	6145                	addi	sp,sp,48
 1001f1e:	8082                	ret
         bn->sign=-1;
 1001f20:	57fd                	li	a5,-1
 1001f22:	00f92023          	sw	a5,0(s2)
 1001f26:	0014c503          	lbu	a0,1(s1)
		neg = 1;
 1001f2a:	4985                	li	s3,1
		a++;
 1001f2c:	0485                	addi	s1,s1,1
 1001f2e:	b71d                	j	1001e54 <BN_hex2bn+0x2c>

0000000001001f30 <BN_bn2hex>:
        if(a->sign==-1)
 1001f30:	4118                	lw	a4,0(a0)
 1001f32:	57fd                	li	a5,-1
 1001f34:	00f71763          	bne	a4,a5,1001f42 <BN_bn2hex+0x12>
	  *(p++)='-';
 1001f38:	02d00793          	li	a5,45
 1001f3c:	00f58023          	sb	a5,0(a1)
 1001f40:	0585                	addi	a1,a1,1
 1001f42:	10850313          	addi	t1,a0,264
 1001f46:	4681                	li	a3,0
				*(p++) = Hex[v >> 4];
 1001f48:	bb018893          	addi	a7,gp,-1104 # 1004150 <Hex>
		for (j = WORD_SIZE - 8; j >= 0; j -= 8) {
 1001f4c:	5e61                	li	t3,-8
 1001f4e:	03800713          	li	a4,56
			v = ((int)(a->digits[i] >> (long)j)) & 0xff;
 1001f52:	00033783          	ld	a5,0(t1)
 1001f56:	00e7d7b3          	srl	a5,a5,a4
 1001f5a:	0ff7f813          	andi	a6,a5,255
 1001f5e:	2781                	sext.w	a5,a5
				*(p++) = Hex[v >> 4];
 1001f60:	00485613          	srli	a2,a6,0x4
				*(p++) = Hex[v & 0x0f];
 1001f64:	8bbd                	andi	a5,a5,15
			if (z || (v != 0)) {
 1001f66:	00d866b3          	or	a3,a6,a3
				*(p++) = Hex[v >> 4];
 1001f6a:	9646                	add	a2,a2,a7
		for (j = WORD_SIZE - 8; j >= 0; j -= 8) {
 1001f6c:	3761                	addiw	a4,a4,-8
				*(p++) = Hex[v & 0x0f];
 1001f6e:	97c6                	add	a5,a5,a7
			if (z || (v != 0)) {
 1001f70:	ca99                	beqz	a3,1001f86 <BN_bn2hex+0x56>
				*(p++) = Hex[v >> 4];
 1001f72:	00064683          	lbu	a3,0(a2)
				*(p++) = Hex[v & 0x0f];
 1001f76:	0007c783          	lbu	a5,0(a5)
 1001f7a:	0589                	addi	a1,a1,2
				*(p++) = Hex[v >> 4];
 1001f7c:	fed58f23          	sb	a3,-2(a1)
				*(p++) = Hex[v & 0x0f];
 1001f80:	fef58fa3          	sb	a5,-1(a1)
				z = 1;
 1001f84:	4685                	li	a3,1
		for (j = WORD_SIZE - 8; j >= 0; j -= 8) {
 1001f86:	fdc716e3          	bne	a4,t3,1001f52 <BN_bn2hex+0x22>
	for (i = MAX_DIGITS-1; i >= 0; i--) {
 1001f8a:	1361                	addi	t1,t1,-8
 1001f8c:	fc6511e3          	bne	a0,t1,1001f4e <BN_bn2hex+0x1e>
	*p='\0';
 1001f90:	00058023          	sb	zero,0(a1)
}
 1001f94:	8082                	ret

0000000001001f96 <BN_bn2hex2>:
	if(a->sign==-1)
 1001f96:	4118                	lw	a4,0(a0)
 1001f98:	57fd                	li	a5,-1
{
 1001f9a:	8e2a                	mv	t3,a0
 1001f9c:	852e                	mv	a0,a1
	if(a->sign==-1)
 1001f9e:	00f71863          	bne	a4,a5,1001fae <BN_bn2hex2+0x18>
		*(p++)='-';
 1001fa2:	02d00793          	li	a5,45
 1001fa6:	00f58023          	sb	a5,0(a1)
 1001faa:	00158513          	addi	a0,a1,1
 1001fae:	210e0893          	addi	a7,t3,528
 1001fb2:	4681                	li	a3,0
				*(p++) = Hex[v >> 4];
 1001fb4:	bb018813          	addi	a6,gp,-1104 # 1004150 <Hex>
		for (j = WORD_SIZE - 8; j >= 0; j -= 8) {
 1001fb8:	5361                	li	t1,-8
 1001fba:	03800713          	li	a4,56
			v = ((int)(a->muldigits[i] >> (long)j)) & 0xff;
 1001fbe:	0008b783          	ld	a5,0(a7)
 1001fc2:	00e7d7b3          	srl	a5,a5,a4
 1001fc6:	0ff7f593          	andi	a1,a5,255
 1001fca:	2781                	sext.w	a5,a5
				*(p++) = Hex[v >> 4];
 1001fcc:	0045d613          	srli	a2,a1,0x4
				*(p++) = Hex[v & 0x0f];
 1001fd0:	8bbd                	andi	a5,a5,15
			if (z || (v != 0)) {
 1001fd2:	8ecd                	or	a3,a3,a1
				*(p++) = Hex[v >> 4];
 1001fd4:	9642                	add	a2,a2,a6
		for (j = WORD_SIZE - 8; j >= 0; j -= 8) {
 1001fd6:	3761                	addiw	a4,a4,-8
				*(p++) = Hex[v & 0x0f];
 1001fd8:	97c2                	add	a5,a5,a6
			if (z || (v != 0)) {
 1001fda:	ca99                	beqz	a3,1001ff0 <BN_bn2hex2+0x5a>
				*(p++) = Hex[v >> 4];
 1001fdc:	00064683          	lbu	a3,0(a2)
				*(p++) = Hex[v & 0x0f];
 1001fe0:	0007c783          	lbu	a5,0(a5)
 1001fe4:	0509                	addi	a0,a0,2
				*(p++) = Hex[v >> 4];
 1001fe6:	fed50f23          	sb	a3,-2(a0)
				*(p++) = Hex[v & 0x0f];
 1001fea:	fef50fa3          	sb	a5,-1(a0)
				z = 1;
 1001fee:	4685                	li	a3,1
		for (j = WORD_SIZE - 8; j >= 0; j -= 8) {
 1001ff0:	fc6717e3          	bne	a4,t1,1001fbe <BN_bn2hex2+0x28>
	for (i = (2*MAX_DIGITS)-1; i >= 0; i--) {
 1001ff4:	18e1                	addi	a7,a7,-8
 1001ff6:	fd1e12e3          	bne	t3,a7,1001fba <BN_bn2hex2+0x24>
	*p='\0';
 1001ffa:	00050023          	sb	zero,0(a0)
}
 1001ffe:	8082                	ret

0000000001002000 <BN_compare>:
{
 1002000:	882a                	mv	a6,a0
 1002002:	10850713          	addi	a4,a0,264
 1002006:	02100793          	li	a5,33
 100200a:	a019                	j	1002010 <BN_compare+0x10>
 100200c:	17fd                	addi	a5,a5,-1
    for( i = MAX_DIGITS; i > 0; i-- )
 100200e:	c781                	beqz	a5,1002016 <BN_compare+0x16>
        if( X->digits[i - 1] != 0 )
 1002010:	6314                	ld	a3,0(a4)
 1002012:	1761                	addi	a4,a4,-8
 1002014:	dee5                	beqz	a3,100200c <BN_compare+0xc>
    for( j = MAX_DIGITS; j > 0; j-- )
 1002016:	10858713          	addi	a4,a1,264
{
 100201a:	02100693          	li	a3,33
 100201e:	a019                	j	1002024 <BN_compare+0x24>
 1002020:	16fd                	addi	a3,a3,-1
    for( j = MAX_DIGITS; j > 0; j-- )
 1002022:	c2b9                	beqz	a3,1002068 <BN_compare+0x68>
        if( Y->digits[j - 1] != 0 )
 1002024:	6310                	ld	a2,0(a4)
 1002026:	1761                	addi	a4,a4,-8
 1002028:	de65                	beqz	a2,1002020 <BN_compare+0x20>
    if( i > j ) return(  X->sign );
 100202a:	02f6ec63          	bltu	a3,a5,1002062 <BN_compare+0x62>
    if( j > i ) return( -Y->sign );
 100202e:	4198                	lw	a4,0(a1)
 1002030:	04d7e463          	bltu	a5,a3,1002078 <BN_compare+0x78>
    if( X->sign > 0 && Y->sign < 0 ) return(  1 );
 1002034:	00082503          	lw	a0,0(a6)
 1002038:	02a05b63          	blez	a0,100206e <BN_compare+0x6e>
 100203c:	04074363          	bltz	a4,1002082 <BN_compare+0x82>
 1002040:	078e                	slli	a5,a5,0x3
 1002042:	00f80733          	add	a4,a6,a5
 1002046:	97ae                	add	a5,a5,a1
    for( ; i > 0; i-- )
 1002048:	02e80b63          	beq	a6,a4,100207e <BN_compare+0x7e>
        if( X->digits[i - 1] > Y->digits[i - 1] ) return(  X->sign );
 100204c:	6310                	ld	a2,0(a4)
 100204e:	6394                	ld	a3,0(a5)
 1002050:	1761                	addi	a4,a4,-8
 1002052:	17e1                	addi	a5,a5,-8
 1002054:	00c6ec63          	bltu	a3,a2,100206c <BN_compare+0x6c>
        if( X->digits[i - 1] < Y->digits[i - 1] ) return( -X->sign );
 1002058:	fed678e3          	bgeu	a2,a3,1002048 <BN_compare+0x48>
 100205c:	40a0053b          	negw	a0,a0
 1002060:	8082                	ret
    if( i > j ) return(  X->sign );
 1002062:	00082503          	lw	a0,0(a6)
 1002066:	8082                	ret
        return( 0 );
 1002068:	4501                	li	a0,0
    if( i == 0 && j == 0 )
 100206a:	f3e1                	bnez	a5,100202a <BN_compare+0x2a>
}
 100206c:	8082                	ret
    if( Y->sign > 0 && X->sign < 0 ) return( -1 );
 100206e:	fce059e3          	blez	a4,1002040 <BN_compare+0x40>
 1002072:	d579                	beqz	a0,1002040 <BN_compare+0x40>
 1002074:	557d                	li	a0,-1
}
 1002076:	8082                	ret
    if( j > i ) return( -Y->sign );
 1002078:	40e0053b          	negw	a0,a4
 100207c:	8082                	ret
        return( 0 );
 100207e:	4501                	li	a0,0
 1002080:	8082                	ret
    if( X->sign > 0 && Y->sign < 0 ) return(  1 );
 1002082:	4505                	li	a0,1
 1002084:	8082                	ret

0000000001002086 <BN_sub>:
{
 1002086:	7179                	addi	sp,sp,-48
    if( A->sign * B->sign > 0 )
 1002088:	421c                	lw	a5,0(a2)
{
 100208a:	e44e                	sd	s3,8(sp)
    int ret, sign = A->sign;
 100208c:	0005a983          	lw	s3,0(a1)
{
 1002090:	e84a                	sd	s2,16(sp)
 1002092:	f406                	sd	ra,40(sp)
    if( A->sign * B->sign > 0 )
 1002094:	033787bb          	mulw	a5,a5,s3
{
 1002098:	f022                	sd	s0,32(sp)
 100209a:	ec26                	sd	s1,24(sp)
 100209c:	892a                	mv	s2,a0
    if( A->sign * B->sign > 0 )
 100209e:	04f05863          	blez	a5,10020ee <BN_sub+0x68>
        if( BN_cmp_abs( A, B ) >= 0 )
 10020a2:	84ae                	mv	s1,a1
 10020a4:	8526                	mv	a0,s1
 10020a6:	85b2                	mv	a1,a2
 10020a8:	8432                	mv	s0,a2
 10020aa:	b0eff0ef          	jal	ra,10013b8 <BN_cmp_abs>
 10020ae:	02054063          	bltz	a0,10020ce <BN_sub+0x48>
            BN_sub_abs( X, A, B );
 10020b2:	8622                	mv	a2,s0
 10020b4:	85a6                	mv	a1,s1
 10020b6:	854a                	mv	a0,s2
 10020b8:	c98ff0ef          	jal	ra,1001550 <BN_sub_abs>
}
 10020bc:	70a2                	ld	ra,40(sp)
 10020be:	7402                	ld	s0,32(sp)
            X->sign =  sign;
 10020c0:	01392023          	sw	s3,0(s2)
}
 10020c4:	64e2                	ld	s1,24(sp)
 10020c6:	6942                	ld	s2,16(sp)
 10020c8:	69a2                	ld	s3,8(sp)
 10020ca:	6145                	addi	sp,sp,48
 10020cc:	8082                	ret
            BN_sub_abs( X, B, A );
 10020ce:	8626                	mv	a2,s1
 10020d0:	85a2                	mv	a1,s0
 10020d2:	854a                	mv	a0,s2
 10020d4:	c7cff0ef          	jal	ra,1001550 <BN_sub_abs>
}
 10020d8:	70a2                	ld	ra,40(sp)
 10020da:	7402                	ld	s0,32(sp)
            X->sign = -sign;
 10020dc:	413009bb          	negw	s3,s3
 10020e0:	01392023          	sw	s3,0(s2)
}
 10020e4:	64e2                	ld	s1,24(sp)
 10020e6:	6942                	ld	s2,16(sp)
 10020e8:	69a2                	ld	s3,8(sp)
 10020ea:	6145                	addi	sp,sp,48
 10020ec:	8082                	ret
        BN_add_abs( X, A, B );
 10020ee:	b96ff0ef          	jal	ra,1001484 <BN_add_abs>
}
 10020f2:	70a2                	ld	ra,40(sp)
 10020f4:	7402                	ld	s0,32(sp)
        X->sign = sign;
 10020f6:	01392023          	sw	s3,0(s2)
}
 10020fa:	64e2                	ld	s1,24(sp)
 10020fc:	6942                	ld	s2,16(sp)
 10020fe:	69a2                	ld	s3,8(sp)
 1002100:	6145                	addi	sp,sp,48
 1002102:	8082                	ret

0000000001002104 <BN_add>:
{
 1002104:	7179                	addi	sp,sp,-48
    if( A->sign * B->sign < 0 )
 1002106:	421c                	lw	a5,0(a2)
{
 1002108:	e44e                	sd	s3,8(sp)
    int ret, s = A->sign;
 100210a:	0005a983          	lw	s3,0(a1)
{
 100210e:	e84a                	sd	s2,16(sp)
 1002110:	f406                	sd	ra,40(sp)
    if( A->sign * B->sign < 0 )
 1002112:	033787bb          	mulw	a5,a5,s3
{
 1002116:	f022                	sd	s0,32(sp)
 1002118:	ec26                	sd	s1,24(sp)
 100211a:	892a                	mv	s2,a0
    if( A->sign * B->sign < 0 )
 100211c:	0407d863          	bgez	a5,100216c <BN_add+0x68>
        if( BN_cmp_abs( A, B ) >= 0 )
 1002120:	84ae                	mv	s1,a1
 1002122:	8526                	mv	a0,s1
 1002124:	85b2                	mv	a1,a2
 1002126:	8432                	mv	s0,a2
 1002128:	a90ff0ef          	jal	ra,10013b8 <BN_cmp_abs>
 100212c:	02054063          	bltz	a0,100214c <BN_add+0x48>
            BN_sub_abs( X, A, B );
 1002130:	8622                	mv	a2,s0
 1002132:	85a6                	mv	a1,s1
 1002134:	854a                	mv	a0,s2
 1002136:	c1aff0ef          	jal	ra,1001550 <BN_sub_abs>
}
 100213a:	70a2                	ld	ra,40(sp)
 100213c:	7402                	ld	s0,32(sp)
            X->sign =  s;
 100213e:	01392023          	sw	s3,0(s2)
}
 1002142:	64e2                	ld	s1,24(sp)
 1002144:	6942                	ld	s2,16(sp)
 1002146:	69a2                	ld	s3,8(sp)
 1002148:	6145                	addi	sp,sp,48
 100214a:	8082                	ret
            BN_sub_abs( X, B, A );
 100214c:	8626                	mv	a2,s1
 100214e:	85a2                	mv	a1,s0
 1002150:	854a                	mv	a0,s2
 1002152:	bfeff0ef          	jal	ra,1001550 <BN_sub_abs>
}
 1002156:	70a2                	ld	ra,40(sp)
 1002158:	7402                	ld	s0,32(sp)
            X->sign = -s;
 100215a:	413009bb          	negw	s3,s3
 100215e:	01392023          	sw	s3,0(s2)
}
 1002162:	64e2                	ld	s1,24(sp)
 1002164:	6942                	ld	s2,16(sp)
 1002166:	69a2                	ld	s3,8(sp)
 1002168:	6145                	addi	sp,sp,48
 100216a:	8082                	ret
        BN_add_abs( X, A, B );
 100216c:	b18ff0ef          	jal	ra,1001484 <BN_add_abs>
}
 1002170:	70a2                	ld	ra,40(sp)
 1002172:	7402                	ld	s0,32(sp)
        X->sign = s;
 1002174:	01392023          	sw	s3,0(s2)
}
 1002178:	64e2                	ld	s1,24(sp)
 100217a:	6942                	ld	s2,16(sp)
 100217c:	69a2                	ld	s3,8(sp)
 100217e:	6145                	addi	sp,sp,48
 1002180:	8082                	ret

0000000001002182 <BN_mont_mul>:
 ******************************************************************************/

void BN_mont_mul(bignum_t *A, bignum_t *B , bignum_t *N, bignum_t RR)
{
	word mm; char* p;
	BN_montg_init( &mm, N );
 1002182:	00863883          	ld	a7,8(a2)
{
 1002186:	db010113          	addi	sp,sp,-592
 100218a:	22913c23          	sd	s1,568(sp)
	x += (( m0 + 2 ) & 4 ) << 1;
 100218e:	00288793          	addi	a5,a7,2
 1002192:	0786                	slli	a5,a5,0x1
 1002194:	8ba1                	andi	a5,a5,8
{
 1002196:	23213823          	sd	s2,560(sp)
 100219a:	23313423          	sd	s3,552(sp)
 100219e:	8932                	mv	s2,a2
 10021a0:	24113423          	sd	ra,584(sp)
 10021a4:	24813023          	sd	s0,576(sp)
 10021a8:	84aa                	mv	s1,a0
 10021aa:	89b6                	mv	s3,a3
	x += (( m0 + 2 ) & 4 ) << 1;
 10021ac:	97c6                	add	a5,a5,a7
 10021ae:	4811                	li	a6,4
		x *= ( 2 - ( m0 * x ) );
 10021b0:	4609                	li	a2,2
 10021b2:	02f88733          	mul	a4,a7,a5
 10021b6:	387d                	addiw	a6,a6,-1
 10021b8:	40e60733          	sub	a4,a2,a4
 10021bc:	02e787b3          	mul	a5,a5,a4
	for( i = BIL; i >= 8; i /= 2 )
 10021c0:	fe0819e3          	bnez	a6,10021b2 <BN_mont_mul+0x30>
	*mm = ~x + 1;
 10021c4:	40f00433          	neg	s0,a5
	mulnum_t T;
	BN_montmul( A, B, N, mm, &T );
 10021c8:	0038                	addi	a4,sp,8
 10021ca:	86a2                	mv	a3,s0
 10021cc:	864a                	mv	a2,s2
 10021ce:	8526                	mv	a0,s1
 10021d0:	a7dff0ef          	jal	ra,1001c4c <BN_montmul>
	BN_montmul( A, &RR, N, mm, &T);
 10021d4:	0038                	addi	a4,sp,8
 10021d6:	86a2                	mv	a3,s0
 10021d8:	864a                	mv	a2,s2
 10021da:	85ce                	mv	a1,s3
 10021dc:	8526                	mv	a0,s1
 10021de:	a6fff0ef          	jal	ra,1001c4c <BN_montmul>
	A->sign=1;
}
 10021e2:	24813083          	ld	ra,584(sp)
 10021e6:	24013403          	ld	s0,576(sp)
	A->sign=1;
 10021ea:	4785                	li	a5,1
 10021ec:	c09c                	sw	a5,0(s1)
}
 10021ee:	23013903          	ld	s2,560(sp)
 10021f2:	23813483          	ld	s1,568(sp)
 10021f6:	22813983          	ld	s3,552(sp)
 10021fa:	25010113          	addi	sp,sp,592
 10021fe:	8082                	ret

0000000001002200 <BN_shift_right>:
    word r0 = 0, r1;

    v0 = count /  BIL;
    v1 = count & (BIL - 1);

    if( v0 > MAX_DIGITS || ( v0 == MAX_DIGITS && v1 > 0 ) )
 1002200:	6785                	lui	a5,0x1
 1002202:	87f78793          	addi	a5,a5,-1921 # 87f <_tbss_end+0x87f>
 1002206:	08b7e863          	bltu	a5,a1,1002296 <BN_shift_right+0x96>
    v0 = count /  BIL;
 100220a:	0065d813          	srli	a6,a1,0x6
    if( v0 > MAX_DIGITS || ( v0 == MAX_DIGITS && v1 > 0 ) )
 100220e:	02100613          	li	a2,33
    v1 = count & (BIL - 1);
 1002212:	03f5f893          	andi	a7,a1,63
    if( v0 > MAX_DIGITS || ( v0 == MAX_DIGITS && v1 > 0 ) )
 1002216:	06c80d63          	beq	a6,a2,1002290 <BN_shift_right+0x90>
        return BN_lset( X, 0 );

    /*
     * shift by count / limb_size
     */
    if( v0 > 0 )
 100221a:	03f00793          	li	a5,63
 100221e:	04b7f263          	bgeu	a5,a1,1002262 <BN_shift_right+0x62>
    {
        for( i = 0; i < MAX_DIGITS - v0; i++ )
 1002222:	41060633          	sub	a2,a2,a6
 1002226:	00850793          	addi	a5,a0,8
 100222a:	080e                	slli	a6,a6,0x3
 100222c:	4701                	li	a4,0
            X->digits[i] = X->digits[i + v0];
 100222e:	010786b3          	add	a3,a5,a6
 1002232:	6294                	ld	a3,0(a3)
        for( i = 0; i < MAX_DIGITS - v0; i++ )
 1002234:	0705                	addi	a4,a4,1
 1002236:	07a1                	addi	a5,a5,8
            X->digits[i] = X->digits[i + v0];
 1002238:	fed7bc23          	sd	a3,-8(a5)
        for( i = 0; i < MAX_DIGITS - v0; i++ )
 100223c:	fec769e3          	bltu	a4,a2,100222e <BN_shift_right+0x2e>
 1002240:	4785                	li	a5,1
 1002242:	e225                	bnez	a2,10022a2 <BN_shift_right+0xa2>

        for( ; i < MAX_DIGITS; i++ )
 1002244:	02100713          	li	a4,33
 1002248:	00e78d63          	beq	a5,a4,1002262 <BN_shift_right+0x62>
 100224c:	00379713          	slli	a4,a5,0x3
 1002250:	972a                	add	a4,a4,a0
 1002252:	02100693          	li	a3,33
            X->digits[i] = 0;
 1002256:	00073423          	sd	zero,8(a4)
        for( ; i < MAX_DIGITS; i++ )
 100225a:	0785                	addi	a5,a5,1
 100225c:	0721                	addi	a4,a4,8
 100225e:	fed79ce3          	bne	a5,a3,1002256 <BN_shift_right+0x56>
    }

    /*
     * shift by count % limb_size
     */
    if( v1 > 0 )
 1002262:	02088563          	beqz	a7,100228c <BN_shift_right+0x8c>
 1002266:	04000593          	li	a1,64
 100226a:	0008881b          	sext.w	a6,a7
 100226e:	411585bb          	subw	a1,a1,a7
 1002272:	10850793          	addi	a5,a0,264
    word r0 = 0, r1;
 1002276:	4701                	li	a4,0
    {
        for( i = MAX_DIGITS; i > 0; i-- )
        {
            r1 = X->digits[i - 1] << (BIL - v1);
 1002278:	6390                	ld	a2,0(a5)
 100227a:	17e1                	addi	a5,a5,-8
            X->digits[i - 1] >>= v1;
 100227c:	010656b3          	srl	a3,a2,a6
            X->digits[i - 1] |= r0;
 1002280:	8f55                	or	a4,a4,a3
 1002282:	e798                	sd	a4,8(a5)
            r1 = X->digits[i - 1] << (BIL - v1);
 1002284:	00b61733          	sll	a4,a2,a1
        for( i = MAX_DIGITS; i > 0; i-- )
 1002288:	fef518e3          	bne	a0,a5,1002278 <BN_shift_right+0x78>
            r0 = r1;
        }
    }

    return( 0 );
}
 100228c:	4501                	li	a0,0
 100228e:	8082                	ret
 1002290:	4781                	li	a5,0
    if( v0 > MAX_DIGITS || ( v0 == MAX_DIGITS && v1 > 0 ) )
 1002292:	fa088de3          	beqz	a7,100224c <BN_shift_right+0x4c>
    X->sign    = ( z < 0 ) ? -1 : 1;
 1002296:	4785                	li	a5,1
    X->digits[0] = ( z < 0 ) ? -z : z;
 1002298:	00053423          	sd	zero,8(a0)
    X->sign    = ( z < 0 ) ? -1 : 1;
 100229c:	c11c                	sw	a5,0(a0)
}
 100229e:	4501                	li	a0,0
 10022a0:	8082                	ret
 10022a2:	87b2                	mv	a5,a2
        for( ; i < MAX_DIGITS; i++ )
 10022a4:	02100713          	li	a4,33
 10022a8:	fae792e3          	bne	a5,a4,100224c <BN_shift_right+0x4c>
 10022ac:	bf5d                	j	1002262 <BN_shift_right+0x62>

00000000010022ae <BN_gcd>:
/*
 * The function computes the GCD of P and Q and returns the result in result 
 * It uses the Euclidean Algorithm
 */
void BN_gcd(bignum_t *result, bignum_t * P, bignum_t *Q)
{
 10022ae:	a5010113          	addi	sp,sp,-1456
 10022b2:	5a813023          	sd	s0,1440(sp)
 10022b6:	59213823          	sd	s2,1424(sp)
    X->sign = 1;
 10022ba:	4405                	li	s0,1
{
 10022bc:	892a                	mv	s2,a0
 10022be:	0808                	addi	a0,sp,16
 10022c0:	5a113423          	sd	ra,1448(sp)
 10022c4:	58913c23          	sd	s1,1432(sp)
 10022c8:	59313423          	sd	s3,1416(sp)
 10022cc:	84b2                	mv	s1,a2
 10022ce:	89ae                	mv	s3,a1
 10022d0:	59413023          	sd	s4,1408(sp)
 10022d4:	57513c23          	sd	s5,1400(sp)
 10022d8:	57713423          	sd	s7,1384(sp)
 10022dc:	57613823          	sd	s6,1392(sp)
 10022e0:	57813023          	sd	s8,1376(sp)
    X->sign = 1;
 10022e4:	c822                	sw	s0,16(sp)
    for(i=0;i<MAX_DIGITS;i++)
 10022e6:	23010b93          	addi	s7,sp,560
 10022ea:	986ff0ef          	jal	ra,1001470 <BN_init.part.0>
    X->sign = 1;
 10022ee:	855e                	mv	a0,s7
 10022f0:	34010a93          	addi	s5,sp,832
 10022f4:	22812823          	sw	s0,560(sp)
    for(i=0;i<MAX_DIGITS;i++)
 10022f8:	978ff0ef          	jal	ra,1001470 <BN_init.part.0>
    X->sign = 1;
 10022fc:	8556                	mv	a0,s5
 10022fe:	34812023          	sw	s0,832(sp)
    for(i=0;i<MAX_DIGITS;i++)
 1002302:	45010a13          	addi	s4,sp,1104
 1002306:	96aff0ef          	jal	ra,1001470 <BN_init.part.0>
    X->sign = 1;
 100230a:	8552                	mv	a0,s4
 100230c:	44812823          	sw	s0,1104(sp)
    for(i=0;i<MAX_DIGITS;i++)
 1002310:	960ff0ef          	jal	ra,1001470 <BN_init.part.0>
    X->sign = 1;
 1002314:	8556                	mv	a0,s5
 1002316:	34812023          	sw	s0,832(sp)
    for(i=0;i<MAX_DIGITS;i++)
 100231a:	956ff0ef          	jal	ra,1001470 <BN_init.part.0>
    for(i=0;i<MAX_DIGITS;i++)
 100231e:	00898713          	addi	a4,s3,8
 1002322:	06bc                	addi	a5,sp,840
	X->digits[i]=Y->digits[i];
 1002324:	6314                	ld	a3,0(a4)
 1002326:	07a1                	addi	a5,a5,8
 1002328:	0721                	addi	a4,a4,8
 100232a:	fed7bc23          	sd	a3,-8(a5)
    for(i=0;i<MAX_DIGITS;i++)
 100232e:	fefa1be3          	bne	s4,a5,1002324 <BN_gcd+0x76>
    X->sign = Y->sign;
 1002332:	0009a783          	lw	a5,0(s3)
 1002336:	8552                	mv	a0,s4
 1002338:	45810b13          	addi	s6,sp,1112
 100233c:	34f12023          	sw	a5,832(sp)
    X->sign = 1;
 1002340:	4785                	li	a5,1
 1002342:	44f12823          	sw	a5,1104(sp)
    for(i=0;i<MAX_DIGITS;i++)
 1002346:	92aff0ef          	jal	ra,1001470 <BN_init.part.0>
    for(i=0;i<MAX_DIGITS;i++)
 100234a:	56010413          	addi	s0,sp,1376
 100234e:	00848713          	addi	a4,s1,8
 1002352:	87da                	mv	a5,s6
	X->digits[i]=Y->digits[i];
 1002354:	6314                	ld	a3,0(a4)
 1002356:	07a1                	addi	a5,a5,8
 1002358:	0721                	addi	a4,a4,8
 100235a:	fed7bc23          	sd	a3,-8(a5)
    for(i=0;i<MAX_DIGITS;i++)
 100235e:	fe879be3          	bne	a5,s0,1002354 <BN_gcd+0xa6>
    X->sign = Y->sign;
 1002362:	409c                	lw	a5,0(s1)
  BN_init(&Y);
  BN_copy(&X,P);
  BN_copy(&Y,Q);
    char one []="1";
  char zero []="0";
BN_hex2bn(&bn_one, one);
 1002364:	858a                	mv	a1,sp
 1002366:	0808                	addi	a0,sp,16
    X->sign = Y->sign;
 1002368:	44f12823          	sw	a5,1104(sp)
    char one []="1";
 100236c:	03100793          	li	a5,49
 1002370:	00f11023          	sh	a5,0(sp)
  char zero []="0";
 1002374:	03000793          	li	a5,48
 1002378:	00f11423          	sh	a5,8(sp)
BN_hex2bn(&bn_one, one);
 100237c:	aadff0ef          	jal	ra,1001e28 <BN_hex2bn>
BN_hex2bn(&bn_zero, zero);
 1002380:	002c                	addi	a1,sp,8
 1002382:	855e                	mv	a0,s7
 1002384:	aa5ff0ef          	jal	ra,1001e28 <BN_hex2bn>
int count=0;
  while((X.digits[0]&1)==0 && (Y.digits[0]&1)==0)
 1002388:	34813683          	ld	a3,840(sp)
int count=0;
 100238c:	4481                	li	s1,0
  while((X.digits[0]&1)==0 && (Y.digits[0]&1)==0)
 100238e:	0016f713          	andi	a4,a3,1
 1002392:	87b6                	mv	a5,a3
 1002394:	e731                	bnez	a4,10023e0 <BN_gcd+0x132>
 1002396:	45813703          	ld	a4,1112(sp)
 100239a:	8b05                	andi	a4,a4,1
 100239c:	1e071c63          	bnez	a4,1002594 <BN_gcd+0x2e6>
 10023a0:	44810793          	addi	a5,sp,1096
    word r0 = 0, r1;
 10023a4:	4681                	li	a3,0
            r1 = X->digits[i - 1] << (BIL - v1);
 10023a6:	638c                	ld	a1,0(a5)
 10023a8:	17e1                	addi	a5,a5,-8
            X->digits[i - 1] >>= v1;
 10023aa:	0015d613          	srli	a2,a1,0x1
            X->digits[i - 1] |= r0;
 10023ae:	8ed1                	or	a3,a3,a2
 10023b0:	e794                	sd	a3,8(a5)
            r1 = X->digits[i - 1] << (BIL - v1);
 10023b2:	03f59693          	slli	a3,a1,0x3f
        for( i = MAX_DIGITS; i > 0; i-- )
 10023b6:	fefa98e3          	bne	s5,a5,10023a6 <BN_gcd+0xf8>
 10023ba:	55810793          	addi	a5,sp,1368
            r1 = X->digits[i - 1] << (BIL - v1);
 10023be:	6390                	ld	a2,0(a5)
 10023c0:	17e1                	addi	a5,a5,-8
            X->digits[i - 1] >>= v1;
 10023c2:	00165693          	srli	a3,a2,0x1
            X->digits[i - 1] |= r0;
 10023c6:	8f55                	or	a4,a4,a3
 10023c8:	e798                	sd	a4,8(a5)
            r1 = X->digits[i - 1] << (BIL - v1);
 10023ca:	03f61713          	slli	a4,a2,0x3f
        for( i = MAX_DIGITS; i > 0; i-- )
 10023ce:	fefa18e3          	bne	s4,a5,10023be <BN_gcd+0x110>
  while((X.digits[0]&1)==0 && (Y.digits[0]&1)==0)
 10023d2:	34813783          	ld	a5,840(sp)
	{
		BN_shift_right(&X, 1);
		BN_shift_right(&Y, 1);
                count++;
 10023d6:	2485                	addiw	s1,s1,1
  while((X.digits[0]&1)==0 && (Y.digits[0]&1)==0)
 10023d8:	0017f713          	andi	a4,a5,1
 10023dc:	86be                	mv	a3,a5
 10023de:	df45                	beqz	a4,1002396 <BN_gcd+0xe8>
	  BN_sub(&t,&X,&Y);
	  BN_shift_right(&t, 1);
	}
	else
	{
  	   BN_sub(&t,&Y,&X);
 10023e0:	12010c13          	addi	s8,sp,288
    X->sign = 1;
 10023e4:	4985                	li	s3,1
    for(i=0; i<MAX_DIGITS; i++)
 10023e6:	8736                	mv	a4,a3
 10023e8:	0e9c                	addi	a5,sp,848
        if(X->digits[i]!=0)
 10023ea:	e711                	bnez	a4,10023f6 <BN_gcd+0x148>
    for(i=0; i<MAX_DIGITS; i++)
 10023ec:	10fa0663          	beq	s4,a5,10024f8 <BN_gcd+0x24a>
 10023f0:	6398                	ld	a4,0(a5)
 10023f2:	07a1                	addi	a5,a5,8
        if(X->digits[i]!=0)
 10023f4:	df65                	beqz	a4,10023ec <BN_gcd+0x13e>
     while((X.digits[0]&1)==0)
 10023f6:	8a85                	andi	a3,a3,1
 10023f8:	e295                	bnez	a3,100241c <BN_gcd+0x16e>
 10023fa:	44810793          	addi	a5,sp,1096
    word r0 = 0, r1;
 10023fe:	4701                	li	a4,0
            r1 = X->digits[i - 1] << (BIL - v1);
 1002400:	6390                	ld	a2,0(a5)
 1002402:	17e1                	addi	a5,a5,-8
            X->digits[i - 1] >>= v1;
 1002404:	00165693          	srli	a3,a2,0x1
            X->digits[i - 1] |= r0;
 1002408:	8f55                	or	a4,a4,a3
 100240a:	e798                	sd	a4,8(a5)
            r1 = X->digits[i - 1] << (BIL - v1);
 100240c:	03f61713          	slli	a4,a2,0x3f
        for( i = MAX_DIGITS; i > 0; i-- )
 1002410:	fefa98e3          	bne	s5,a5,1002400 <BN_gcd+0x152>
     while((X.digits[0]&1)==0)
 1002414:	34813783          	ld	a5,840(sp)
 1002418:	8b85                	andi	a5,a5,1
 100241a:	d3e5                	beqz	a5,10023fa <BN_gcd+0x14c>
      while((Y.digits[0]&1)==0)
 100241c:	45813783          	ld	a5,1112(sp)
 1002420:	8b85                	andi	a5,a5,1
 1002422:	e395                	bnez	a5,1002446 <BN_gcd+0x198>
 1002424:	55810793          	addi	a5,sp,1368
    word r0 = 0, r1;
 1002428:	4701                	li	a4,0
            r1 = X->digits[i - 1] << (BIL - v1);
 100242a:	6390                	ld	a2,0(a5)
 100242c:	17e1                	addi	a5,a5,-8
            X->digits[i - 1] >>= v1;
 100242e:	00165693          	srli	a3,a2,0x1
            X->digits[i - 1] |= r0;
 1002432:	8f55                	or	a4,a4,a3
 1002434:	e798                	sd	a4,8(a5)
            r1 = X->digits[i - 1] << (BIL - v1);
 1002436:	03f61713          	slli	a4,a2,0x3f
        for( i = MAX_DIGITS; i > 0; i-- )
 100243a:	fefa18e3          	bne	s4,a5,100242a <BN_gcd+0x17c>
      while((Y.digits[0]&1)==0)
 100243e:	45813783          	ld	a5,1112(sp)
 1002442:	8b85                	andi	a5,a5,1
 1002444:	d3e5                	beqz	a5,1002424 <BN_gcd+0x176>
      if(BN_compare(&X,&Y)>=0)
 1002446:	85d2                	mv	a1,s4
 1002448:	8556                	mv	a0,s5
 100244a:	bb7ff0ef          	jal	ra,1002000 <BN_compare>
 100244e:	08054363          	bltz	a0,10024d4 <BN_gcd+0x226>
	  BN_sub(&t,&X,&Y);
 1002452:	8652                	mv	a2,s4
 1002454:	85d6                	mv	a1,s5
 1002456:	8562                	mv	a0,s8
 1002458:	c2fff0ef          	jal	ra,1002086 <BN_sub>
        for( i = MAX_DIGITS; i > 0; i-- )
 100245c:	143c                	addi	a5,sp,552
    word r0 = 0, r1;
 100245e:	4701                	li	a4,0
            r1 = X->digits[i - 1] << (BIL - v1);
 1002460:	6390                	ld	a2,0(a5)
 1002462:	17e1                	addi	a5,a5,-8
            X->digits[i - 1] >>= v1;
 1002464:	00165693          	srli	a3,a2,0x1
            X->digits[i - 1] |= r0;
 1002468:	8f55                	or	a4,a4,a3
 100246a:	e798                	sd	a4,8(a5)
            r1 = X->digits[i - 1] << (BIL - v1);
 100246c:	03f61713          	slli	a4,a2,0x3f
        for( i = MAX_DIGITS; i > 0; i-- )
 1002470:	fefc18e3          	bne	s8,a5,1002460 <BN_gcd+0x1b2>
	   BN_shift_right(&t, 1);
	}
     if(BN_compare(&X,&Y)>=0)
 1002474:	85d2                	mv	a1,s4
 1002476:	8556                	mv	a0,s5
 1002478:	b89ff0ef          	jal	ra,1002000 <BN_compare>
 100247c:	02054763          	bltz	a0,10024aa <BN_gcd+0x1fc>
    X->sign = 1;
 1002480:	8556                	mv	a0,s5
 1002482:	35312023          	sw	s3,832(sp)
    for(i=0;i<MAX_DIGITS;i++)
 1002486:	febfe0ef          	jal	ra,1001470 <BN_init.part.0>
    for(i=0;i<MAX_DIGITS;i++)
 100248a:	123c                	addi	a5,sp,296
 100248c:	06b8                	addi	a4,sp,840
	X->digits[i]=Y->digits[i];
 100248e:	6394                	ld	a3,0(a5)
 1002490:	07a1                	addi	a5,a5,8
 1002492:	0721                	addi	a4,a4,8
 1002494:	fed73c23          	sd	a3,-8(a4)
    for(i=0;i<MAX_DIGITS;i++)
 1002498:	fefb9be3          	bne	s7,a5,100248e <BN_gcd+0x1e0>
    X->sign = Y->sign;
 100249c:	12012783          	lw	a5,288(sp)
 10024a0:	34813683          	ld	a3,840(sp)
 10024a4:	34f12023          	sw	a5,832(sp)
 10024a8:	bf3d                	j	10023e6 <BN_gcd+0x138>
    X->sign = 1;
 10024aa:	8552                	mv	a0,s4
 10024ac:	45312823          	sw	s3,1104(sp)
    for(i=0;i<MAX_DIGITS;i++)
 10024b0:	fc1fe0ef          	jal	ra,1001470 <BN_init.part.0>
    for(i=0;i<MAX_DIGITS;i++)
 10024b4:	123c                	addi	a5,sp,296
 10024b6:	875a                	mv	a4,s6
	X->digits[i]=Y->digits[i];
 10024b8:	6394                	ld	a3,0(a5)
 10024ba:	07a1                	addi	a5,a5,8
 10024bc:	0721                	addi	a4,a4,8
 10024be:	fed73c23          	sd	a3,-8(a4)
    for(i=0;i<MAX_DIGITS;i++)
 10024c2:	fefb9be3          	bne	s7,a5,10024b8 <BN_gcd+0x20a>
    X->sign = Y->sign;
 10024c6:	12012783          	lw	a5,288(sp)
 10024ca:	34813683          	ld	a3,840(sp)
 10024ce:	44f12823          	sw	a5,1104(sp)
 10024d2:	bf11                	j	10023e6 <BN_gcd+0x138>
  	   BN_sub(&t,&Y,&X);
 10024d4:	8656                	mv	a2,s5
 10024d6:	85d2                	mv	a1,s4
 10024d8:	8562                	mv	a0,s8
 10024da:	badff0ef          	jal	ra,1002086 <BN_sub>
        for( i = MAX_DIGITS; i > 0; i-- )
 10024de:	143c                	addi	a5,sp,552
    word r0 = 0, r1;
 10024e0:	4701                	li	a4,0
            r1 = X->digits[i - 1] << (BIL - v1);
 10024e2:	6390                	ld	a2,0(a5)
 10024e4:	17e1                	addi	a5,a5,-8
            X->digits[i - 1] >>= v1;
 10024e6:	00165693          	srli	a3,a2,0x1
            X->digits[i - 1] |= r0;
 10024ea:	8f55                	or	a4,a4,a3
 10024ec:	e798                	sd	a4,8(a5)
            r1 = X->digits[i - 1] << (BIL - v1);
 10024ee:	03f61713          	slli	a4,a2,0x3f
        for( i = MAX_DIGITS; i > 0; i-- )
 10024f2:	fefc18e3          	bne	s8,a5,10024e2 <BN_gcd+0x234>
 10024f6:	bfbd                	j	1002474 <BN_gcd+0x1c6>
          BN_copy(&X,&t);
	else
	 BN_copy(&Y,&t);
  }
int i;
   for(i=0;i<count;i++)
 10024f8:	4801                	li	a6,0
     for(j=MAX_DIGITS-1;j>=0;j--)
 10024fa:	557d                	li	a0,-1
 10024fc:	0a41                	addi	s4,s4,16
   for(i=0;i<count;i++)
 10024fe:	cc95                	beqz	s1,100253a <BN_gcd+0x28c>
 1002500:	55810713          	addi	a4,sp,1368
     for(j=MAX_DIGITS-1;j>=0;j--)
 1002504:	02000793          	li	a5,32
 1002508:	a021                	j	1002510 <BN_gcd+0x262>
 100250a:	37fd                	addiw	a5,a5,-1
 100250c:	02a78463          	beq	a5,a0,1002534 <BN_gcd+0x286>
         if(X->digits[j]!=0)
 1002510:	6314                	ld	a3,0(a4)
 1002512:	1761                	addi	a4,a4,-8
 1002514:	dafd                	beqz	a3,100250a <BN_gcd+0x25c>
        for( i = 0; i <=j; i++ )
 1002516:	078e                	slli	a5,a5,0x3
 1002518:	97d2                	add	a5,a5,s4
         if(X->digits[j]!=0)
 100251a:	875a                	mv	a4,s6
 100251c:	4681                	li	a3,0
            r1 = X->digits[i] >> (BIL - 1);
 100251e:	630c                	ld	a1,0(a4)
 1002520:	0721                	addi	a4,a4,8
            X->digits[i] <<= 1;
 1002522:	00159613          	slli	a2,a1,0x1
            X->digits[i] |= r0;
 1002526:	8ed1                	or	a3,a3,a2
 1002528:	fed73c23          	sd	a3,-8(a4)
            r1 = X->digits[i] >> (BIL - 1);
 100252c:	03f5d693          	srli	a3,a1,0x3f
        for( i = 0; i <=j; i++ )
 1002530:	fef717e3          	bne	a4,a5,100251e <BN_gcd+0x270>
   for(i=0;i<count;i++)
 1002534:	2805                	addiw	a6,a6,1
 1002536:	fc9815e3          	bne	a6,s1,1002500 <BN_gcd+0x252>
    if( X == NULL )
 100253a:	00090863          	beqz	s2,100254a <BN_gcd+0x29c>
    X->sign = 1;
 100253e:	4785                	li	a5,1
 1002540:	00f92023          	sw	a5,0(s2)
    for(i=0;i<MAX_DIGITS;i++)
 1002544:	854a                	mv	a0,s2
 1002546:	f2bfe0ef          	jal	ra,1001470 <BN_init.part.0>
 100254a:	00890793          	addi	a5,s2,8
	X->digits[i]=Y->digits[i];
 100254e:	000b3703          	ld	a4,0(s6)
 1002552:	0b21                	addi	s6,s6,8
 1002554:	07a1                	addi	a5,a5,8
 1002556:	fee7bc23          	sd	a4,-8(a5)
    for(i=0;i<MAX_DIGITS;i++)
 100255a:	fe8b1ae3          	bne	s6,s0,100254e <BN_gcd+0x2a0>
    X->sign = Y->sign;
 100255e:	45012783          	lw	a5,1104(sp)
  BN_shift_left(&Y);
   BN_copy(result,&Y);
} 
 1002562:	5a813083          	ld	ra,1448(sp)
 1002566:	5a013403          	ld	s0,1440(sp)
    X->sign = Y->sign;
 100256a:	00f92023          	sw	a5,0(s2)
} 
 100256e:	59813483          	ld	s1,1432(sp)
 1002572:	59013903          	ld	s2,1424(sp)
 1002576:	58813983          	ld	s3,1416(sp)
 100257a:	58013a03          	ld	s4,1408(sp)
 100257e:	57813a83          	ld	s5,1400(sp)
 1002582:	57013b03          	ld	s6,1392(sp)
 1002586:	56813b83          	ld	s7,1384(sp)
 100258a:	56013c03          	ld	s8,1376(sp)
 100258e:	5b010113          	addi	sp,sp,1456
 1002592:	8082                	ret
 1002594:	86be                	mv	a3,a5
 1002596:	b5a9                	j	10023e0 <BN_gcd+0x132>

0000000001002598 <BN_inv_mod>:
  BN_hex2bn(&RRP,RRPstring);
  BN_inv_mod( X, A, N, RRP);
}

int BN_inv_mod( bignum_t *X, bignum_t *A, bignum_t *N, bignum_t RRP)
{
 1002598:	81010113          	addi	sp,sp,-2032
 100259c:	7e113423          	sd	ra,2024(sp)
 10025a0:	7e813023          	sd	s0,2016(sp)
 10025a4:	7c913c23          	sd	s1,2008(sp)
 10025a8:	7d213823          	sd	s2,2000(sp)
 10025ac:	7d313423          	sd	s3,1992(sp)
 10025b0:	7d413023          	sd	s4,1984(sp)
 10025b4:	7b513c23          	sd	s5,1976(sp)
 10025b8:	7b613823          	sd	s6,1968(sp)
 10025bc:	6a85                	lui	s5,0x1
 10025be:	7b713423          	sd	s7,1960(sp)
 10025c2:	7b813023          	sd	s8,1952(sp)
 10025c6:	79913c23          	sd	s9,1944(sp)
 10025ca:	79a13823          	sd	s10,1936(sp)
 10025ce:	9a010113          	addi	sp,sp,-1632
    X->sign = 1;
 10025d2:	747d                	lui	s0,0xfffff
 10025d4:	0818                	addi	a4,sp,16
 10025d6:	de0a8793          	addi	a5,s5,-544 # de0 <_tbss_end+0xde0>
 10025da:	97ba                	add	a5,a5,a4
 10025dc:	45040c93          	addi	s9,s0,1104 # fffffffffffff450 <fromhost+0xffffffff7fffe410>
 10025e0:	9cbe                	add	s9,s9,a5
 10025e2:	4985                	li	s3,1
{
 10025e4:	8a2a                	mv	s4,a0
 10025e6:	8566                	mv	a0,s9
 10025e8:	8c2e                	mv	s8,a1
 10025ea:	8932                	mv	s2,a2
 10025ec:	84b6                	mv	s1,a3
    X->sign = 1;
 10025ee:	25312023          	sw	s3,576(sp)
    for(i=0;i<MAX_DIGITS;i++)
 10025f2:	e7ffe0ef          	jal	ra,1001470 <BN_init.part.0>
    X->sign = 1;
 10025f6:	0818                	addi	a4,sp,16
 10025f8:	de0a8793          	addi	a5,s5,-544
 10025fc:	97ba                	add	a5,a5,a4
 10025fe:	56040513          	addi	a0,s0,1376
 1002602:	953e                	add	a0,a0,a5
 1002604:	35312823          	sw	s3,848(sp)
    for(i=0;i<MAX_DIGITS;i++)
 1002608:	e69fe0ef          	jal	ra,1001470 <BN_init.part.0>
    X->sign = 1;
 100260c:	0818                	addi	a4,sp,16
 100260e:	de0a8793          	addi	a5,s5,-544
 1002612:	97ba                	add	a5,a5,a4
 1002614:	67040513          	addi	a0,s0,1648
 1002618:	953e                	add	a0,a0,a5
 100261a:	47312023          	sw	s3,1120(sp)
    for(i=0;i<MAX_DIGITS;i++)
 100261e:	e53fe0ef          	jal	ra,1001470 <BN_init.part.0>
    X->sign = 1;
 1002622:	0818                	addi	a4,sp,16
 1002624:	de0a8793          	addi	a5,s5,-544
 1002628:	97ba                	add	a5,a5,a4
 100262a:	78040513          	addi	a0,s0,1920
 100262e:	953e                	add	a0,a0,a5
 1002630:	57312823          	sw	s3,1392(sp)
    for(i=0;i<MAX_DIGITS;i++)
 1002634:	e3dfe0ef          	jal	ra,1001470 <BN_init.part.0>
    X->sign = 1;
 1002638:	0818                	addi	a4,sp,16
 100263a:	de0a8793          	addi	a5,s5,-544
 100263e:	97ba                	add	a5,a5,a4
 1002640:	34040513          	addi	a0,s0,832
 1002644:	953e                	add	a0,a0,a5
 1002646:	13312823          	sw	s3,304(sp)
    for(i=0;i<MAX_DIGITS;i++)
 100264a:	e27fe0ef          	jal	ra,1001470 <BN_init.part.0>
    X->sign = 1;
 100264e:	68010513          	addi	a0,sp,1664
 1002652:	69312023          	sw	s3,1664(sp)
    for(i=0;i<MAX_DIGITS;i++)
 1002656:	79010b93          	addi	s7,sp,1936
 100265a:	e17fe0ef          	jal	ra,1001470 <BN_init.part.0>
    X->sign = 1;
 100265e:	890a8793          	addi	a5,s5,-1904
 1002662:	0818                	addi	a4,sp,16
 1002664:	855e                	mv	a0,s7
 1002666:	8d56                	mv	s10,s5
 1002668:	79312823          	sw	s3,1936(sp)
    for(i=0;i<MAX_DIGITS;i++)
 100266c:	00f70ab3          	add	s5,a4,a5
 1002670:	e01fe0ef          	jal	ra,1001470 <BN_init.part.0>
    X->sign = 1;
 1002674:	0818                	addi	a4,sp,16
 1002676:	890d0793          	addi	a5,s10,-1904
 100267a:	97ba                	add	a5,a5,a4
 100267c:	0137a023          	sw	s3,0(a5)
    for(i=0;i<MAX_DIGITS;i++)
 1002680:	8556                	mv	a0,s5
 1002682:	9a0d0793          	addi	a5,s10,-1632
 1002686:	00f70b33          	add	s6,a4,a5
 100268a:	de7fe0ef          	jal	ra,1001470 <BN_init.part.0>
    X->sign = 1;
 100268e:	0818                	addi	a4,sp,16
 1002690:	9a0d0793          	addi	a5,s10,-1632
 1002694:	97ba                	add	a5,a5,a4
 1002696:	855a                	mv	a0,s6
 1002698:	0137a023          	sw	s3,0(a5)
    for(i=0;i<MAX_DIGITS;i++)
 100269c:	dd5fe0ef          	jal	ra,1001470 <BN_init.part.0>
    X->sign = 1;
 10026a0:	081c                	addi	a5,sp,16
 10026a2:	ab0d0513          	addi	a0,s10,-1360
 10026a6:	953e                	add	a0,a0,a5
 10026a8:	01352023          	sw	s3,0(a0)
    for(i=0;i<MAX_DIGITS;i++)
 10026ac:	dc5fe0ef          	jal	ra,1001470 <BN_init.part.0>
    X->sign = 1;
 10026b0:	bc0d0793          	addi	a5,s10,-1088
 10026b4:	0818                	addi	a4,sp,16
 10026b6:	00f70533          	add	a0,a4,a5
 10026ba:	01352023          	sw	s3,0(a0)
    for(i=0;i<MAX_DIGITS;i++)
 10026be:	db3fe0ef          	jal	ra,1001470 <BN_init.part.0>
    BN_init( &TA ); BN_init( &TU ); BN_init( &U1 ); BN_init( &U2 );
    BN_init( &G ); BN_init( &TB ); BN_init( &TV );
    BN_init( &V1 ); BN_init( &V2 );BN_init( &bn_one);BN_init( &bn_zero);

     char one []="1";
  BN_hex2bn(&bn_one,one);
 10026c2:	0818                	addi	a4,sp,16
 10026c4:	de0d0793          	addi	a5,s10,-544
 10026c8:	97ba                	add	a5,a5,a4
 10026ca:	33840593          	addi	a1,s0,824
 10026ce:	ab0d0513          	addi	a0,s10,-1360
 10026d2:	95be                	add	a1,a1,a5
 10026d4:	953a                	add	a0,a0,a4
     char one []="1";
 10026d6:	03100793          	li	a5,49
 10026da:	12f11423          	sh	a5,296(sp)
  BN_hex2bn(&bn_one,one);
 10026de:	f4aff0ef          	jal	ra,1001e28 <BN_hex2bn>
    X->sign = 1;
 10026e2:	8566                	mv	a0,s9
 10026e4:	25312023          	sw	s3,576(sp)
    for(i=0;i<MAX_DIGITS;i++)
 10026e8:	008c8413          	addi	s0,s9,8
 10026ec:	d85fe0ef          	jal	ra,1001470 <BN_init.part.0>
    for(i=0;i<MAX_DIGITS;i++)
 10026f0:	110c8993          	addi	s3,s9,272
 10026f4:	008c0713          	addi	a4,s8,8
 10026f8:	87a2                	mv	a5,s0
	X->digits[i]=Y->digits[i];
 10026fa:	6314                	ld	a3,0(a4)
 10026fc:	07a1                	addi	a5,a5,8
 10026fe:	0721                	addi	a4,a4,8
 1002700:	fed7bc23          	sd	a3,-8(a5)
    for(i=0;i<MAX_DIGITS;i++)
 1002704:	ff379be3          	bne	a5,s3,10026fa <BN_inv_mod+0x162>
    X->sign = Y->sign;
 1002708:	6685                	lui	a3,0x1
 100270a:	de068693          	addi	a3,a3,-544 # de0 <_tbss_end+0xde0>
 100270e:	0810                	addi	a2,sp,16
 1002710:	96b2                	add	a3,a3,a2
 1002712:	77fd                	lui	a5,0xfffff
 1002714:	97b6                	add	a5,a5,a3
 1002716:	e43e                	sd	a5,8(sp)
 1002718:	66a2                	ld	a3,8(sp)
 100271a:	000c2703          	lw	a4,0(s8)
     BN_copy(&TA,A);
     BN_mont_mul(&TA,&bn_one,N,RRP);
 100271e:	87a6                	mv	a5,s1
    X->sign = Y->sign;
 1002720:	44e6a823          	sw	a4,1104(a3)
     BN_mont_mul(&TA,&bn_one,N,RRP);
 1002724:	22068713          	addi	a4,a3,544
 1002728:	10048693          	addi	a3,s1,256
 100272c:	0007b803          	ld	a6,0(a5) # fffffffffffff000 <fromhost+0xffffffff7fffdfc0>
 1002730:	6788                	ld	a0,8(a5)
 1002732:	6b8c                	ld	a1,16(a5)
 1002734:	6f90                	ld	a2,24(a5)
 1002736:	01073023          	sd	a6,0(a4)
 100273a:	e708                	sd	a0,8(a4)
 100273c:	eb0c                	sd	a1,16(a4)
 100273e:	ef10                	sd	a2,24(a4)
 1002740:	02078793          	addi	a5,a5,32
 1002744:	02070713          	addi	a4,a4,32
 1002748:	fed792e3          	bne	a5,a3,100272c <BN_inv_mod+0x194>
 100274c:	6485                	lui	s1,0x1
 100274e:	de048613          	addi	a2,s1,-544 # de0 <_tbss_end+0xde0>
 1002752:	080c                	addi	a1,sp,16
 1002754:	0007b803          	ld	a6,0(a5)
 1002758:	962e                	add	a2,a2,a1
 100275a:	679c                	ld	a5,8(a5)
 100275c:	ab048593          	addi	a1,s1,-1360
 1002760:	01010893          	addi	a7,sp,16
 1002764:	7c7d                	lui	s8,0xfffff
 1002766:	95c6                	add	a1,a1,a7
 1002768:	01010313          	addi	t1,sp,16
 100276c:	de048893          	addi	a7,s1,-544
 1002770:	989a                	add	a7,a7,t1
 1002772:	220c0693          	addi	a3,s8,544 # fffffffffffff220 <fromhost+0xffffffff7fffe1e0>
 1002776:	450c0513          	addi	a0,s8,1104
 100277a:	96b2                	add	a3,a3,a2
 100277c:	9546                	add	a0,a0,a7
 100277e:	01073023          	sd	a6,0(a4)
 1002782:	e71c                	sd	a5,8(a4)
 1002784:	864a                	mv	a2,s2
 1002786:	9fdff0ef          	jal	ra,1002182 <BN_mont_mul>
    X->sign = 1;
 100278a:	de048693          	addi	a3,s1,-544
 100278e:	0810                	addi	a2,sp,16
 1002790:	96b2                	add	a3,a3,a2
 1002792:	560c0793          	addi	a5,s8,1376
 1002796:	00f684b3          	add	s1,a3,a5
 100279a:	018687b3          	add	a5,a3,s8
 100279e:	e43e                	sd	a5,8(sp)
 10027a0:	6722                	ld	a4,8(sp)
 10027a2:	4785                	li	a5,1
 10027a4:	8526                	mv	a0,s1
 10027a6:	56f72023          	sw	a5,1376(a4)
    for(i=0;i<MAX_DIGITS;i++)
 10027aa:	cc7fe0ef          	jal	ra,1001470 <BN_init.part.0>
    for(i=0;i<MAX_DIGITS;i++)
 10027ae:	00848793          	addi	a5,s1,8
	X->digits[i]=Y->digits[i];
 10027b2:	6018                	ld	a4,0(s0)
 10027b4:	0421                	addi	s0,s0,8
 10027b6:	07a1                	addi	a5,a5,8
 10027b8:	fee7bc23          	sd	a4,-8(a5)
    for(i=0;i<MAX_DIGITS;i++)
 10027bc:	ff341be3          	bne	s0,s3,10027b2 <BN_inv_mod+0x21a>
    X->sign = Y->sign;
 10027c0:	6705                	lui	a4,0x1
 10027c2:	0814                	addi	a3,sp,16
 10027c4:	de070713          	addi	a4,a4,-544 # de0 <_tbss_end+0xde0>
 10027c8:	9736                	add	a4,a4,a3
 10027ca:	77fd                	lui	a5,0xfffff
 10027cc:	97ba                	add	a5,a5,a4
 10027ce:	e43e                	sd	a5,8(sp)
 10027d0:	6722                	ld	a4,8(sp)
 10027d2:	4507a783          	lw	a5,1104(a5) # fffffffffffff450 <fromhost+0xffffffff7fffe410>
 10027d6:	68010513          	addi	a0,sp,1664
 10027da:	00890413          	addi	s0,s2,8
 10027de:	56f72023          	sw	a5,1376(a4)
    X->sign = 1;
 10027e2:	4785                	li	a5,1
 10027e4:	68f12023          	sw	a5,1664(sp)
    for(i=0;i<MAX_DIGITS;i++)
 10027e8:	c89fe0ef          	jal	ra,1001470 <BN_init.part.0>
    for(i=0;i<MAX_DIGITS;i++)
 10027ec:	68810793          	addi	a5,sp,1672
 10027f0:	8722                	mv	a4,s0
	X->digits[i]=Y->digits[i];
 10027f2:	6314                	ld	a3,0(a4)
 10027f4:	07a1                	addi	a5,a5,8
 10027f6:	0721                	addi	a4,a4,8
 10027f8:	fed7bc23          	sd	a3,-8(a5)
    for(i=0;i<MAX_DIGITS;i++)
 10027fc:	fefb9be3          	bne	s7,a5,10027f2 <BN_inv_mod+0x25a>
    X->sign = Y->sign;
 1002800:	00092783          	lw	a5,0(s2)
 1002804:	855e                	mv	a0,s7
 1002806:	68f12023          	sw	a5,1664(sp)
    X->sign = 1;
 100280a:	4785                	li	a5,1
 100280c:	78f12823          	sw	a5,1936(sp)
    for(i=0;i<MAX_DIGITS;i++)
 1002810:	c61fe0ef          	jal	ra,1001470 <BN_init.part.0>
    for(i=0;i<MAX_DIGITS;i++)
 1002814:	79810793          	addi	a5,sp,1944
	X->digits[i]=Y->digits[i];
 1002818:	6018                	ld	a4,0(s0)
 100281a:	07a1                	addi	a5,a5,8
 100281c:	0421                	addi	s0,s0,8
 100281e:	fee7bc23          	sd	a4,-8(a5)
    for(i=0;i<MAX_DIGITS;i++)
 1002822:	fefa9be3          	bne	s5,a5,1002818 <BN_inv_mod+0x280>
    X->sign = Y->sign;
 1002826:	00092703          	lw	a4,0(s2)
    X->digits[0] = ( z < 0 ) ? -z : z;
 100282a:	6605                	lui	a2,0x1
 100282c:	0808                	addi	a0,sp,16
    X->sign = Y->sign;
 100282e:	78e12823          	sw	a4,1936(sp)
    X->digits[0] = ( z < 0 ) ? -z : z;
 1002832:	89860713          	addi	a4,a2,-1896 # 898 <_tbss_end+0x898>
 1002836:	972a                	add	a4,a4,a0
 1002838:	de060593          	addi	a1,a2,-544
 100283c:	95aa                	add	a1,a1,a0
 100283e:	00073023          	sd	zero,0(a4)
 1002842:	76fd                	lui	a3,0xfffff
    X->sign    = ( z < 0 ) ? -1 : 1;
 1002844:	89060713          	addi	a4,a2,-1904
    X->digits[0] = ( z < 0 ) ? -z : z;
 1002848:	4785                	li	a5,1
 100284a:	96ae                	add	a3,a3,a1
    X->sign    = ( z < 0 ) ? -1 : 1;
 100284c:	972a                	add	a4,a4,a0
    BN_lset( &V1, 0 );
    BN_lset( &V2, 1 );

    do
    {
        while( ( TU.digits[0] & 1 ) == 0 )
 100284e:	79fd                	lui	s3,0xfffff
    X->sign    = ( z < 0 ) ? -1 : 1;
 1002850:	c31c                	sw	a5,0(a4)
    X->digits[0] = ( z < 0 ) ? -z : z;
 1002852:	e436                	sd	a3,8(sp)
 1002854:	66f6bc23          	sd	a5,1656(a3) # fffffffffffff678 <fromhost+0xffffffff7fffe638>
    X->sign    = ( z < 0 ) ? -1 : 1;
 1002858:	66f6a823          	sw	a5,1648(a3)
    X->digits[0] = ( z < 0 ) ? -z : z;
 100285c:	7806b423          	sd	zero,1928(a3)
    X->sign    = ( z < 0 ) ? -1 : 1;
 1002860:	78f6a023          	sw	a5,1920(a3)
    X->digits[0] = ( z < 0 ) ? -z : z;
 1002864:	9a860713          	addi	a4,a2,-1624
    X->sign    = ( z < 0 ) ? -1 : 1;
 1002868:	9a060693          	addi	a3,a2,-1632

            BN_shift_right( &V1, 1);
            BN_shift_right( &V2, 1);
        }

        if( BN_compare( &TU, &TV ) >= 0 )
 100286c:	56098c13          	addi	s8,s3,1376 # fffffffffffff560 <fromhost+0xffffffff7fffe520>
            BN_sub( &U2, &U2, &V2 );
        }
        else
        {
             BN_sub( &TV, &TV, &TU );
            BN_sub( &V1, &V1, &U1 );
 1002870:	67098413          	addi	s0,s3,1648
                BN_sub( &V2, &V2, &TA );
 1002874:	45098493          	addi	s1,s3,1104
    X->digits[0] = ( z < 0 ) ? -z : z;
 1002878:	972a                	add	a4,a4,a0
    X->sign    = ( z < 0 ) ? -1 : 1;
 100287a:	96aa                	add	a3,a3,a0
    X->digits[0] = ( z < 0 ) ? -z : z;
 100287c:	e31c                	sd	a5,0(a4)
    X->sign    = ( z < 0 ) ? -1 : 1;
 100287e:	c29c                	sw	a5,0(a3)
        if( BN_compare( &TU, &TV ) >= 0 )
 1002880:	9c2e                	add	s8,s8,a1
            BN_sub( &V1, &V1, &U1 );
 1002882:	942e                	add	s0,s0,a1
                BN_sub( &V2, &V2, &TA );
 1002884:	94ae                	add	s1,s1,a1
        while( ( TU.digits[0] & 1 ) == 0 )
 1002886:	35813c83          	ld	s9,856(sp)
 100288a:	001cfc93          	andi	s9,s9,1
 100288e:	200c8b63          	beqz	s9,1002aa4 <BN_inv_mod+0x50c>
        while( ( TV.digits[0] & 1 ) == 0 )
 1002892:	79813783          	ld	a5,1944(sp)
 1002896:	8b85                	andi	a5,a5,1
 1002898:	efc9                	bnez	a5,1002932 <BN_inv_mod+0x39a>
 100289a:	6785                	lui	a5,0x1
 100289c:	0818                	addi	a4,sp,16
 100289e:	88878793          	addi	a5,a5,-1912 # 888 <_tbss_end+0x888>
 10028a2:	97ba                	add	a5,a5,a4
    word r0 = 0, r1;
 10028a4:	4701                	li	a4,0
            r1 = X->digits[i - 1] << (BIL - v1);
 10028a6:	6390                	ld	a2,0(a5)
 10028a8:	17e1                	addi	a5,a5,-8
            X->digits[i - 1] >>= v1;
 10028aa:	00165693          	srli	a3,a2,0x1
            X->digits[i - 1] |= r0;
 10028ae:	8f55                	or	a4,a4,a3
 10028b0:	e798                	sd	a4,8(a5)
            r1 = X->digits[i - 1] << (BIL - v1);
 10028b2:	03f61713          	slli	a4,a2,0x3f
        for( i = MAX_DIGITS; i > 0; i-- )
 10028b6:	fefb98e3          	bne	s7,a5,10028a6 <BN_inv_mod+0x30e>
            if( ( V1.digits[0] & 1 ) != 0 || ( V2.digits[0] & 1 ) != 0 )
 10028ba:	6705                	lui	a4,0x1
 10028bc:	89870793          	addi	a5,a4,-1896 # 898 <_tbss_end+0x898>
 10028c0:	0814                	addi	a3,sp,16
 10028c2:	9a870713          	addi	a4,a4,-1624
 10028c6:	97b6                	add	a5,a5,a3
 10028c8:	9736                	add	a4,a4,a3
 10028ca:	639c                	ld	a5,0(a5)
 10028cc:	6318                	ld	a4,0(a4)
 10028ce:	8fd9                	or	a5,a5,a4
 10028d0:	8b85                	andi	a5,a5,1
 10028d2:	cf81                	beqz	a5,10028ea <BN_inv_mod+0x352>
                BN_add( &V1, &V1, &TB );
 10028d4:	68010613          	addi	a2,sp,1664
 10028d8:	85d6                	mv	a1,s5
 10028da:	8556                	mv	a0,s5
 10028dc:	829ff0ef          	jal	ra,1002104 <BN_add>
                BN_sub( &V2, &V2, &TA );
 10028e0:	8626                	mv	a2,s1
 10028e2:	85da                	mv	a1,s6
 10028e4:	855a                	mv	a0,s6
 10028e6:	fa0ff0ef          	jal	ra,1002086 <BN_sub>
 10028ea:	6785                	lui	a5,0x1
 10028ec:	0818                	addi	a4,sp,16
 10028ee:	99878793          	addi	a5,a5,-1640 # 998 <_tbss_end+0x998>
 10028f2:	97ba                	add	a5,a5,a4
    word r0 = 0, r1;
 10028f4:	4701                	li	a4,0
            r1 = X->digits[i - 1] << (BIL - v1);
 10028f6:	6390                	ld	a2,0(a5)
 10028f8:	17e1                	addi	a5,a5,-8
            X->digits[i - 1] >>= v1;
 10028fa:	00165693          	srli	a3,a2,0x1
            X->digits[i - 1] |= r0;
 10028fe:	8f55                	or	a4,a4,a3
 1002900:	e798                	sd	a4,8(a5)
            r1 = X->digits[i - 1] << (BIL - v1);
 1002902:	03f61713          	slli	a4,a2,0x3f
        for( i = MAX_DIGITS; i > 0; i-- )
 1002906:	fefa98e3          	bne	s5,a5,10028f6 <BN_inv_mod+0x35e>
 100290a:	6785                	lui	a5,0x1
 100290c:	0818                	addi	a4,sp,16
 100290e:	aa878793          	addi	a5,a5,-1368 # aa8 <_tbss_end+0xaa8>
 1002912:	97ba                	add	a5,a5,a4
    word r0 = 0, r1;
 1002914:	4701                	li	a4,0
            r1 = X->digits[i - 1] << (BIL - v1);
 1002916:	6390                	ld	a2,0(a5)
 1002918:	17e1                	addi	a5,a5,-8
            X->digits[i - 1] >>= v1;
 100291a:	00165693          	srli	a3,a2,0x1
            X->digits[i - 1] |= r0;
 100291e:	8f55                	or	a4,a4,a3
 1002920:	e798                	sd	a4,8(a5)
            r1 = X->digits[i - 1] << (BIL - v1);
 1002922:	03f61713          	slli	a4,a2,0x3f
        for( i = MAX_DIGITS; i > 0; i-- )
 1002926:	fefb18e3          	bne	s6,a5,1002916 <BN_inv_mod+0x37e>
        while( ( TV.digits[0] & 1 ) == 0 )
 100292a:	79813783          	ld	a5,1944(sp)
 100292e:	8b85                	andi	a5,a5,1
 1002930:	d7ad                	beqz	a5,100289a <BN_inv_mod+0x302>
        if( BN_compare( &TU, &TV ) >= 0 )
 1002932:	85de                	mv	a1,s7
 1002934:	8562                	mv	a0,s8
 1002936:	ecaff0ef          	jal	ra,1002000 <BN_compare>
 100293a:	12054e63          	bltz	a0,1002a76 <BN_inv_mod+0x4de>
            BN_sub( &TU, &TU, &TV );
 100293e:	865e                	mv	a2,s7
 1002940:	85e2                	mv	a1,s8
 1002942:	8562                	mv	a0,s8
 1002944:	f42ff0ef          	jal	ra,1002086 <BN_sub>
            BN_sub( &U1, &U1, &V1 );
 1002948:	8656                	mv	a2,s5
 100294a:	85a2                	mv	a1,s0
 100294c:	8522                	mv	a0,s0
 100294e:	f38ff0ef          	jal	ra,1002086 <BN_sub>
            BN_sub( &U2, &U2, &V2 );
 1002952:	6785                	lui	a5,0x1
 1002954:	de078793          	addi	a5,a5,-544 # de0 <_tbss_end+0xde0>
 1002958:	0818                	addi	a4,sp,16
 100295a:	78098593          	addi	a1,s3,1920
 100295e:	97ba                	add	a5,a5,a4
 1002960:	95be                	add	a1,a1,a5
 1002962:	865a                	mv	a2,s6
 1002964:	852e                	mv	a0,a1
 1002966:	f20ff0ef          	jal	ra,1002086 <BN_sub>
    X->sign = 1;
 100296a:	6785                	lui	a5,0x1
 100296c:	0818                	addi	a4,sp,16
 100296e:	cd078513          	addi	a0,a5,-816 # cd0 <_tbss_end+0xcd0>
 1002972:	953a                	add	a0,a0,a4
 1002974:	4c85                	li	s9,1
 1002976:	8d3e                	mv	s10,a5
 1002978:	01952023          	sw	s9,0(a0)
    for(i=0;i<MAX_DIGITS;i++)
 100297c:	af5fe0ef          	jal	ra,1001470 <BN_init.part.0>
    return( BN_compare( X, &Y ) );
 1002980:	0818                	addi	a4,sp,16
 1002982:	cd0d0593          	addi	a1,s10,-816
 1002986:	95ba                	add	a1,a1,a4
    Y.digits[0]  = ( z < 0 ) ? -z : z;
 1002988:	0814                	addi	a3,sp,16
 100298a:	cd8d0713          	addi	a4,s10,-808
 100298e:	9736                	add	a4,a4,a3
    return( BN_compare( X, &Y ) );
 1002990:	8562                	mv	a0,s8
    Y.digits[0]  = ( z < 0 ) ? -z : z;
 1002992:	00073023          	sd	zero,0(a4)
    Y.sign = ( z < 0 ) ? -1 : 1;
 1002996:	0195a023          	sw	s9,0(a1)
    return( BN_compare( X, &Y ) );
 100299a:	e66ff0ef          	jal	ra,1002000 <BN_compare>
            BN_sub( &V2, &V2, &U2 );
        }
    }
    while(BN_cmp_int( &TU, 0) != 0 );
 100299e:	ee0514e3          	bnez	a0,1002886 <BN_inv_mod+0x2ee>
    X->sign = 1;
 10029a2:	4405                	li	s0,1
 10029a4:	a019                	j	10029aa <BN_inv_mod+0x412>

    while( BN_cmp_int( &V1, 0) < 0 )
        BN_add( &V1, &V1, N );
 10029a6:	f5eff0ef          	jal	ra,1002104 <BN_add>
    X->sign = 1;
 10029aa:	6785                	lui	a5,0x1
 10029ac:	cd078513          	addi	a0,a5,-816 # cd0 <_tbss_end+0xcd0>
 10029b0:	0818                	addi	a4,sp,16
 10029b2:	953a                	add	a0,a0,a4
 10029b4:	84be                	mv	s1,a5
 10029b6:	c100                	sw	s0,0(a0)
    for(i=0;i<MAX_DIGITS;i++)
 10029b8:	ab9fe0ef          	jal	ra,1001470 <BN_init.part.0>
    return( BN_compare( X, &Y ) );
 10029bc:	0818                	addi	a4,sp,16
 10029be:	cd048593          	addi	a1,s1,-816
 10029c2:	95ba                	add	a1,a1,a4
    Y.digits[0]  = ( z < 0 ) ? -z : z;
 10029c4:	0814                	addi	a3,sp,16
 10029c6:	cd848713          	addi	a4,s1,-808
 10029ca:	9736                	add	a4,a4,a3
    return( BN_compare( X, &Y ) );
 10029cc:	8556                	mv	a0,s5
    Y.sign = ( z < 0 ) ? -1 : 1;
 10029ce:	c180                	sw	s0,0(a1)
    Y.digits[0]  = ( z < 0 ) ? -z : z;
 10029d0:	00073023          	sd	zero,0(a4)
    return( BN_compare( X, &Y ) );
 10029d4:	e2cff0ef          	jal	ra,1002000 <BN_compare>
 10029d8:	87aa                	mv	a5,a0
        BN_add( &V1, &V1, N );
 10029da:	864a                	mv	a2,s2
 10029dc:	85d6                	mv	a1,s5
 10029de:	8556                	mv	a0,s5
    while( BN_cmp_int( &V1, 0) < 0 )
 10029e0:	fc07c3e3          	bltz	a5,10029a6 <BN_inv_mod+0x40e>
 10029e4:	a019                	j	10029ea <BN_inv_mod+0x452>

    while(BN_compare( &V1, N ) >= 0 )
       BN_sub( &V1, &V1, N ); 
 10029e6:	ea0ff0ef          	jal	ra,1002086 <BN_sub>
    while(BN_compare( &V1, N ) >= 0 )
 10029ea:	85ca                	mv	a1,s2
 10029ec:	8556                	mv	a0,s5
 10029ee:	e12ff0ef          	jal	ra,1002000 <BN_compare>
 10029f2:	87aa                	mv	a5,a0
       BN_sub( &V1, &V1, N ); 
 10029f4:	864a                	mv	a2,s2
 10029f6:	85d6                	mv	a1,s5
 10029f8:	8556                	mv	a0,s5
    while(BN_compare( &V1, N ) >= 0 )
 10029fa:	fe07d6e3          	bgez	a5,10029e6 <BN_inv_mod+0x44e>
    if( X == NULL )
 10029fe:	000a0863          	beqz	s4,1002a0e <BN_inv_mod+0x476>
    X->sign = 1;
 1002a02:	4785                	li	a5,1
 1002a04:	00fa2023          	sw	a5,0(s4)
    for(i=0;i<MAX_DIGITS;i++)
 1002a08:	8552                	mv	a0,s4
 1002a0a:	a67fe0ef          	jal	ra,1001470 <BN_init.part.0>
 1002a0e:	6785                	lui	a5,0x1
 1002a10:	0818                	addi	a4,sp,16
 1002a12:	89878793          	addi	a5,a5,-1896 # 898 <_tbss_end+0x898>
 1002a16:	97ba                	add	a5,a5,a4
 1002a18:	008a0713          	addi	a4,s4,8
	X->digits[i]=Y->digits[i];
 1002a1c:	6394                	ld	a3,0(a5)
 1002a1e:	07a1                	addi	a5,a5,8
 1002a20:	0721                	addi	a4,a4,8
 1002a22:	fed73c23          	sd	a3,-8(a4)
    for(i=0;i<MAX_DIGITS;i++)
 1002a26:	fefb1be3          	bne	s6,a5,1002a1c <BN_inv_mod+0x484>
    X->sign = Y->sign;
 1002a2a:	6785                	lui	a5,0x1
 1002a2c:	0818                	addi	a4,sp,16
 1002a2e:	89078793          	addi	a5,a5,-1904 # 890 <_tbss_end+0x890>
 1002a32:	97ba                	add	a5,a5,a4
 1002a34:	439c                	lw	a5,0(a5)

    BN_copy( X, &V1 );


    return( ret );
}
 1002a36:	4501                	li	a0,0
    X->sign = Y->sign;
 1002a38:	00fa2023          	sw	a5,0(s4)
}
 1002a3c:	66010113          	addi	sp,sp,1632
 1002a40:	7e813083          	ld	ra,2024(sp)
 1002a44:	7e013403          	ld	s0,2016(sp)
 1002a48:	7d813483          	ld	s1,2008(sp)
 1002a4c:	7d013903          	ld	s2,2000(sp)
 1002a50:	7c813983          	ld	s3,1992(sp)
 1002a54:	7c013a03          	ld	s4,1984(sp)
 1002a58:	7b813a83          	ld	s5,1976(sp)
 1002a5c:	7b013b03          	ld	s6,1968(sp)
 1002a60:	7a813b83          	ld	s7,1960(sp)
 1002a64:	7a013c03          	ld	s8,1952(sp)
 1002a68:	79813c83          	ld	s9,1944(sp)
 1002a6c:	79013d03          	ld	s10,1936(sp)
 1002a70:	7f010113          	addi	sp,sp,2032
 1002a74:	8082                	ret
             BN_sub( &TV, &TV, &TU );
 1002a76:	8662                	mv	a2,s8
 1002a78:	85de                	mv	a1,s7
 1002a7a:	855e                	mv	a0,s7
 1002a7c:	e0aff0ef          	jal	ra,1002086 <BN_sub>
            BN_sub( &V1, &V1, &U1 );
 1002a80:	8622                	mv	a2,s0
 1002a82:	85d6                	mv	a1,s5
 1002a84:	8556                	mv	a0,s5
 1002a86:	e00ff0ef          	jal	ra,1002086 <BN_sub>
            BN_sub( &V2, &V2, &U2 );
 1002a8a:	6785                	lui	a5,0x1
 1002a8c:	0818                	addi	a4,sp,16
 1002a8e:	de078793          	addi	a5,a5,-544 # de0 <_tbss_end+0xde0>
 1002a92:	78098613          	addi	a2,s3,1920
 1002a96:	97ba                	add	a5,a5,a4
 1002a98:	963e                	add	a2,a2,a5
 1002a9a:	85da                	mv	a1,s6
 1002a9c:	855a                	mv	a0,s6
 1002a9e:	de8ff0ef          	jal	ra,1002086 <BN_sub>
 1002aa2:	b5e1                	j	100296a <BN_inv_mod+0x3d2>
 1002aa4:	108c0793          	addi	a5,s8,264
    word r0 = 0, r1;
 1002aa8:	4701                	li	a4,0
            r1 = X->digits[i - 1] << (BIL - v1);
 1002aaa:	6390                	ld	a2,0(a5)
 1002aac:	17e1                	addi	a5,a5,-8
            X->digits[i - 1] >>= v1;
 1002aae:	00165693          	srli	a3,a2,0x1
            X->digits[i - 1] |= r0;
 1002ab2:	8f55                	or	a4,a4,a3
 1002ab4:	e798                	sd	a4,8(a5)
            r1 = X->digits[i - 1] << (BIL - v1);
 1002ab6:	03f61713          	slli	a4,a2,0x3f
        for( i = MAX_DIGITS; i > 0; i-- )
 1002aba:	fefc18e3          	bne	s8,a5,1002aaa <BN_inv_mod+0x512>
            if( ( U1.digits[0] & 1 ) != 0 || ( U2.digits[0] & 1 ) != 0 )
 1002abe:	46813783          	ld	a5,1128(sp)
 1002ac2:	57813703          	ld	a4,1400(sp)
 1002ac6:	8fd9                	or	a5,a5,a4
 1002ac8:	8b85                	andi	a5,a5,1
 1002aca:	c39d                	beqz	a5,1002af0 <BN_inv_mod+0x558>
                BN_add( &U1, &U1, &TB );
 1002acc:	68010613          	addi	a2,sp,1664
 1002ad0:	85a2                	mv	a1,s0
 1002ad2:	8522                	mv	a0,s0
 1002ad4:	e30ff0ef          	jal	ra,1002104 <BN_add>
                BN_sub( &U2, &U2, &TA );
 1002ad8:	6785                	lui	a5,0x1
 1002ada:	de078793          	addi	a5,a5,-544 # de0 <_tbss_end+0xde0>
 1002ade:	0818                	addi	a4,sp,16
 1002ae0:	78098593          	addi	a1,s3,1920
 1002ae4:	97ba                	add	a5,a5,a4
 1002ae6:	95be                	add	a1,a1,a5
 1002ae8:	8626                	mv	a2,s1
 1002aea:	852e                	mv	a0,a1
 1002aec:	d9aff0ef          	jal	ra,1002086 <BN_sub>
 1002af0:	10840793          	addi	a5,s0,264
    word r0 = 0, r1;
 1002af4:	4701                	li	a4,0
            r1 = X->digits[i - 1] << (BIL - v1);
 1002af6:	6390                	ld	a2,0(a5)
 1002af8:	17e1                	addi	a5,a5,-8
            X->digits[i - 1] >>= v1;
 1002afa:	00165693          	srli	a3,a2,0x1
            X->digits[i - 1] |= r0;
 1002afe:	8f55                	or	a4,a4,a3
 1002b00:	e798                	sd	a4,8(a5)
            r1 = X->digits[i - 1] << (BIL - v1);
 1002b02:	03f61713          	slli	a4,a2,0x3f
        for( i = MAX_DIGITS; i > 0; i-- )
 1002b06:	fef418e3          	bne	s0,a5,1002af6 <BN_inv_mod+0x55e>
 1002b0a:	6785                	lui	a5,0x1
 1002b0c:	de078793          	addi	a5,a5,-544 # de0 <_tbss_end+0xde0>
 1002b10:	0818                	addi	a4,sp,16
 1002b12:	97ba                	add	a5,a5,a4
 1002b14:	78098613          	addi	a2,s3,1920
 1002b18:	963e                	add	a2,a2,a5
 1002b1a:	67810793          	addi	a5,sp,1656
            r1 = X->digits[i - 1] << (BIL - v1);
 1002b1e:	6394                	ld	a3,0(a5)
 1002b20:	17e1                	addi	a5,a5,-8
            X->digits[i - 1] >>= v1;
 1002b22:	0016d713          	srli	a4,a3,0x1
            X->digits[i - 1] |= r0;
 1002b26:	01976cb3          	or	s9,a4,s9
 1002b2a:	0197b423          	sd	s9,8(a5)
            r1 = X->digits[i - 1] << (BIL - v1);
 1002b2e:	03f69c93          	slli	s9,a3,0x3f
        for( i = MAX_DIGITS; i > 0; i-- )
 1002b32:	fef616e3          	bne	a2,a5,1002b1e <BN_inv_mod+0x586>
 1002b36:	bb81                	j	1002886 <BN_inv_mod+0x2ee>

0000000001002b38 <BN_inverse>:
{
 1002b38:	d3010113          	addi	sp,sp,-720
    X->sign = 1;
 1002b3c:	4785                	li	a5,1
{
 1002b3e:	2c813023          	sd	s0,704(sp)
 1002b42:	842a                	mv	s0,a0
 1002b44:	1308                	addi	a0,sp,416
 1002b46:	2a913c23          	sd	s1,696(sp)
 1002b4a:	2b213823          	sd	s2,688(sp)
    X->sign = 1;
 1002b4e:	1af12023          	sw	a5,416(sp)
{
 1002b52:	2c113423          	sd	ra,712(sp)
 1002b56:	84ae                	mv	s1,a1
 1002b58:	8932                	mv	s2,a2
 1002b5a:	917fe0ef          	jal	ra,1001470 <BN_init.part.0>
  char RRPstring[]="71F44F8193A25D6FCCAA0E39043943D8F743B17EA185624A1383B93FC4E51D537A04E3E69381D87B8BFC8A7624ABCB0A632875358A45957E9254A000F056F07F";
 1002b5e:	00001797          	auipc	a5,0x1
 1002b62:	35278793          	addi	a5,a5,850 # 1003eb0 <pk_store+0xc0>
 1002b66:	0a38                	addi	a4,sp,280
 1002b68:	00001697          	auipc	a3,0x1
 1002b6c:	3c868693          	addi	a3,a3,968 # 1003f30 <pk_store+0x140>
 1002b70:	0007b803          	ld	a6,0(a5)
 1002b74:	6788                	ld	a0,8(a5)
 1002b76:	6b8c                	ld	a1,16(a5)
 1002b78:	6f90                	ld	a2,24(a5)
 1002b7a:	01073023          	sd	a6,0(a4)
 1002b7e:	e708                	sd	a0,8(a4)
 1002b80:	eb0c                	sd	a1,16(a4)
 1002b82:	ef10                	sd	a2,24(a4)
 1002b84:	02078793          	addi	a5,a5,32
 1002b88:	02070713          	addi	a4,a4,32
 1002b8c:	fed792e3          	bne	a5,a3,1002b70 <BN_inverse+0x38>
 1002b90:	0007c783          	lbu	a5,0(a5)
  BN_hex2bn(&RRP,RRPstring);
 1002b94:	0a2c                	addi	a1,sp,280
 1002b96:	1308                	addi	a0,sp,416
  char RRPstring[]="71F44F8193A25D6FCCAA0E39043943D8F743B17EA185624A1383B93FC4E51D537A04E3E69381D87B8BFC8A7624ABCB0A632875358A45957E9254A000F056F07F";
 1002b98:	00f70023          	sb	a5,0(a4)
  BN_hex2bn(&RRP,RRPstring);
 1002b9c:	a8cff0ef          	jal	ra,1001e28 <BN_hex2bn>
  BN_inv_mod( X, A, N, RRP);
 1002ba0:	131c                	addi	a5,sp,416
 1002ba2:	870a                	mv	a4,sp
 1002ba4:	1514                	addi	a3,sp,672
 1002ba6:	0007b803          	ld	a6,0(a5)
 1002baa:	6788                	ld	a0,8(a5)
 1002bac:	6b8c                	ld	a1,16(a5)
 1002bae:	6f90                	ld	a2,24(a5)
 1002bb0:	01073023          	sd	a6,0(a4)
 1002bb4:	e708                	sd	a0,8(a4)
 1002bb6:	eb0c                	sd	a1,16(a4)
 1002bb8:	ef10                	sd	a2,24(a4)
 1002bba:	02078793          	addi	a5,a5,32
 1002bbe:	02070713          	addi	a4,a4,32
 1002bc2:	fed792e3          	bne	a5,a3,1002ba6 <BN_inverse+0x6e>
 1002bc6:	0007b803          	ld	a6,0(a5)
 1002bca:	679c                	ld	a5,8(a5)
 1002bcc:	868a                	mv	a3,sp
 1002bce:	864a                	mv	a2,s2
 1002bd0:	85a6                	mv	a1,s1
 1002bd2:	8522                	mv	a0,s0
 1002bd4:	01073023          	sd	a6,0(a4)
 1002bd8:	e71c                	sd	a5,8(a4)
 1002bda:	9bfff0ef          	jal	ra,1002598 <BN_inv_mod>
}
 1002bde:	2c813083          	ld	ra,712(sp)
 1002be2:	2c013403          	ld	s0,704(sp)
 1002be6:	2b813483          	ld	s1,696(sp)
 1002bea:	2b013903          	ld	s2,688(sp)
 1002bee:	2d010113          	addi	sp,sp,720
 1002bf2:	8082                	ret

0000000001002bf4 <BN_exp_mod>:
 * Output: X where X=(A^E) mod N
 *
 ******************************************************************************/

void BN_exp_mod( bignum_t *X, bignum_t *A, bignum_t *E, bignum_t *N, bignum_t RR)
{
 1002bf4:	7171                	addi	sp,sp,-176
 1002bf6:	735d                	lui	t1,0xffff7
 1002bf8:	f122                	sd	s0,160(sp)
 1002bfa:	ed26                	sd	s1,152(sp)
 1002bfc:	e54e                	sd	s3,136(sp)
 1002bfe:	e152                	sd	s4,128(sp)
 1002c00:	fcd6                	sd	s5,120(sp)
 1002c02:	f506                	sd	ra,168(sp)
 1002c04:	e94a                	sd	s2,144(sp)
 1002c06:	f8da                	sd	s6,112(sp)
 1002c08:	f4de                	sd	s7,104(sp)
 1002c0a:	f0e2                	sd	s8,96(sp)
 1002c0c:	ece6                	sd	s9,88(sp)
 1002c0e:	e8ea                	sd	s10,80(sp)
 1002c10:	e4ee                	sd	s11,72(sp)
 1002c12:	84b6                	mv	s1,a3
 1002c14:	911a                	add	sp,sp,t1
    X->sign = 1;
 1002c16:	66a5                	lui	a3,0x9
{
 1002c18:	ec2a                	sd	a0,24(sp)
 1002c1a:	77dd                	lui	a5,0xffff7
 1002c1c:	0808                	addi	a0,sp,16
 1002c1e:	03068693          	addi	a3,a3,48 # 9030 <_tbss_end+0x9030>
 1002c22:	96aa                	add	a3,a3,a0
 1002c24:	1781                	addi	a5,a5,-32
 1002c26:	00f68533          	add	a0,a3,a5
    X->sign = 1;
 1002c2a:	4785                	li	a5,1
{
 1002c2c:	89b2                	mv	s3,a2
 1002c2e:	8a3a                	mv	s4,a4
 1002c30:	8aae                	mv	s5,a1
    X->sign = 1;
 1002c32:	d03e                	sw	a5,32(sp)
    for(i=0;i<MAX_DIGITS;i++)
 1002c34:	83dfe0ef          	jal	ra,1001470 <BN_init.part.0>
	word ei, mm, state;
	bignum_t W[ 2 << 6], Apos;
	BN_init(&Apos);
	mulnum_t T;
	int neg;
	BN_montg_init( &mm, N );
 1002c38:	6494                	ld	a3,8(s1)
	x += (( m0 + 2 ) & 4 ) << 1;
 1002c3a:	4711                	li	a4,4
		x *= ( 2 - ( m0 * x ) );
 1002c3c:	4609                	li	a2,2
	x += (( m0 + 2 ) & 4 ) << 1;
 1002c3e:	00268413          	addi	s0,a3,2
 1002c42:	0406                	slli	s0,s0,0x1
 1002c44:	8821                	andi	s0,s0,8
 1002c46:	9436                	add	s0,s0,a3
		x *= ( 2 - ( m0 * x ) );
 1002c48:	028687b3          	mul	a5,a3,s0
 1002c4c:	377d                	addiw	a4,a4,-1
 1002c4e:	40f607b3          	sub	a5,a2,a5
 1002c52:	02f40433          	mul	s0,s0,a5
	for( i = BIL; i >= 8; i /= 2 )
 1002c56:	fb6d                	bnez	a4,1002c48 <BN_exp_mod+0x54>
	/*
	 * Init temps and window size
	 */
	memset( W, 0, sizeof( W ) );
 1002c58:	6925                	lui	s2,0x9
 1002c5a:	0818                	addi	a4,sp,16
 1002c5c:	7561                	lui	a0,0xffff8
 1002c5e:	03090793          	addi	a5,s2,48 # 9030 <_tbss_end+0x9030>
 1002c62:	97ba                	add	a5,a5,a4
 1002c64:	6625                	lui	a2,0x9
 1002c66:	80050513          	addi	a0,a0,-2048 # ffffffffffff7800 <fromhost+0xffffffff7fff67c0>
 1002c6a:	80060613          	addi	a2,a2,-2048 # 8800 <_tbss_end+0x8800>
 1002c6e:	4581                	li	a1,0
 1002c70:	953e                	add	a0,a0,a5
 1002c72:	597000ef          	jal	ra,1003a08 <memset>
	memset( Apos.digits, 0, MAX_DIGITS * CIL );
 1002c76:	0818                	addi	a4,sp,16
 1002c78:	03090793          	addi	a5,s2,48
 1002c7c:	97ba                	add	a5,a5,a4
 1002c7e:	755d                	lui	a0,0xffff7
 1002c80:	953e                	add	a0,a0,a5
 1002c82:	10800613          	li	a2,264
 1002c86:	4581                	li	a1,0
 1002c88:	1521                	addi	a0,a0,-24
 1002c8a:	57f000ef          	jal	ra,1003a08 <memset>
	*mm = ~x + 1;
 1002c8e:	40800433          	neg	s0,s0
	for( i = MAX_DIGITS-2; i > 0; i-- )
 1002c92:	10098793          	addi	a5,s3,256
 1002c96:	46fd                	li	a3,31
 1002c98:	a021                	j	1002ca0 <BN_exp_mod+0xac>
 1002c9a:	16fd                	addi	a3,a3,-1
 1002c9c:	4c068363          	beqz	a3,1003162 <BN_exp_mod+0x56e>
		if( X->digits[i] != 0 )
 1002ca0:	6390                	ld	a2,0(a5)
 1002ca2:	17e1                	addi	a5,a5,-8
 1002ca4:	da7d                	beqz	a2,1002c9a <BN_exp_mod+0xa6>
 1002ca6:	069a                	slli	a3,a3,0x6
	for( i = MAX_DIGITS-2; i > 0; i-- )
 1002ca8:	04000713          	li	a4,64
 1002cac:	a019                	j	1002cb2 <BN_exp_mod+0xbe>
	for( j = BIL; j > 0; j-- )
 1002cae:	177d                	addi	a4,a4,-1
 1002cb0:	cb01                	beqz	a4,1002cc0 <BN_exp_mod+0xcc>
		if( ( ( X->digits[i] >> ( j - 1 ) ) & 1 ) != 0 )
 1002cb2:	fff7079b          	addiw	a5,a4,-1
 1002cb6:	00f657b3          	srl	a5,a2,a5
 1002cba:	8b85                	andi	a5,a5,1
 1002cbc:	dbed                	beqz	a5,1002cae <BN_exp_mod+0xba>
 1002cbe:	96ba                	add	a3,a3,a4

	i = BN_msb( E );


	wsize = ( i > 671 ) ? 6 : ( i > 239 ) ? 5 :
 1002cc0:	29f00793          	li	a5,671
 1002cc4:	4919                	li	s2,6
 1002cc6:	00d7e763          	bltu	a5,a3,1002cd4 <BN_exp_mod+0xe0>
 1002cca:	0ef00793          	li	a5,239
 1002cce:	4915                	li	s2,5
 1002cd0:	34d7f063          	bgeu	a5,a3,1003010 <BN_exp_mod+0x41c>
		( i >  79 ) ? 4 : ( i >  23 ) ? 3 : 1;

	if( wsize > 6)
		wsize = 6;

    neg = ( A->sign == -1 );
 1002cd4:	000aac03          	lw	s8,0(s5)
      if( neg )
 1002cd8:	57fd                	li	a5,-1
 1002cda:	4afc0163          	beq	s8,a5,100317c <BN_exp_mod+0x588>
    X->sign = 1;
 1002cde:	66a5                	lui	a3,0x9
 1002ce0:	03068713          	addi	a4,a3,48 # 9030 <_tbss_end+0x9030>
 1002ce4:	0810                	addi	a2,sp,16
 1002ce6:	77e1                	lui	a5,0xffff8
 1002ce8:	9732                	add	a4,a4,a2
 1002cea:	80078c93          	addi	s9,a5,-2048 # ffffffffffff7800 <fromhost+0xffffffff7fff67c0>
 1002cee:	9cba                	add	s9,s9,a4
 1002cf0:	03068713          	addi	a4,a3,48
 1002cf4:	9732                	add	a4,a4,a2
 1002cf6:	97ba                	add	a5,a5,a4
 1002cf8:	4705                	li	a4,1
 1002cfa:	110c8513          	addi	a0,s9,272
 1002cfe:	90e7a823          	sw	a4,-1776(a5)
    for(i=0;i<MAX_DIGITS;i++)
 1002d02:	118c8b13          	addi	s6,s9,280
 1002d06:	f6afe0ef          	jal	ra,1001470 <BN_init.part.0>
    for(i=0;i<MAX_DIGITS;i++)
 1002d0a:	220c8c93          	addi	s9,s9,544
 1002d0e:	008a8693          	addi	a3,s5,8
 1002d12:	87da                	mv	a5,s6
	X->digits[i]=Y->digits[i];
 1002d14:	6298                	ld	a4,0(a3)
 1002d16:	07a1                	addi	a5,a5,8
 1002d18:	06a1                	addi	a3,a3,8
 1002d1a:	fee7bc23          	sd	a4,-8(a5)
    for(i=0;i<MAX_DIGITS;i++)
 1002d1e:	ff979be3          	bne	a5,s9,1002d14 <BN_exp_mod+0x120>

	BN_copy( &W[1], A );

	

	BN_montmul( &W[1], &RR, N, mm, &T );
 1002d22:	66a5                	lui	a3,0x9
 1002d24:	03068713          	addi	a4,a3,48 # 9030 <_tbss_end+0x9030>
 1002d28:	0810                	addi	a2,sp,16
    X->sign = Y->sign;
 1002d2a:	000aa883          	lw	a7,0(s5)
	BN_montmul( &W[1], &RR, N, mm, &T );
 1002d2e:	9732                	add	a4,a4,a2
    X->sign = Y->sign;
 1002d30:	77e1                	lui	a5,0xffff8
	BN_montmul( &W[1], &RR, N, mm, &T );
 1002d32:	8336                	mv	t1,a3
 1002d34:	00f70533          	add	a0,a4,a5
 1002d38:	785d                	lui	a6,0xffff7
    X->sign = Y->sign;
 1002d3a:	080c                	addi	a1,sp,16


	/*
	 * X = R^2 * R^-1 mod N = R mod N
	 */
	BN_copy( X, &RR );
 1002d3c:	01010e13          	addi	t3,sp,16
	BN_montmul( &W[1], &RR, N, mm, &T );
 1002d40:	03068693          	addi	a3,a3,48
	BN_copy( X, &RR );
 1002d44:	03030313          	addi	t1,t1,48 # ffffffffffff7030 <fromhost+0xffffffff7fff5ff0>
    X->sign = Y->sign;
 1002d48:	87aa                	mv	a5,a0
	BN_montmul( &W[1], &RR, N, mm, &T );
 1002d4a:	96ae                	add	a3,a3,a1
 1002d4c:	20080713          	addi	a4,a6,512 # ffffffffffff7200 <fromhost+0xffffffff7fff61c0>
	BN_copy( X, &RR );
 1002d50:	9372                	add	t1,t1,t3
	BN_montmul( &W[1], &RR, N, mm, &T );
 1002d52:	9736                	add	a4,a4,a3
	BN_copy( X, &RR );
 1002d54:	981a                	add	a6,a6,t1
    X->sign = Y->sign;
 1002d56:	9117a823          	sw	a7,-1776(a5) # ffffffffffff7910 <fromhost+0xffffffff7fff68d0>
	BN_montmul( &W[1], &RR, N, mm, &T );
 1002d5a:	86a2                	mv	a3,s0
 1002d5c:	8626                	mv	a2,s1
 1002d5e:	85d2                	mv	a1,s4
 1002d60:	91050513          	addi	a0,a0,-1776 # ffffffffffff6910 <fromhost+0xffffffff7fff58d0>
	BN_copy( X, &RR );
 1002d64:	e442                	sd	a6,8(sp)
	BN_montmul( &W[1], &RR, N, mm, &T );
 1002d66:	ee7fe0ef          	jal	ra,1001c4c <BN_montmul>
	BN_copy( X, &RR );
 1002d6a:	67a2                	ld	a5,8(sp)
 1002d6c:	fd87ba83          	ld	s5,-40(a5)
    if( X == NULL )
 1002d70:	460a8563          	beqz	s5,10031da <BN_exp_mod+0x5e6>
    X->sign = 1;
 1002d74:	4785                	li	a5,1
 1002d76:	00faa023          	sw	a5,0(s5)
    for(i=0;i<MAX_DIGITS;i++)
 1002d7a:	8556                	mv	a0,s5
 1002d7c:	ef4fe0ef          	jal	ra,1001470 <BN_init.part.0>
 1002d80:	67a2                	ld	a5,8(sp)
 1002d82:	fd87bd03          	ld	s10,-40(a5)
 1002d86:	008a0793          	addi	a5,s4,8
 1002d8a:	008a8693          	addi	a3,s5,8
 1002d8e:	110a0613          	addi	a2,s4,272
	X->digits[i]=Y->digits[i];
 1002d92:	6398                	ld	a4,0(a5)
 1002d94:	07a1                	addi	a5,a5,8
 1002d96:	06a1                	addi	a3,a3,8
 1002d98:	fee6bc23          	sd	a4,-8(a3)
    for(i=0;i<MAX_DIGITS;i++)
 1002d9c:	fec79be3          	bne	a5,a2,1002d92 <BN_exp_mod+0x19e>
	memset( U.digits, 0, MAX_DIGITS * CIL );
 1002da0:	6da5                	lui	s11,0x9
    X->sign = Y->sign;
 1002da2:	000a2783          	lw	a5,0(s4)
	memset( U.digits, 0, MAX_DIGITS * CIL );
 1002da6:	7bdd                	lui	s7,0xffff7
 1002da8:	0814                	addi	a3,sp,16
 1002daa:	030d8713          	addi	a4,s11,48 # 9030 <_tbss_end+0x9030>
 1002dae:	9736                	add	a4,a4,a3
 1002db0:	418b8a13          	addi	s4,s7,1048 # ffffffffffff7418 <fromhost+0xffffffff7fff63d8>
 1002db4:	9a3a                	add	s4,s4,a4
    X->sign = Y->sign;
 1002db6:	00faa023          	sw	a5,0(s5)
	memset( U.digits, 0, MAX_DIGITS * CIL );
 1002dba:	10800613          	li	a2,264
 1002dbe:	4581                	li	a1,0
 1002dc0:	008a0513          	addi	a0,s4,8
 1002dc4:	445000ef          	jal	ra,1003a08 <memset>
	U.digits[0]=1;
 1002dc8:	0810                	addi	a2,sp,16
 1002dca:	030d8693          	addi	a3,s11,48
 1002dce:	96b2                	add	a3,a3,a2
 1002dd0:	96de                	add	a3,a3,s7
	BN_montmul( A, &U, N, mm, T );
 1002dd2:	030d8793          	addi	a5,s11,48
 1002dd6:	97b2                	add	a5,a5,a2
	U.digits[0]=1;
 1002dd8:	e436                	sd	a3,8(sp)
	BN_montmul( A, &U, N, mm, T );
 1002dda:	200b8713          	addi	a4,s7,512
 1002dde:	973e                	add	a4,a4,a5
	U.digits[0]=1;
 1002de0:	67a2                	ld	a5,8(sp)
 1002de2:	4a85                	li	s5,1
	BN_montmul( A, &U, N, mm, T );
 1002de4:	86a2                	mv	a3,s0
 1002de6:	8626                	mv	a2,s1
 1002de8:	85d2                	mv	a1,s4
 1002dea:	856a                	mv	a0,s10
	U.digits[0]=1;
 1002dec:	4357b023          	sd	s5,1056(a5)
	BN_montmul( A, &U, N, mm, T );
 1002df0:	e5dfe0ef          	jal	ra,1001c4c <BN_montmul>
	/*char* test;
	  test= BN_bn2hex(X);
	  printf("%s\n",test); */


	if( wsize > 1 )
 1002df4:	23591963          	bne	s2,s5,1003026 <BN_exp_mod+0x432>
 1002df8:	6725                	lui	a4,0x9
 1002dfa:	0810                	addi	a2,sp,16
 1002dfc:	03070693          	addi	a3,a4,48 # 9030 <_tbss_end+0x9030>
 1002e00:	77dd                	lui	a5,0xffff7
 1002e02:	96b2                	add	a3,a3,a2
 1002e04:	00f68b33          	add	s6,a3,a5
				BN_montmul( X, X, N, mm, &T );

			/*
			 * X = X * W[wbits] R^-1 mod N
			 */
			BN_montmul( X, &W[wbits], N, mm, &T );
 1002e08:	7be1                	lui	s7,0xffff8
				BN_montmul( X, X, N, mm, &T );
 1002e0a:	03070693          	addi	a3,a4,48
 1002e0e:	20078793          	addi	a5,a5,512 # ffffffffffff7200 <fromhost+0xffffffff7fff61c0>
 1002e12:	96b2                	add	a3,a3,a2
			BN_montmul( X, &W[wbits], N, mm, &T );
 1002e14:	800b8b93          	addi	s7,s7,-2048 # ffffffffffff7800 <fromhost+0xffffffff7fff67c0>
 1002e18:	fd8b3883          	ld	a7,-40(s6)
				BN_montmul( X, X, N, mm, &T );
 1002e1c:	00f68cb3          	add	s9,a3,a5
			BN_montmul( X, &W[wbits], N, mm, &T );
 1002e20:	017687b3          	add	a5,a3,s7
		state = 2;
 1002e24:	4801                	li	a6,0
 1002e26:	4a81                	li	s5,0
 1002e28:	4d81                	li	s11,0
 1002e2a:	02000d13          	li	s10,32
 1002e2e:	4a01                	li	s4,0
			BN_montmul( X, &W[wbits], N, mm, &T );
 1002e30:	e43e                	sd	a5,8(sp)
		if( bufsize == 0 )
 1002e32:	040d8163          	beqz	s11,1002e74 <BN_exp_mod+0x280>
		ei = (E->digits[nblimbs] >> bufsize) & 1;
 1002e36:	003d1713          	slli	a4,s10,0x3
 1002e3a:	974e                	add	a4,a4,s3
 1002e3c:	671c                	ld	a5,8(a4)
 1002e3e:	1dfd                	addi	s11,s11,-1
 1002e40:	000d869b          	sext.w	a3,s11
 1002e44:	00d7d7b3          	srl	a5,a5,a3
 1002e48:	8b85                	andi	a5,a5,1
		if( ei == 0 && state == 0 )
 1002e4a:	00f86733          	or	a4,a6,a5
 1002e4e:	c721                	beqz	a4,1002e96 <BN_exp_mod+0x2a2>
		if( ei == 0 && state == 1 )
 1002e50:	e781                	bnez	a5,1002e58 <BN_exp_mod+0x264>
 1002e52:	4705                	li	a4,1
 1002e54:	1ae80263          	beq	a6,a4,1002ff8 <BN_exp_mod+0x404>
		nbits++;
 1002e58:	001a8713          	addi	a4,s5,1
		wbits |= ( ei << ( wsize - nbits ) );
 1002e5c:	40e906bb          	subw	a3,s2,a4
 1002e60:	00d797b3          	sll	a5,a5,a3
 1002e64:	00fa6a33          	or	s4,s4,a5
		if( nbits == wsize )
 1002e68:	02e90963          	beq	s2,a4,1002e9a <BN_exp_mod+0x2a6>
 1002e6c:	8aba                	mv	s5,a4
		state = 2;
 1002e6e:	4809                	li	a6,2
		if( bufsize == 0 )
 1002e70:	fc0d93e3          	bnez	s11,1002e36 <BN_exp_mod+0x242>
			if( nblimbs == 0 )
 1002e74:	060d0663          	beqz	s10,1002ee0 <BN_exp_mod+0x2ec>
			nblimbs--;
 1002e78:	1d7d                	addi	s10,s10,-1
		ei = (E->digits[nblimbs] >> bufsize) & 1;
 1002e7a:	003d1713          	slli	a4,s10,0x3
 1002e7e:	974e                	add	a4,a4,s3
 1002e80:	671c                	ld	a5,8(a4)
			nblimbs--;
 1002e82:	03f00693          	li	a3,63
 1002e86:	03f00d93          	li	s11,63
		ei = (E->digits[nblimbs] >> bufsize) & 1;
 1002e8a:	00d7d7b3          	srl	a5,a5,a3
 1002e8e:	8b85                	andi	a5,a5,1
		if( ei == 0 && state == 0 )
 1002e90:	00f86733          	or	a4,a6,a5
 1002e94:	ff55                	bnez	a4,1002e50 <BN_exp_mod+0x25c>
 1002e96:	4801                	li	a6,0
 1002e98:	bf69                	j	1002e32 <BN_exp_mod+0x23e>
			for( i = 0; i < wsize; i++ )
 1002e9a:	4b81                	li	s7,0
 1002e9c:	a021                	j	1002ea4 <BN_exp_mod+0x2b0>
 1002e9e:	fd8b3883          	ld	a7,-40(s6)
 1002ea2:	8bba                	mv	s7,a4
				BN_montmul( X, X, N, mm, &T );
 1002ea4:	8766                	mv	a4,s9
 1002ea6:	85c6                	mv	a1,a7
 1002ea8:	8546                	mv	a0,a7
 1002eaa:	86a2                	mv	a3,s0
 1002eac:	8626                	mv	a2,s1
 1002eae:	d9ffe0ef          	jal	ra,1001c4c <BN_montmul>
