
output/hello.riscv:     file format elf64-littleriscv


Disassembly of section .text.init:

0000000080000000 <_start>:
    80000000:	62f9                	lui	t0,0x1e
    80000002:	3002a073          	csrs	mstatus,t0
    80000006:	4285                	li	t0,1
    80000008:	02fe                	slli	t0,t0,0x1f
    8000000a:	0002d563          	bgez	t0,80000014 <_start+0x14>
    8000000e:	4505                	li	a0,1
    80000010:	34e0106f          	j	8000135e <exit>
    80000014:	00000297          	auipc	t0,0x0
    80000018:	01028293          	addi	t0,t0,16 # 80000024 <_start+0x24>
    8000001c:	30529073          	csrw	mtvec,t0
    80000020:	00301073          	fscsr	zero
    80000024:	00000297          	auipc	t0,0x0
    80000028:	03828293          	addi	t0,t0,56 # 8000005c <trap_entry>
    8000002c:	30529073          	csrw	mtvec,t0
    80000030:	00002197          	auipc	gp,0x2
    80000034:	06c18193          	addi	gp,gp,108 # 8000209c <__global_pointer$>
    80000038:	5fd18213          	addi	tp,gp,1533 # 80002699 <_end+0x3f>
    8000003c:	fc027213          	andi	tp,tp,-64
    80000040:	f1402573          	csrr	a0,mhartid
    80000044:	4585                	li	a1,1
    80000046:	00b57063          	bgeu	a0,a1,80000046 <_start+0x46>
    8000004a:	01151613          	slli	a2,a0,0x11
    8000004e:	9232                	add	tp,tp,a2
    80000050:	00150113          	addi	sp,a0,1
    80000054:	0146                	slli	sp,sp,0x11
    80000056:	9112                	add	sp,sp,tp
    80000058:	4440106f          	j	8000149c <_init>

000000008000005c <trap_entry>:
    8000005c:	716d                	addi	sp,sp,-272
    8000005e:	e406                	sd	ra,8(sp)
    80000060:	e80a                	sd	sp,16(sp)
    80000062:	ec0e                	sd	gp,24(sp)
    80000064:	f012                	sd	tp,32(sp)
    80000066:	f416                	sd	t0,40(sp)
    80000068:	f81a                	sd	t1,48(sp)
    8000006a:	fc1e                	sd	t2,56(sp)
    8000006c:	e0a2                	sd	s0,64(sp)
    8000006e:	e4a6                	sd	s1,72(sp)
    80000070:	e8aa                	sd	a0,80(sp)
    80000072:	ecae                	sd	a1,88(sp)
    80000074:	f0b2                	sd	a2,96(sp)
    80000076:	f4b6                	sd	a3,104(sp)
    80000078:	f8ba                	sd	a4,112(sp)
    8000007a:	fcbe                	sd	a5,120(sp)
    8000007c:	e142                	sd	a6,128(sp)
    8000007e:	e546                	sd	a7,136(sp)
    80000080:	e94a                	sd	s2,144(sp)
    80000082:	ed4e                	sd	s3,152(sp)
    80000084:	f152                	sd	s4,160(sp)
    80000086:	f556                	sd	s5,168(sp)
    80000088:	f95a                	sd	s6,176(sp)
    8000008a:	fd5e                	sd	s7,184(sp)
    8000008c:	e1e2                	sd	s8,192(sp)
    8000008e:	e5e6                	sd	s9,200(sp)
    80000090:	e9ea                	sd	s10,208(sp)
    80000092:	edee                	sd	s11,216(sp)
    80000094:	f1f2                	sd	t3,224(sp)
    80000096:	f5f6                	sd	t4,232(sp)
    80000098:	f9fa                	sd	t5,240(sp)
    8000009a:	fdfe                	sd	t6,248(sp)
    8000009c:	34202573          	csrr	a0,mcause
    800000a0:	341025f3          	csrr	a1,mepc
    800000a4:	860a                	mv	a2,sp
    800000a6:	3de010ef          	jal	ra,80001484 <handle_trap>
    800000aa:	34151073          	csrw	mepc,a0
    800000ae:	6289                	lui	t0,0x2
    800000b0:	8002829b          	addiw	t0,t0,-2048
    800000b4:	3002a073          	csrs	mstatus,t0
    800000b8:	60a2                	ld	ra,8(sp)
    800000ba:	6142                	ld	sp,16(sp)
    800000bc:	61e2                	ld	gp,24(sp)
    800000be:	7202                	ld	tp,32(sp)
    800000c0:	72a2                	ld	t0,40(sp)
    800000c2:	7342                	ld	t1,48(sp)
    800000c4:	73e2                	ld	t2,56(sp)
    800000c6:	6406                	ld	s0,64(sp)
    800000c8:	64a6                	ld	s1,72(sp)
    800000ca:	6546                	ld	a0,80(sp)
    800000cc:	65e6                	ld	a1,88(sp)
    800000ce:	7606                	ld	a2,96(sp)
    800000d0:	76a6                	ld	a3,104(sp)
    800000d2:	7746                	ld	a4,112(sp)
    800000d4:	77e6                	ld	a5,120(sp)
    800000d6:	680a                	ld	a6,128(sp)
    800000d8:	68aa                	ld	a7,136(sp)
    800000da:	694a                	ld	s2,144(sp)
    800000dc:	69ea                	ld	s3,152(sp)
    800000de:	7a0a                	ld	s4,160(sp)
    800000e0:	7aaa                	ld	s5,168(sp)
    800000e2:	7b4a                	ld	s6,176(sp)
    800000e4:	7bea                	ld	s7,184(sp)
    800000e6:	6c0e                	ld	s8,192(sp)
    800000e8:	6cae                	ld	s9,200(sp)
    800000ea:	6d4e                	ld	s10,208(sp)
    800000ec:	6dee                	ld	s11,216(sp)
    800000ee:	7e0e                	ld	t3,224(sp)
    800000f0:	7eae                	ld	t4,232(sp)
    800000f2:	7f4e                	ld	t5,240(sp)
    800000f4:	7fee                	ld	t6,248(sp)
    800000f6:	6151                	addi	sp,sp,272
    800000f8:	30200073          	mret
	...

Disassembly of section .tohost:

0000000080001000 <tohost>:
	...

0000000080001040 <fromhost>:
	...

Disassembly of section .text:

0000000080001048 <putchar>:
    80001048:	6345                	lui	t1,0x11
    8000104a:	3003031b          	addiw	t1,t1,768

000000008000104e <uart_status_simple>:
    8000104e:	00c30583          	lb	a1,12(t1) # 1100c <_tbss_end+0x1100c>
    80001052:	8989                	andi	a1,a1,2
    80001054:	dded                	beqz	a1,8000104e <uart_status_simple>
    80001056:	00a30223          	sb	a0,4(t1)
    8000105a:	4501                	li	a0,0
    8000105c:	8082                	ret

000000008000105e <vprintfmt>:
    8000105e:	710d                	addi	sp,sp,-352
    80001060:	eaa2                	sd	s0,336(sp)
    80001062:	e6a6                	sd	s1,328(sp)
    80001064:	e2ca                	sd	s2,320(sp)
    80001066:	f656                	sd	s5,296(sp)
    80001068:	f25a                	sd	s6,288(sp)
    8000106a:	ee5e                	sd	s7,280(sp)
    8000106c:	ee86                	sd	ra,344(sp)
    8000106e:	fe4e                	sd	s3,312(sp)
    80001070:	fa52                	sd	s4,304(sp)
    80001072:	ea62                	sd	s8,272(sp)
    80001074:	e666                	sd	s9,264(sp)
    80001076:	e26a                	sd	s10,256(sp)
    80001078:	892a                	mv	s2,a0
    8000107a:	84ae                	mv	s1,a1
    8000107c:	8432                	mv	s0,a2
    8000107e:	8b36                	mv	s6,a3
    80001080:	02500a93          	li	s5,37
    80001084:	00000b97          	auipc	s7,0x0
    80001088:	6c0b8b93          	addi	s7,s7,1728 # 80001744 <main+0xc2>
    8000108c:	a029                	j	80001096 <vprintfmt+0x38>
    8000108e:	c131                	beqz	a0,800010d2 <vprintfmt+0x74>
    80001090:	85a6                	mv	a1,s1
    80001092:	0405                	addi	s0,s0,1
    80001094:	9902                	jalr	s2
    80001096:	00044503          	lbu	a0,0(s0)
    8000109a:	ff551ae3          	bne	a0,s5,8000108e <vprintfmt+0x30>
    8000109e:	00144683          	lbu	a3,1(s0)
    800010a2:	00140a13          	addi	s4,s0,1
    800010a6:	8752                	mv	a4,s4
    800010a8:	02000c93          	li	s9,32
    800010ac:	59fd                	li	s3,-1
    800010ae:	5d7d                	li	s10,-1
    800010b0:	4501                	li	a0,0
    800010b2:	05500613          	li	a2,85
    800010b6:	45a5                	li	a1,9
    800010b8:	fdd6879b          	addiw	a5,a3,-35
    800010bc:	0ff7f793          	andi	a5,a5,255
    800010c0:	00170413          	addi	s0,a4,1
    800010c4:	04f66163          	bltu	a2,a5,80001106 <vprintfmt+0xa8>
    800010c8:	078a                	slli	a5,a5,0x2
    800010ca:	97de                	add	a5,a5,s7
    800010cc:	439c                	lw	a5,0(a5)
    800010ce:	97de                	add	a5,a5,s7
    800010d0:	8782                	jr	a5
    800010d2:	60f6                	ld	ra,344(sp)
    800010d4:	6456                	ld	s0,336(sp)
    800010d6:	64b6                	ld	s1,328(sp)
    800010d8:	6916                	ld	s2,320(sp)
    800010da:	79f2                	ld	s3,312(sp)
    800010dc:	7a52                	ld	s4,304(sp)
    800010de:	7ab2                	ld	s5,296(sp)
    800010e0:	7b12                	ld	s6,288(sp)
    800010e2:	6bf2                	ld	s7,280(sp)
    800010e4:	6c52                	ld	s8,272(sp)
    800010e6:	6cb2                	ld	s9,264(sp)
    800010e8:	6d12                	ld	s10,256(sp)
    800010ea:	6135                	addi	sp,sp,352
    800010ec:	8082                	ret
    800010ee:	8cb6                	mv	s9,a3
    800010f0:	00174683          	lbu	a3,1(a4)
    800010f4:	8722                	mv	a4,s0
    800010f6:	00170413          	addi	s0,a4,1
    800010fa:	fdd6879b          	addiw	a5,a3,-35
    800010fe:	0ff7f793          	andi	a5,a5,255
    80001102:	fcf673e3          	bgeu	a2,a5,800010c8 <vprintfmt+0x6a>
    80001106:	85a6                	mv	a1,s1
    80001108:	02500513          	li	a0,37
    8000110c:	9902                	jalr	s2
    8000110e:	8452                	mv	s0,s4
    80001110:	b759                	j	80001096 <vprintfmt+0x38>
    80001112:	fd06899b          	addiw	s3,a3,-48
    80001116:	00174683          	lbu	a3,1(a4)
    8000111a:	8722                	mv	a4,s0
    8000111c:	fd06879b          	addiw	a5,a3,-48
    80001120:	0006881b          	sext.w	a6,a3
    80001124:	02f5e563          	bltu	a1,a5,8000114e <vprintfmt+0xf0>
    80001128:	00174683          	lbu	a3,1(a4)
    8000112c:	0029979b          	slliw	a5,s3,0x2
    80001130:	013789bb          	addw	s3,a5,s3
    80001134:	0019999b          	slliw	s3,s3,0x1
    80001138:	010989bb          	addw	s3,s3,a6
    8000113c:	fd06879b          	addiw	a5,a3,-48
    80001140:	0705                	addi	a4,a4,1
    80001142:	fd09899b          	addiw	s3,s3,-48
    80001146:	0006881b          	sext.w	a6,a3
    8000114a:	fcf5ffe3          	bgeu	a1,a5,80001128 <vprintfmt+0xca>
    8000114e:	f60d55e3          	bgez	s10,800010b8 <vprintfmt+0x5a>
    80001152:	8d4e                	mv	s10,s3
    80001154:	59fd                	li	s3,-1
    80001156:	b78d                	j	800010b8 <vprintfmt+0x5a>
    80001158:	00174683          	lbu	a3,1(a4)
    8000115c:	8722                	mv	a4,s0
    8000115e:	bfa9                	j	800010b8 <vprintfmt+0x5a>
    80001160:	85a6                	mv	a1,s1
    80001162:	02500513          	li	a0,37
    80001166:	9902                	jalr	s2
    80001168:	b73d                	j	80001096 <vprintfmt+0x38>
    8000116a:	000b2983          	lw	s3,0(s6)
    8000116e:	00174683          	lbu	a3,1(a4)
    80001172:	0b21                	addi	s6,s6,8
    80001174:	8722                	mv	a4,s0
    80001176:	bfe1                	j	8000114e <vprintfmt+0xf0>
    80001178:	03000513          	li	a0,48
    8000117c:	85a6                	mv	a1,s1
    8000117e:	9902                	jalr	s2
    80001180:	85a6                	mv	a1,s1
    80001182:	07800513          	li	a0,120
    80001186:	9902                	jalr	s2
    80001188:	008b0693          	addi	a3,s6,8
    8000118c:	4741                	li	a4,16
    8000118e:	000b3783          	ld	a5,0(s6)
    80001192:	8b36                	mv	s6,a3
    80001194:	02e7f9b3          	remu	s3,a5,a4
    80001198:	2c81                	sext.w	s9,s9
    8000119a:	0054                	addi	a3,sp,4
    8000119c:	4c05                	li	s8,1
    8000119e:	c04e                	sw	s3,0(sp)
    800011a0:	12e7ec63          	bltu	a5,a4,800012d8 <vprintfmt+0x27a>
    800011a4:	02e7d7b3          	divu	a5,a5,a4
    800011a8:	0691                	addi	a3,a3,4
    800011aa:	8a62                	mv	s4,s8
    800011ac:	2c05                	addiw	s8,s8,1
    800011ae:	02e7f9b3          	remu	s3,a5,a4
    800011b2:	ff36ae23          	sw	s3,-4(a3)
    800011b6:	fee7f7e3          	bgeu	a5,a4,800011a4 <vprintfmt+0x146>
    800011ba:	01ac5963          	bge	s8,s10,800011cc <vprintfmt+0x16e>
    800011be:	2d01                	sext.w	s10,s10
    800011c0:	3d7d                	addiw	s10,s10,-1
    800011c2:	85a6                	mv	a1,s1
    800011c4:	8566                	mv	a0,s9
    800011c6:	9902                	jalr	s2
    800011c8:	ffac4ce3          	blt	s8,s10,800011c0 <vprintfmt+0x162>
    800011cc:	0a0a                	slli	s4,s4,0x2
    800011ce:	9a0a                	add	s4,s4,sp
    800011d0:	8c8a                	mv	s9,sp
    800011d2:	4c25                	li	s8,9
    800011d4:	a021                	j	800011dc <vprintfmt+0x17e>
    800011d6:	ffca2983          	lw	s3,-4(s4)
    800011da:	1a71                	addi	s4,s4,-4
    800011dc:	05700513          	li	a0,87
    800011e0:	013c6463          	bltu	s8,s3,800011e8 <vprintfmt+0x18a>
    800011e4:	03000513          	li	a0,48
    800011e8:	85a6                	mv	a1,s1
    800011ea:	0135053b          	addw	a0,a0,s3
    800011ee:	9902                	jalr	s2
    800011f0:	ff9a13e3          	bne	s4,s9,800011d6 <vprintfmt+0x178>
    800011f4:	b54d                	j	80001096 <vprintfmt+0x38>
    800011f6:	4785                	li	a5,1
    800011f8:	008b0a13          	addi	s4,s6,8
    800011fc:	00a7c363          	blt	a5,a0,80001202 <vprintfmt+0x1a4>
    80001200:	c16d                	beqz	a0,800012e2 <vprintfmt+0x284>
    80001202:	000b3983          	ld	s3,0(s6)
    80001206:	0e09c563          	bltz	s3,800012f0 <vprintfmt+0x292>
    8000120a:	87ce                	mv	a5,s3
    8000120c:	8b52                	mv	s6,s4
    8000120e:	4729                	li	a4,10
    80001210:	b751                	j	80001194 <vprintfmt+0x136>
    80001212:	00174683          	lbu	a3,1(a4)
    80001216:	2505                	addiw	a0,a0,1
    80001218:	8722                	mv	a4,s0
    8000121a:	bd79                	j	800010b8 <vprintfmt+0x5a>
    8000121c:	4741                	li	a4,16
    8000121e:	4785                	li	a5,1
    80001220:	008b0693          	addi	a3,s6,8
    80001224:	f6a7c5e3          	blt	a5,a0,8000118e <vprintfmt+0x130>
    80001228:	f13d                	bnez	a0,8000118e <vprintfmt+0x130>
    8000122a:	000b6783          	lwu	a5,0(s6)
    8000122e:	8b36                	mv	s6,a3
    80001230:	b795                	j	80001194 <vprintfmt+0x136>
    80001232:	000b3a03          	ld	s4,0(s6)
    80001236:	0b21                	addi	s6,s6,8
    80001238:	0c0a0563          	beqz	s4,80001302 <vprintfmt+0x2a4>
    8000123c:	07a05863          	blez	s10,800012ac <vprintfmt+0x24e>
    80001240:	02d00793          	li	a5,45
    80001244:	04fc9063          	bne	s9,a5,80001284 <vprintfmt+0x226>
    80001248:	000a4503          	lbu	a0,0(s4)
    8000124c:	c105                	beqz	a0,8000126c <vprintfmt+0x20e>
    8000124e:	5c7d                	li	s8,-1
    80001250:	0009c563          	bltz	s3,8000125a <vprintfmt+0x1fc>
    80001254:	39fd                	addiw	s3,s3,-1
    80001256:	01898963          	beq	s3,s8,80001268 <vprintfmt+0x20a>
    8000125a:	85a6                	mv	a1,s1
    8000125c:	0a05                	addi	s4,s4,1
    8000125e:	9902                	jalr	s2
    80001260:	000a4503          	lbu	a0,0(s4)
    80001264:	3d7d                	addiw	s10,s10,-1
    80001266:	f56d                	bnez	a0,80001250 <vprintfmt+0x1f2>
    80001268:	e3a057e3          	blez	s10,80001096 <vprintfmt+0x38>
    8000126c:	3d7d                	addiw	s10,s10,-1
    8000126e:	85a6                	mv	a1,s1
    80001270:	02000513          	li	a0,32
    80001274:	9902                	jalr	s2
    80001276:	fe0d1be3          	bnez	s10,8000126c <vprintfmt+0x20e>
    8000127a:	bd31                	j	80001096 <vprintfmt+0x38>
    8000127c:	00000a17          	auipc	s4,0x0
    80001280:	44ca0a13          	addi	s4,s4,1100 # 800016c8 <main+0x46>
    80001284:	000d061b          	sext.w	a2,s10
    80001288:	87d2                	mv	a5,s4
    8000128a:	013a06b3          	add	a3,s4,s3
    8000128e:	00099663          	bnez	s3,8000129a <vprintfmt+0x23c>
    80001292:	a071                	j	8000131e <vprintfmt+0x2c0>
    80001294:	0785                	addi	a5,a5,1
    80001296:	00d78563          	beq	a5,a3,800012a0 <vprintfmt+0x242>
    8000129a:	0007c703          	lbu	a4,0(a5)
    8000129e:	fb7d                	bnez	a4,80001294 <vprintfmt+0x236>
    800012a0:	41478d33          	sub	s10,a5,s4
    800012a4:	41a60d3b          	subw	s10,a2,s10
    800012a8:	07a04b63          	bgtz	s10,8000131e <vprintfmt+0x2c0>
    800012ac:	000a4503          	lbu	a0,0(s4)
    800012b0:	de0503e3          	beqz	a0,80001096 <vprintfmt+0x38>
    800012b4:	5c7d                	li	s8,-1
    800012b6:	bf69                	j	80001250 <vprintfmt+0x1f2>
    800012b8:	fffd4793          	not	a5,s10
    800012bc:	97fd                	srai	a5,a5,0x3f
    800012be:	00fd7d33          	and	s10,s10,a5
    800012c2:	00174683          	lbu	a3,1(a4)
    800012c6:	2d01                	sext.w	s10,s10
    800012c8:	8722                	mv	a4,s0
    800012ca:	b3fd                	j	800010b8 <vprintfmt+0x5a>
    800012cc:	000b2503          	lw	a0,0(s6)
    800012d0:	85a6                	mv	a1,s1
    800012d2:	0b21                	addi	s6,s6,8
    800012d4:	9902                	jalr	s2
    800012d6:	b3c1                	j	80001096 <vprintfmt+0x38>
    800012d8:	4785                	li	a5,1
    800012da:	4a01                	li	s4,0
    800012dc:	efa7c1e3          	blt	a5,s10,800011be <vprintfmt+0x160>
    800012e0:	b5f5                	j	800011cc <vprintfmt+0x16e>
    800012e2:	000b2983          	lw	s3,0(s6)
    800012e6:	b705                	j	80001206 <vprintfmt+0x1a8>
    800012e8:	4721                	li	a4,8
    800012ea:	bf15                	j	8000121e <vprintfmt+0x1c0>
    800012ec:	4729                	li	a4,10
    800012ee:	bf05                	j	8000121e <vprintfmt+0x1c0>
    800012f0:	85a6                	mv	a1,s1
    800012f2:	02d00513          	li	a0,45
    800012f6:	9902                	jalr	s2
    800012f8:	8b52                	mv	s6,s4
    800012fa:	413007b3          	neg	a5,s3
    800012fe:	4729                	li	a4,10
    80001300:	bd51                	j	80001194 <vprintfmt+0x136>
    80001302:	03a05663          	blez	s10,8000132e <vprintfmt+0x2d0>
    80001306:	02d00793          	li	a5,45
    8000130a:	f6fc99e3          	bne	s9,a5,8000127c <vprintfmt+0x21e>
    8000130e:	02800513          	li	a0,40
    80001312:	00000a17          	auipc	s4,0x0
    80001316:	3b6a0a13          	addi	s4,s4,950 # 800016c8 <main+0x46>
    8000131a:	5c7d                	li	s8,-1
    8000131c:	bf15                	j	80001250 <vprintfmt+0x1f2>
    8000131e:	2c81                	sext.w	s9,s9
    80001320:	3d7d                	addiw	s10,s10,-1
    80001322:	85a6                	mv	a1,s1
    80001324:	8566                	mv	a0,s9
    80001326:	9902                	jalr	s2
    80001328:	fe0d1ce3          	bnez	s10,80001320 <vprintfmt+0x2c2>
    8000132c:	b741                	j	800012ac <vprintfmt+0x24e>
    8000132e:	00000a17          	auipc	s4,0x0
    80001332:	39aa0a13          	addi	s4,s4,922 # 800016c8 <main+0x46>
    80001336:	02800513          	li	a0,40
    8000133a:	5c7d                	li	s8,-1
    8000133c:	bf11                	j	80001250 <vprintfmt+0x1f2>

000000008000133e <sprintf_putch.3080>:
    8000133e:	619c                	ld	a5,0(a1)
    80001340:	00a78023          	sb	a0,0(a5)
    80001344:	619c                	ld	a5,0(a1)
    80001346:	0785                	addi	a5,a5,1
    80001348:	e19c                	sd	a5,0(a1)
    8000134a:	8082                	ret

000000008000134c <tohost_exit>:
    8000134c:	00151793          	slli	a5,a0,0x1
    80001350:	0017e793          	ori	a5,a5,1
    80001354:	00000717          	auipc	a4,0x0
    80001358:	caf73623          	sd	a5,-852(a4) # 80001000 <tohost>
    8000135c:	a001                	j	8000135c <tohost_exit+0x10>

000000008000135e <exit>:
    8000135e:	6345                	lui	t1,0x11
    80001360:	3003031b          	addiw	t1,t1,768
    80001364:	00c30503          	lb	a0,12(t1) # 1100c <_tbss_end+0x1100c>
    80001368:	8905                	andi	a0,a0,1
    8000136a:	d975                	beqz	a0,8000135e <exit>
    8000136c:	00020537          	lui	a0,0x20
    80001370:	c548                	sw	a0,12(a0)
    80001372:	a001                	j	80001372 <exit+0x14>

0000000080001374 <setStats>:
    80001374:	b0002773          	csrr	a4,mcycle
    80001378:	00000797          	auipc	a5,0x0
    8000137c:	52878793          	addi	a5,a5,1320 # 800018a0 <counters>
    80001380:	e901                	bnez	a0,80001390 <setStats+0x1c>
    80001382:	6394                	ld	a3,0(a5)
    80001384:	00000617          	auipc	a2,0x0
    80001388:	34c60613          	addi	a2,a2,844 # 800016d0 <main+0x4e>
    8000138c:	eb90                	sd	a2,16(a5)
    8000138e:	8f15                	sub	a4,a4,a3
    80001390:	e398                	sd	a4,0(a5)
    80001392:	b0202773          	csrr	a4,minstret
    80001396:	e901                	bnez	a0,800013a6 <setStats+0x32>
    80001398:	6794                	ld	a3,8(a5)
    8000139a:	00000617          	auipc	a2,0x0
    8000139e:	33e60613          	addi	a2,a2,830 # 800016d8 <main+0x56>
    800013a2:	ef90                	sd	a2,24(a5)
    800013a4:	8f15                	sub	a4,a4,a3
    800013a6:	e798                	sd	a4,8(a5)
    800013a8:	8082                	ret

00000000800013aa <abort>:
    800013aa:	1141                	addi	sp,sp,-16
    800013ac:	e406                	sd	ra,8(sp)
    800013ae:	fb1ff0ef          	jal	ra,8000135e <exit>

00000000800013b2 <printstr>:
    800013b2:	00054783          	lbu	a5,0(a0) # 20000 <_tbss_end+0x20000>
    800013b6:	7159                	addi	sp,sp,-112
    800013b8:	03f10693          	addi	a3,sp,63
    800013bc:	fc06f693          	andi	a3,a3,-64
    800013c0:	c3b9                	beqz	a5,80001406 <printstr+0x54>
    800013c2:	87aa                	mv	a5,a0
    800013c4:	0017c703          	lbu	a4,1(a5)
    800013c8:	0785                	addi	a5,a5,1
    800013ca:	ff6d                	bnez	a4,800013c4 <printstr+0x12>
    800013cc:	8f89                	sub	a5,a5,a0
    800013ce:	04000713          	li	a4,64
    800013d2:	e298                	sd	a4,0(a3)
    800013d4:	4705                	li	a4,1
    800013d6:	e698                	sd	a4,8(a3)
    800013d8:	ea88                	sd	a0,16(a3)
    800013da:	ee9c                	sd	a5,24(a3)
    800013dc:	0ff0000f          	fence
    800013e0:	00000717          	auipc	a4,0x0
    800013e4:	c6070713          	addi	a4,a4,-928 # 80001040 <fromhost>
    800013e8:	00000797          	auipc	a5,0x0
    800013ec:	c0d7bc23          	sd	a3,-1000(a5) # 80001000 <tohost>
    800013f0:	631c                	ld	a5,0(a4)
    800013f2:	dffd                	beqz	a5,800013f0 <printstr+0x3e>
    800013f4:	00000797          	auipc	a5,0x0
    800013f8:	c407b623          	sd	zero,-948(a5) # 80001040 <fromhost>
    800013fc:	0ff0000f          	fence
    80001400:	629c                	ld	a5,0(a3)
    80001402:	6165                	addi	sp,sp,112
    80001404:	8082                	ret
    80001406:	4781                	li	a5,0
    80001408:	b7d9                	j	800013ce <printstr+0x1c>

000000008000140a <thread_entry>:
    8000140a:	e101                	bnez	a0,8000140a <thread_entry>
    8000140c:	8082                	ret

000000008000140e <printhex>:
    8000140e:	7179                	addi	sp,sp,-48
    80001410:	87aa                	mv	a5,a0
    80001412:	f406                	sd	ra,40(sp)
    80001414:	0028                	addi	a0,sp,8
    80001416:	01710613          	addi	a2,sp,23
    8000141a:	4825                	li	a6,9
    8000141c:	a011                	j	80001420 <printhex+0x12>
    8000141e:	863a                	mv	a2,a4
    80001420:	00f7f693          	andi	a3,a5,15
    80001424:	8736                	mv	a4,a3
    80001426:	03000593          	li	a1,48
    8000142a:	00d87463          	bgeu	a6,a3,80001432 <printhex+0x24>
    8000142e:	05700593          	li	a1,87
    80001432:	9f2d                	addw	a4,a4,a1
    80001434:	00e60023          	sb	a4,0(a2)
    80001438:	8391                	srli	a5,a5,0x4
    8000143a:	fff60713          	addi	a4,a2,-1
    8000143e:	fec510e3          	bne	a0,a2,8000141e <printhex+0x10>
    80001442:	00010c23          	sb	zero,24(sp)
    80001446:	f6dff0ef          	jal	ra,800013b2 <printstr>
    8000144a:	70a2                	ld	ra,40(sp)
    8000144c:	6145                	addi	sp,sp,48
    8000144e:	8082                	ret

0000000080001450 <printf>:
    80001450:	711d                	addi	sp,sp,-96
    80001452:	02810313          	addi	t1,sp,40
    80001456:	8e2a                	mv	t3,a0
    80001458:	f42e                	sd	a1,40(sp)
    8000145a:	f832                	sd	a2,48(sp)
    8000145c:	fc36                	sd	a3,56(sp)
    8000145e:	00000517          	auipc	a0,0x0
    80001462:	bea50513          	addi	a0,a0,-1046 # 80001048 <putchar>
    80001466:	869a                	mv	a3,t1
    80001468:	8672                	mv	a2,t3
    8000146a:	4581                	li	a1,0
    8000146c:	ec06                	sd	ra,24(sp)
    8000146e:	e0ba                	sd	a4,64(sp)
    80001470:	e4be                	sd	a5,72(sp)
    80001472:	e8c2                	sd	a6,80(sp)
    80001474:	ecc6                	sd	a7,88(sp)
    80001476:	e41a                	sd	t1,8(sp)
    80001478:	be7ff0ef          	jal	ra,8000105e <vprintfmt>
    8000147c:	60e2                	ld	ra,24(sp)
    8000147e:	4501                	li	a0,0
    80001480:	6125                	addi	sp,sp,96
    80001482:	8082                	ret

0000000080001484 <handle_trap>:
    80001484:	1141                	addi	sp,sp,-16
    80001486:	862e                	mv	a2,a1
    80001488:	85aa                	mv	a1,a0
    8000148a:	00000517          	auipc	a0,0x0
    8000148e:	27650513          	addi	a0,a0,630 # 80001700 <main+0x7e>
    80001492:	e406                	sd	ra,8(sp)
    80001494:	fbdff0ef          	jal	ra,80001450 <printf>
    80001498:	ec7ff0ef          	jal	ra,8000135e <exit>

000000008000149c <_init>:
    8000149c:	1101                	addi	sp,sp,-32
    8000149e:	4581                	li	a1,0
    800014a0:	4501                	li	a0,0
    800014a2:	e822                	sd	s0,16(sp)
    800014a4:	e426                	sd	s1,8(sp)
    800014a6:	ec06                	sd	ra,24(sp)
    800014a8:	00000497          	auipc	s1,0x0
    800014ac:	3f848493          	addi	s1,s1,1016 # 800018a0 <counters>
    800014b0:	1d2000ef          	jal	ra,80001682 <main>
    800014b4:	6090                	ld	a2,0(s1)
    800014b6:	842a                	mv	s0,a0
    800014b8:	e611                	bnez	a2,800014c4 <_init+0x28>
    800014ba:	6490                	ld	a2,8(s1)
    800014bc:	ee01                	bnez	a2,800014d4 <_init+0x38>
    800014be:	8522                	mv	a0,s0
    800014c0:	e9fff0ef          	jal	ra,8000135e <exit>
    800014c4:	688c                	ld	a1,16(s1)
    800014c6:	00000517          	auipc	a0,0x0
    800014ca:	27250513          	addi	a0,a0,626 # 80001738 <main+0xb6>
    800014ce:	f83ff0ef          	jal	ra,80001450 <printf>
    800014d2:	b7e5                	j	800014ba <_init+0x1e>
    800014d4:	6c8c                	ld	a1,24(s1)
    800014d6:	00000517          	auipc	a0,0x0
    800014da:	26250513          	addi	a0,a0,610 # 80001738 <main+0xb6>
    800014de:	f73ff0ef          	jal	ra,80001450 <printf>
    800014e2:	bff1                	j	800014be <_init+0x22>

00000000800014e4 <sprintf>:
    800014e4:	711d                	addi	sp,sp,-96
    800014e6:	03010313          	addi	t1,sp,48
    800014ea:	f022                	sd	s0,32(sp)
    800014ec:	e42a                	sd	a0,8(sp)
    800014ee:	f832                	sd	a2,48(sp)
    800014f0:	fc36                	sd	a3,56(sp)
    800014f2:	842a                	mv	s0,a0
    800014f4:	862e                	mv	a2,a1
    800014f6:	00000517          	auipc	a0,0x0
    800014fa:	e4850513          	addi	a0,a0,-440 # 8000133e <sprintf_putch.3080>
    800014fe:	002c                	addi	a1,sp,8
    80001500:	869a                	mv	a3,t1
    80001502:	f406                	sd	ra,40(sp)
    80001504:	e4be                	sd	a5,72(sp)
    80001506:	e0ba                	sd	a4,64(sp)
    80001508:	e8c2                	sd	a6,80(sp)
    8000150a:	ecc6                	sd	a7,88(sp)
    8000150c:	ec1a                	sd	t1,24(sp)
    8000150e:	b51ff0ef          	jal	ra,8000105e <vprintfmt>
    80001512:	67a2                	ld	a5,8(sp)
    80001514:	00078023          	sb	zero,0(a5)
    80001518:	6522                	ld	a0,8(sp)
    8000151a:	70a2                	ld	ra,40(sp)
    8000151c:	9d01                	subw	a0,a0,s0
    8000151e:	7402                	ld	s0,32(sp)
    80001520:	6125                	addi	sp,sp,96
    80001522:	8082                	ret

0000000080001524 <memcpy>:
    80001524:	00c5e7b3          	or	a5,a1,a2
    80001528:	8fc9                	or	a5,a5,a0
    8000152a:	8b9d                	andi	a5,a5,7
    8000152c:	00c506b3          	add	a3,a0,a2
    80001530:	cf91                	beqz	a5,8000154c <memcpy+0x28>
    80001532:	962e                	add	a2,a2,a1
    80001534:	87aa                	mv	a5,a0
    80001536:	02d57663          	bgeu	a0,a3,80001562 <memcpy+0x3e>
    8000153a:	0005c703          	lbu	a4,0(a1)
    8000153e:	0585                	addi	a1,a1,1
    80001540:	0785                	addi	a5,a5,1
    80001542:	fee78fa3          	sb	a4,-1(a5)
    80001546:	fec59ae3          	bne	a1,a2,8000153a <memcpy+0x16>
    8000154a:	8082                	ret
    8000154c:	fed57fe3          	bgeu	a0,a3,8000154a <memcpy+0x26>
    80001550:	87aa                	mv	a5,a0
    80001552:	6198                	ld	a4,0(a1)
    80001554:	07a1                	addi	a5,a5,8
    80001556:	05a1                	addi	a1,a1,8
    80001558:	fee7bc23          	sd	a4,-8(a5)
    8000155c:	fed7ebe3          	bltu	a5,a3,80001552 <memcpy+0x2e>
    80001560:	8082                	ret
    80001562:	8082                	ret

0000000080001564 <memset>:
    80001564:	00c567b3          	or	a5,a0,a2
    80001568:	8b9d                	andi	a5,a5,7
    8000156a:	962a                	add	a2,a2,a0
    8000156c:	0ff5f593          	andi	a1,a1,255
    80001570:	cb91                	beqz	a5,80001584 <memset+0x20>
    80001572:	87aa                	mv	a5,a0
    80001574:	02c57a63          	bgeu	a0,a2,800015a8 <memset+0x44>
    80001578:	0785                	addi	a5,a5,1
    8000157a:	feb78fa3          	sb	a1,-1(a5)
    8000157e:	fef61de3          	bne	a2,a5,80001578 <memset+0x14>
    80001582:	8082                	ret
    80001584:	00859793          	slli	a5,a1,0x8
    80001588:	8ddd                	or	a1,a1,a5
    8000158a:	01059793          	slli	a5,a1,0x10
    8000158e:	8fcd                	or	a5,a5,a1
    80001590:	02079593          	slli	a1,a5,0x20
    80001594:	8ddd                	or	a1,a1,a5
    80001596:	fec576e3          	bgeu	a0,a2,80001582 <memset+0x1e>
    8000159a:	87aa                	mv	a5,a0
    8000159c:	07a1                	addi	a5,a5,8
    8000159e:	feb7bc23          	sd	a1,-8(a5)
    800015a2:	fec7ede3          	bltu	a5,a2,8000159c <memset+0x38>
    800015a6:	8082                	ret
    800015a8:	8082                	ret

00000000800015aa <strlen>:
    800015aa:	00054783          	lbu	a5,0(a0)
    800015ae:	cb89                	beqz	a5,800015c0 <strlen+0x16>
    800015b0:	87aa                	mv	a5,a0
    800015b2:	0017c703          	lbu	a4,1(a5)
    800015b6:	0785                	addi	a5,a5,1
    800015b8:	ff6d                	bnez	a4,800015b2 <strlen+0x8>
    800015ba:	40a78533          	sub	a0,a5,a0
    800015be:	8082                	ret
    800015c0:	4501                	li	a0,0
    800015c2:	8082                	ret

00000000800015c4 <strnlen>:
    800015c4:	862a                	mv	a2,a0
    800015c6:	00b606b3          	add	a3,a2,a1
    800015ca:	852e                	mv	a0,a1
    800015cc:	87b2                	mv	a5,a2
    800015ce:	e589                	bnez	a1,800015d8 <strnlen+0x14>
    800015d0:	a811                	j	800015e4 <strnlen+0x20>
    800015d2:	0785                	addi	a5,a5,1
    800015d4:	00f68763          	beq	a3,a5,800015e2 <strnlen+0x1e>
    800015d8:	0007c703          	lbu	a4,0(a5)
    800015dc:	fb7d                	bnez	a4,800015d2 <strnlen+0xe>
    800015de:	40c78533          	sub	a0,a5,a2
    800015e2:	8082                	ret
    800015e4:	8082                	ret

00000000800015e6 <strcmp>:
    800015e6:	0005c783          	lbu	a5,0(a1)
    800015ea:	00054703          	lbu	a4,0(a0)
    800015ee:	0585                	addi	a1,a1,1
    800015f0:	0505                	addi	a0,a0,1
    800015f2:	00f71663          	bne	a4,a5,800015fe <strcmp+0x18>
    800015f6:	fbe5                	bnez	a5,800015e6 <strcmp>
    800015f8:	4501                	li	a0,0
    800015fa:	9d1d                	subw	a0,a0,a5
    800015fc:	8082                	ret
    800015fe:	0007051b          	sext.w	a0,a4
    80001602:	bfe5                	j	800015fa <strcmp+0x14>

0000000080001604 <strcpy>:
    80001604:	87aa                	mv	a5,a0
    80001606:	0005c703          	lbu	a4,0(a1)
    8000160a:	0785                	addi	a5,a5,1
    8000160c:	0585                	addi	a1,a1,1
    8000160e:	fee78fa3          	sb	a4,-1(a5)
    80001612:	fb75                	bnez	a4,80001606 <strcpy+0x2>
    80001614:	8082                	ret

0000000080001616 <atol>:
    80001616:	00054703          	lbu	a4,0(a0)
    8000161a:	02000693          	li	a3,32
    8000161e:	87aa                	mv	a5,a0
    80001620:	00d71763          	bne	a4,a3,8000162e <atol+0x18>
    80001624:	0017c703          	lbu	a4,1(a5)
    80001628:	0785                	addi	a5,a5,1
    8000162a:	fed70de3          	beq	a4,a3,80001624 <atol+0xe>
    8000162e:	02d00693          	li	a3,45
    80001632:	04d70163          	beq	a4,a3,80001674 <atol+0x5e>
    80001636:	02b00693          	li	a3,43
    8000163a:	02d70663          	beq	a4,a3,80001666 <atol+0x50>
    8000163e:	0007c683          	lbu	a3,0(a5)
    80001642:	4581                	li	a1,0
    80001644:	c695                	beqz	a3,80001670 <atol+0x5a>
    80001646:	4501                	li	a0,0
    80001648:	0785                	addi	a5,a5,1
    8000164a:	fd06861b          	addiw	a2,a3,-48
    8000164e:	00251713          	slli	a4,a0,0x2
    80001652:	0007c683          	lbu	a3,0(a5)
    80001656:	953a                	add	a0,a0,a4
    80001658:	0506                	slli	a0,a0,0x1
    8000165a:	9532                	add	a0,a0,a2
    8000165c:	f6f5                	bnez	a3,80001648 <atol+0x32>
    8000165e:	c991                	beqz	a1,80001672 <atol+0x5c>
    80001660:	40a00533          	neg	a0,a0
    80001664:	8082                	ret
    80001666:	0017c683          	lbu	a3,1(a5)
    8000166a:	4581                	li	a1,0
    8000166c:	0785                	addi	a5,a5,1
    8000166e:	fee1                	bnez	a3,80001646 <atol+0x30>
    80001670:	4501                	li	a0,0
    80001672:	8082                	ret
    80001674:	0017c683          	lbu	a3,1(a5)
    80001678:	4585                	li	a1,1
    8000167a:	0785                	addi	a5,a5,1
    8000167c:	f6e9                	bnez	a3,80001646 <atol+0x30>
    8000167e:	4501                	li	a0,0
    80001680:	bfcd                	j	80001672 <atol+0x5c>

Disassembly of section .text.startup:

0000000080001682 <main>:
    80001682:	1141                	addi	sp,sp,-16
    80001684:	00000517          	auipc	a0,0x0
    80001688:	03450513          	addi	a0,a0,52 # 800016b8 <main+0x36>
    8000168c:	e406                	sd	ra,8(sp)
    8000168e:	dc3ff0ef          	jal	ra,80001450 <printf>
    80001692:	60a2                	ld	ra,8(sp)
    80001694:	4501                	li	a0,0
    80001696:	0141                	addi	sp,sp,16
    80001698:	8082                	ret
    8000169a:	1141                	addi	sp,sp,-16
    8000169c:	00000517          	auipc	a0,0x0
    800016a0:	04c50513          	addi	a0,a0,76 # 800016e8 <main+0x66>
    800016a4:	e406                	sd	ra,8(sp)
    800016a6:	d0dff0ef          	jal	ra,800013b2 <printstr>
    800016aa:	60a2                	ld	ra,8(sp)
    800016ac:	557d                	li	a0,-1
    800016ae:	0141                	addi	sp,sp,16
    800016b0:	8082                	ret

Disassembly of section .csf:

00000000800018c0 <_end-0xd9a>:
    800018c0:	0f3a000f          	0xf3a000f
    800018c4:	0a10                	addi	a2,sp,272
    800018c6:	0f01                	addi	t5,t5,0
    800018c8:	0001                	nop
    800018ca:	0000                	unimp
    800018cc:	3a00                	fld	fs0,48(a2)
    800018ce:	0a10                	addi	a2,sp,272
    800018d0:	0f02                	c.slli64	t5
    800018d2:	0200                	addi	s0,sp,256
    800018d4:	0000                	unimp
    800018d6:	7e08                	ld	a0,56(a2)
    800018d8:	0911                	addi	s2,s2,4
    800018da:	0f01                	addi	t5,t5,0
    800018dc:	0002                	c.slli64	zero
    800018de:	0b00                	addi	s0,sp,400
    800018e0:	1194                	addi	a3,sp,224
    800018e2:	0119                	addi	sp,sp,6
    800018e4:	0000020f          	0x20f
    800018e8:	970c                	0x970c
    800018ea:	0080                	addi	s0,sp,64
    800018ec:	0000                	unimp
    800018ee:	0000                	unimp
    800018f0:	0100                	addi	s0,sp,128
    800018f2:	0080                	addi	s0,sp,64
    800018f4:	0010                	0x10
    800018f6:	0000                	unimp
    800018f8:	0100                	addi	s0,sp,128
    800018fa:	0801                	addi	a6,a6,0
    800018fc:	0444                	addi	s1,sp,516
    800018fe:	0204                	addi	s1,sp,256
    80001900:	2110                	fld	fa2,0(a0)
    80001902:	0000                	unimp
    80001904:	0180                	addi	s0,sp,192
    80001906:	0000                	unimp
    80001908:	98000103          	lb	sp,-1664(zero) # fffffffffffff980 <_end+0xffffffff7fffd326>
    8000190c:	0c2a                	slli	s8,s8,0xa
    8000190e:	c956                	sw	s5,144(sp)
    80001910:	770d                	lui	a4,0xfffe3
    80001912:	0fe80823          	sb	t5,240(a6) # ffffffffffff10f0 <_end+0xffffffff7ffeea96>
    80001916:	db8d                	beqz	a5,80001848 <main+0x1c6>
    80001918:	e851                	bnez	s0,800019ac <_tls_data+0xec>
    8000191a:	070d                	addi	a4,a4,3
    8000191c:	6ad0                	ld	a2,144(a3)
    8000191e:	8505                	srai	a0,a0,0x1
    80001920:	d55be8c7          	0xd55be8c7
    80001924:	872b87c7          	fmsub.q	fa5,fs7,fs2,fa6,rne
    80001928:	0d76                	slli	s10,s10,0x1d
    8000192a:	6d19                	lui	s10,0x6
    8000192c:	8ab2                	mv	s5,a2
    8000192e:	f1aa                	sd	a0,224(sp)
    80001930:	4e0c                	lw	a1,24(a2)
    80001932:	0fc2                	slli	t6,t6,0x10
    80001934:	feb017fb          	0xfeb017fb
    80001938:	6196                	ld	gp,320(sp)
    8000193a:	c0a2                	sw	s0,64(sp)
    8000193c:	b19d                	j	800015a2 <memset+0x3e>
    8000193e:	1c4fca4f          	0x1c4fca4f
    80001942:	7c1beccb          	0x7c1beccb
    80001946:	4b2d                	li	s6,11
    80001948:	a38d                	j	80001eaa <_tls_data+0x5ea>
    8000194a:	20d2                	fld	ft1,272(sp)
    8000194c:	bea5ad67          	0xbea5ad67
    80001950:	deb0                	sw	a2,120(a3)
    80001952:	a4b6                	fsd	fa3,72(sp)
    80001954:	ac35                	j	80001b90 <_tls_data+0x2d0>
    80001956:	ad5c                	fsd	fa5,152(a0)
    80001958:	bbc6                	fsd	fa7,496(sp)
    8000195a:	5cafadcb          	0x5cafadcb
    8000195e:	5adcac53          	0x5adcac53
    80001962:	3b04                	fld	fs1,48(a4)
    80001964:	a89d                	j	800019da <_tls_data+0x11a>
    80001966:	4328                	lw	a0,64(a4)
    80001968:	8fb0                	0x8fb0
    8000196a:	ea1a                	sd	t1,272(sp)
    8000196c:	843e                	mv	s0,a5
    8000196e:	3f42                	fld	ft10,48(sp)
    80001970:	4cd6                	lw	s9,84(sp)
    80001972:	4aeb7493          	andi	s1,s6,1198
    80001976:	9fa4                	0x9fa4
    80001978:	3e92                	fld	ft9,288(sp)
    8000197a:	46b0                	lw	a2,72(a3)
    8000197c:	c126                	sw	s1,128(sp)
    8000197e:	e54a                	sd	s2,136(sp)
    80001980:	7e99                	lui	t4,0xfffe6
    80001982:	1ab6                	slli	s5,s5,0x2d
    80001984:	2c6c                	fld	fa1,216(s0)
    80001986:	f7f3d1af          	0xf7f3d1af
    8000198a:	b786                	fsd	ft1,488(sp)
    8000198c:	04b4d10f          	0x4b4d10f
    80001990:	81e1                	srli	a1,a1,0x18
    80001992:	cb8ab687          	fld	fa3,-840(s5)
    80001996:	0478                	addi	a4,sp,524
    80001998:	bf9f 1bea 9737      	0x97371beabf9f
    8000199e:	ea82                	sd	zero,336(sp)
    800019a0:	74d6a657          	0x74d6a657
    800019a4:	d8d393e7          	0xd8d393e7
    800019a8:	346e                	fld	fs0,248(sp)
    800019aa:	e13e                	sd	a5,128(sp)
    800019ac:	42b2                	lw	t0,12(sp)
    800019ae:	9e4c                	0x9e4c
    800019b0:	e132                	sd	a2,128(sp)
    800019b2:	684d                	lui	a6,0x13
    800019b4:	9b24                	0x9b24
    800019b6:	251d                	addiw	a0,a0,7
    800019b8:	48fa                	lw	a7,156(sp)
    800019ba:	1acb87cf          	fnmadd.d	fa5,fs7,fa2,ft3,rne
    800019be:	41c2ba47          	fmsub.s	fs4,ft5,ft8,fs0,rup
    800019c2:	8330                	0x8330
    800019c4:	add2                	fsd	fs4,216(sp)
    800019c6:	3cfc19cb          	0x3cfc19cb
    800019ca:	5838                	lw	a4,112(s0)
    800019cc:	48c4                	lw	s1,20(s1)
    800019ce:	6785                	lui	a5,0x1
    800019d0:	a686                	fsd	ft1,328(sp)
    800019d2:	d8b1                	beqz	s1,80001926 <_tls_data+0x66>
    800019d4:	1c4e18eb          	0x1c4e18eb
    800019d8:	cd9f 7d9b a70d      	0xa70d7d9bcd9f
    800019de:	56e8                	lw	a0,108(a3)
    800019e0:	e4aa                	sd	a0,72(sp)
    800019e2:	4a56                	lw	s4,84(sp)
    800019e4:	ab02                	fsd	ft0,400(sp)
    800019e6:	546adaf7          	0x546adaf7
    800019ea:	087f                	0x87f
    800019ec:	96ac                	0x96ac
    800019ee:	8d69                	and	a0,a0,a0
    800019f0:	d99a                	sw	t1,240(sp)
    800019f2:	1224                	addi	s1,sp,296
    800019f4:	b251                	j	80001378 <setStats+0x4>
    800019f6:	296c                	fld	fa1,208(a0)
    800019f8:	ac1e                	fsd	ft7,24(sp)
    800019fa:	e5fd5ebf 8f284221 	0x8f284221e5fd5ebf
    80001a02:	47695d83          	lhu	s11,1142(s2) # 1b476 <_tbss_end+0x1b476>
    80001a06:	5a5d                	li	s4,-9
    80001a08:	40fd                	li	ra,31
    80001a0a:	01000117          	auipc	sp,0x1000
    80001a0e:	adb7dd4f          	0xadb7dd4f
    80001a12:	b665                	j	800015ba <strlen+0x10>
    80001a14:	e614                	sd	a3,8(a2)
    80001a16:	b485                	j	80001476 <printf+0x26>
    80001a18:	a3d5                	j	80001ffc <_tls_data+0x73c>
    80001a1a:	37df 3a8e f790      	0xf7903a8e37df
    80001a20:	4614                	lw	a3,8(a2)
    80001a22:	6cd77523          	0x6cd77523
    80001a26:	ec3c                	sd	a5,88(s0)
    80001a28:	b64047f3          	0xb64047f3
    80001a2c:	87e6                	mv	a5,s9
    80001a2e:	08b3b68f          	0x8b3b68f
    80001a32:	55a4                	lw	s1,104(a1)
    80001a34:	e791                	bnez	a5,80001a40 <_tls_data+0x180>
    80001a36:	a54a                	fsd	fs2,136(sp)
    80001a38:	da5e                	sw	s7,52(sp)
    80001a3a:	d4d2                	sw	s4,104(sp)
    80001a3c:	9da1                	addw	a1,a1,s0
    80001a3e:	0556                	slli	a0,a0,0x15
    80001a40:	264c                	fld	fa1,136(a2)
    80001a42:	67612b63          	0x67612b63
    80001a46:	3811                	addiw	a6,a6,-28
    80001a48:	b54c                	fsd	fa1,168(a0)
    80001a4a:	c608                	sw	a0,8(a2)
    80001a4c:	bd06                	fsd	ft1,184(sp)
    80001a4e:	d4a6                	sw	s1,104(sp)
    80001a50:	08e2                	slli	a7,a7,0x18
    80001a52:	aba8                	fsd	fa0,80(a5)
    80001a54:	c195                	beqz	a1,80001a78 <_tls_data+0x1b8>
    80001a56:	6492                	ld	s1,256(sp)
    80001a58:	b198e207          	0xb198e207
    80001a5c:	ee75b963          	0xee75b963
    80001a60:	feee                	sd	s11,376(sp)
    80001a62:	86b36f2b          	0x86b36f2b
    80001a66:	3858                	fld	fa4,176(s0)
    80001a68:	5139                	li	sp,-18
    80001a6a:	7fe4                	ld	s1,248(a5)
    80001a6c:	aaf4                	fsd	fa3,208(a3)
    80001a6e:	4874                	lw	a3,84(s0)
    80001a70:	75e1                	lui	a1,0xffff8
    80001a72:	4068                	lw	a0,68(s0)
    80001a74:	39aa                	fld	fs3,168(sp)
    80001a76:	4cf28243          	0x4cf28243
    80001a7a:	36de                	fld	fa3,496(sp)
    80001a7c:	499da91b          	0x499da91b
    80001a80:	0b1a                	slli	s6,s6,0x6
    80001a82:	c296                	sw	t0,68(sp)
    80001a84:	4392a46b          	0x4392a46b
    80001a88:	702c                	ld	a1,96(s0)
    80001a8a:	8c06                	mv	s8,ra
    80001a8c:	f418                	sd	a4,40(s0)
    80001a8e:	d70c                	sw	a1,40(a4)
    80001a90:	c8c2d707          	0xc8c2d707
    80001a94:	25d1                	addiw	a1,a1,20
    80001a96:	cc71                	beqz	s0,80001b72 <_tls_data+0x2b2>
    80001a98:	215ebf1b          	0x215ebf1b
    80001a9c:	ccbfac0b          	0xccbfac0b
    80001aa0:	4be0                	lw	s0,84(a5)
    80001aa2:	785d                	lui	a6,0xffff7
    80001aa4:	c467d11b          	0xc467d11b
    80001aa8:	48f476f7          	0x48f476f7
    80001aac:	61d0                	ld	a2,128(a1)
    80001aae:	1010                	addi	a2,sp,32
    80001ab0:	410d                	li	sp,3
    80001ab2:	88e6                	mv	a7,s9
    80001ab4:	c2ae                	sw	a1,68(sp)
    80001ab6:	db46                	sw	a7,180(sp)
    80001ab8:	1e6aff2f          	0x1e6aff2f
    80001abc:	d041                	beqz	s0,80001a3c <_tls_data+0x17c>
    80001abe:	d900942b          	0xd900942b
    80001ac2:	a0ca                	fsd	fs2,64(sp)
    80001ac4:	23f1                	addiw	t2,t2,28
    80001ac6:	e136                	sd	a3,128(sp)
    80001ac8:	d3b6                	sw	a3,228(sp)
    80001aca:	ed10                	sd	a2,24(a0)
    80001acc:	e0cb4267          	0xe0cb4267
    80001ad0:	08e2                	slli	a7,a7,0x18
    80001ad2:	c72e4067          	0xc72e4067
    80001ad6:	e5dd                	bnez	a1,80001b84 <_tls_data+0x2c4>
    80001ad8:	b2831817          	auipc	a6,0xb2831
    80001adc:	ff15                	bnez	a4,80001a18 <_tls_data+0x158>
    80001ade:	bc85                	j	8000154e <memcpy+0x2a>
    80001ae0:	ae035867          	0xae035867
    80001ae4:	7511afaf          	0x7511afaf
    80001ae8:	5f79                	li	t5,-2
    80001aea:	c9d05527          	0xc9d05527
    80001aee:	2daa                	fld	fs11,136(sp)
    80001af0:	bca04a83          	lbu	s5,-1078(zero) # fffffffffffffbca <_end+0xffffffff7fffd570>
    80001af4:	673d                	lui	a4,0xf
    80001af6:	da14                	sw	a3,48(a2)
    80001af8:	5f7e                	lw	t5,252(sp)
    80001afa:	9c50                	0x9c50
    80001afc:	192e                	slli	s2,s2,0x2b
    80001afe:	d486                	sw	ra,104(sp)
    80001b00:	5080                	lw	s0,32(s1)
    80001b02:	0edc                	addi	a5,sp,852
    80001b04:	887d                	andi	s0,s0,31
    80001b06:	1ec4cbb7          	lui	s7,0x1ec4c
    80001b0a:	fd01                	bnez	a0,80001a22 <_tls_data+0x162>
    80001b0c:	4a00                	lw	s0,16(a2)
    80001b0e:	0204                	addi	s1,sp,256
    80001b10:	2110                	fld	fa2,0(a0)
    80001b12:	0000                	unimp
    80001b14:	0180                	addi	s0,sp,192
    80001b16:	0000                	unimp
    80001b18:	db000103          	lb	sp,-592(zero) # fffffffffffffdb0 <_end+0xffffffff7fffd756>
    80001b1c:	68c6                	ld	a7,80(sp)
    80001b1e:	4166                	lw	sp,88(sp)
    80001b20:	84e4                	0x84e4
    80001b22:	41ad                	li	gp,11
    80001b24:	ac4c                	fsd	fa1,152(s0)
    80001b26:	4a01                	li	s4,0
    80001b28:	73a5                	lui	t2,0xfffe9
    80001b2a:	e65f 43bc 4382      	0x438243bce65f
    80001b30:	db8e                	sw	gp,244(sp)
    80001b32:	4eda                	lw	t4,148(sp)
    80001b34:	e012070b          	0xe012070b
    80001b38:	2e3d                	addiw	t3,t3,15
    80001b3a:	5800                	lw	s0,48(s0)
    80001b3c:	41a6                	lw	gp,72(sp)
    80001b3e:	8226                	mv	tp,s1
    80001b40:	0a8d                	addi	s5,s5,3
    80001b42:	5791                	li	a5,-28
    80001b44:	63b561b7          	lui	gp,0x63b56
    80001b48:	9b46                	add	s6,s6,a7
    80001b4a:	38a4                	fld	fs1,112(s1)
    80001b4c:	d3d4068b          	0xd3d4068b
    80001b50:	f79d12ef          	jal	t0,7ffd3ac8 <_tbss_end+0x7ffd3ac8>
    80001b54:	6c80982f          	0x6c80982f
    80001b58:	1e14                	addi	a3,sp,816
    80001b5a:	9d04                	0x9d04
    80001b5c:	7a8a                	ld	s5,160(sp)
    80001b5e:	75ed                	lui	a1,0xffffb
    80001b60:	3b06                	fld	fs6,96(sp)
    80001b62:	85f5                	srai	a1,a1,0x1d
    80001b64:	f2f6                	sd	t4,352(sp)
    80001b66:	a6e2046f          	jal	s0,7ff21dd4 <_tbss_end+0x7ff21dd4>
    80001b6a:	0c06                	slli	s8,s8,0x1
    80001b6c:	fc41                	bnez	s0,80001b04 <_tls_data+0x244>
    80001b6e:	0dfc3633          	0xdfc3633
    80001b72:	316c                	fld	fa1,224(a0)
    80001b74:	be6d                	j	8000172e <main+0xac>
    80001b76:	def1                	beqz	a3,80001b52 <_tls_data+0x292>
    80001b78:	164e                	slli	a2,a2,0x33
    80001b7a:	09ae                	slli	s3,s3,0xb
    80001b7c:	475f 0404 52a1      	0x52a10404475f
    80001b82:	0898                	addi	a4,sp,80
    80001b84:	fb9ecb9b          	0xfb9ecb9b
    80001b88:	90fb716f          	jal	sp,7ffb9496 <_tbss_end+0x7ffb9496>
    80001b8c:	b2d97433          	0xb2d97433
    80001b90:	84c1                	srai	s1,s1,0x10
    80001b92:	7805f89b          	0x7805f89b
    80001b96:	7802                	ld	a6,32(sp)
    80001b98:	c4df 2c9d 1d80      	0x1d802c9dc4df
    80001b9e:	ddeeb60b          	0xddeeb60b
    80001ba2:	bd45347b          	0xbd45347b
    80001ba6:	4bf1d6f3          	csrrwi	a3,0x4bf,3
    80001baa:	6ee2                	ld	t4,24(sp)
    80001bac:	8d40                	0x8d40
    80001bae:	2bbc                	fld	fa5,80(a5)
    80001bb0:	ff65                	bnez	a4,80001ba8 <_tls_data+0x2e8>
    80001bb2:	f7a9                	bnez	a5,80001afc <_tls_data+0x23c>
    80001bb4:	8248                	0x8248
    80001bb6:	9392                	add	t2,t2,tp
    80001bb8:	e778                	sd	a4,200(a4)
    80001bba:	2cf5                	addiw	s9,s9,29
    80001bbc:	3718                	fld	fa4,40(a4)
    80001bbe:	35bd                	addiw	a1,a1,-17
    80001bc0:	46f39eaf          	0x46f39eaf
    80001bc4:	4a3eb9cf          	fnmadd.d	fs3,ft9,ft3,fs1,rup
    80001bc8:	4562e9db          	0x4562e9db
    80001bcc:	bbbe                	fsd	fa5,496(sp)
    80001bce:	60f2                	ld	ra,280(sp)
    80001bd0:	6c41                	lui	s8,0x10
    80001bd2:	b282                	fsd	ft0,352(sp)
    80001bd4:	ece6                	sd	s9,88(sp)
    80001bd6:	7350                	ld	a2,160(a4)
    80001bd8:	4d29                	li	s10,10
    80001bda:	df64                	sw	s1,124(a4)
    80001bdc:	f2aa                	sd	a0,352(sp)
    80001bde:	8490                	0x8490
    80001be0:	dced                	beqz	s1,80001bda <_tls_data+0x31a>
    80001be2:	e6ad                	bnez	a3,80001c4c <_tls_data+0x38c>
    80001be4:	e4bbe18b          	0xe4bbe18b
    80001be8:	7f38                	ld	a4,120(a4)
    80001bea:	e04e                	sd	s3,0(sp)
    80001bec:	29d1                	addiw	s3,s3,20
    80001bee:	53f5447b          	0x53f5447b
    80001bf2:	faeb03eb          	0xfaeb03eb
    80001bf6:	8925                	andi	a0,a0,9
    80001bf8:	2f59                	addiw	t5,t5,22
    80001bfa:	ad74                	fsd	fa3,216(a0)
    80001bfc:	29cd                	addiw	s3,s3,19
    80001bfe:	e11a96bb          	0xe11a96bb
    80001c02:	00cb2ba3          	sw	a2,23(s6)
    80001c06:	79f5                	lui	s3,0xffffd
    80001c08:	552b133f a809de2c 	0xa809de2c552b133f
    80001c10:	cf29                	beqz	a4,80001c6a <_tls_data+0x3aa>
    80001c12:	40f2                	lw	ra,28(sp)
    80001c14:	f8a5                	bnez	s1,80001b84 <_tls_data+0x2c4>
    80001c16:	b35e                	fsd	fs7,416(sp)
    80001c18:	0167940b          	0x167940b
    80001c1c:	0100                	addi	s0,sp,128
    80001c1e:	1b5f aeaf 56f2      	0x56f2aeaf1b5f
    80001c24:	13b9                	addi	t2,t2,-18
    80001c26:	5f44                	lw	s1,60(a4)
    80001c28:	51e4                	lw	s1,100(a1)
    80001c2a:	8344                	0x8344
    80001c2c:	78864c57          	0x78864c57
    80001c30:	752e                	ld	a0,232(sp)
    80001c32:	826c                	0x826c
    80001c34:	ab238403          	lb	s0,-1358(t2) # fffffffffffe8ab2 <_end+0xffffffff7ffe6458>
    80001c38:	5946                	lw	s2,112(sp)
    80001c3a:	992e                	add	s2,s2,a1
    80001c3c:	f1854ec3          	fmadd.s	ft9,fa0,fs8,ft10,rmm
    80001c40:	f5a4                	sd	s1,104(a1)
    80001c42:	7090                	ld	a2,32(s1)
    80001c44:	8f58                	0x8f58
    80001c46:	4a21                	li	s4,8
    80001c48:	12ed                	addi	t0,t0,-5
    80001c4a:	a4f0                	fsd	fa2,200(s1)
    80001c4c:	eb79                	bnez	a4,80001d22 <_tls_data+0x462>
    80001c4e:	82de                	mv	t0,s7
    80001c50:	f5ac                	sd	a1,104(a1)
    80001c52:	a75c                	fsd	fa5,136(a4)
    80001c54:	9dc2                	add	s11,s11,a6
    80001c56:	0155                	addi	sp,sp,21
    80001c58:	1d69                	addi	s10,s10,-6
    80001c5a:	a436c7eb          	0xa436c7eb
    80001c5e:	7ae5                	lui	s5,0xffff9
    80001c60:	b288                	fsd	fa0,32(a3)
    80001c62:	64bc                	ld	a5,72(s1)
    80001c64:	c751f163          	bgeu	gp,s5,800010c6 <vprintfmt+0x68>
    80001c68:	f9f6                	sd	t4,240(sp)
    80001c6a:	5835                	li	a6,-19
    80001c6c:	ab62                	fsd	fs8,400(sp)
    80001c6e:	e256                	sd	s5,256(sp)
    80001c70:	b358                	fsd	fa4,160(a4)
    80001c72:	61b1                	lui	gp,0xc
    80001c74:	3566b6db          	0x3566b6db
    80001c78:	b168                	fsd	fa0,224(a0)
    80001c7a:	8c9d                	sub	s1,s1,a5
    80001c7c:	b170                	fsd	fa2,224(a0)
    80001c7e:	cdd2                	sw	s4,216(sp)
    80001c80:	e99a                	sd	t1,208(sp)
    80001c82:	a2ad                	j	80001dec <_tls_data+0x52c>
    80001c84:	90f0                	0x90f0
    80001c86:	8c7e                	mv	s8,t6
    80001c88:	d301                	beqz	a4,80001b88 <_tls_data+0x2c8>
    80001c8a:	73cc88c3          	fmadd.d	fa7,fs9,ft8,fa4,rne
    80001c8e:	6ea9                	lui	t4,0xa
    80001c90:	ff0d                	bnez	a4,80001bca <_tls_data+0x30a>
    80001c92:	0e1f5ab7          	lui	s5,0xe1f5
    80001c96:	8d16                	mv	s10,t0
    80001c98:	d2942793          	slti	a5,s0,-727
    80001c9c:	1178                	addi	a4,sp,172
    80001c9e:	b5f6                	fsd	ft9,232(sp)
    80001ca0:	759a                	ld	a1,416(sp)
    80001ca2:	c331                	beqz	a4,80001ce6 <_tls_data+0x426>
    80001ca4:	f8ba                	sd	a4,112(sp)
    80001ca6:	8cd6                	mv	s9,s5
    80001ca8:	a75c                	fsd	fa5,136(a4)
    80001caa:	367c4063          	blt	s8,t2,8000200a <_tls_data+0x74a>
    80001cae:	e402                	sd	zero,8(sp)
    80001cb0:	bd66                	fsd	fs9,184(sp)
    80001cb2:	5521                	li	a0,-24
    80001cb4:	cd775dbf bdf26003 	0xbdf26003cd775dbf
    80001cbc:	60be                	ld	ra,456(sp)
    80001cbe:	9b94                	0x9b94
    80001cc0:	df72                	sw	t3,188(sp)
    80001cc2:	b709                	j	80001bc4 <_tls_data+0x304>
    80001cc4:	ed2a                	sd	a0,152(sp)
    80001cc6:	cbe8                	sw	a0,84(a5)
    80001cc8:	1d9f af0f 9240      	0x9240af0f1d9f
    80001cce:	3198                	fld	fa4,32(a1)
    80001cd0:	e9a8                	sd	a0,80(a1)
    80001cd2:	92c2                	add	t0,t0,a6
    80001cd4:	9de6                	add	s11,s11,s9
    80001cd6:	5706                	lw	a4,96(sp)
    80001cd8:	976e                	add	a4,a4,s11
    80001cda:	ef51                	bnez	a4,80001d76 <_tls_data+0x4b6>
    80001cdc:	223c                	fld	fa5,64(a2)
    80001cde:	d38d                	beqz	a5,80001c00 <_tls_data+0x340>
    80001ce0:	f1c6                	sd	a7,224(sp)
    80001ce2:	06be                	slli	a3,a3,0xf
    80001ce4:	6ebc16e7          	0x6ebc16e7
    80001ce8:	ac86                	fsd	ft1,88(sp)
    80001cea:	3d48                	fld	fa0,184(a0)
    80001cec:	a83d8dbb          	0xa83d8dbb
    80001cf0:	5528                	lw	a0,104(a0)
    80001cf2:	fbe8                	sd	a0,240(a5)
    80001cf4:	6545                	lui	a0,0x11
    80001cf6:	3b3a                	fld	fs6,424(sp)
    80001cf8:	9682                	jalr	a3
    80001cfa:	14e4                	addi	s1,sp,620
    80001cfc:	41f1                	li	gp,28
    80001cfe:	c7f1                	beqz	a5,80001dca <_tls_data+0x50a>
    80001d00:	382e4e77          	0x382e4e77
    80001d04:	d3c1                	beqz	a5,80001c84 <_tls_data+0x3c4>
    80001d06:	5461                	li	s0,-8
    80001d08:	10a2                	slli	ra,ra,0x28
    80001d0a:	289fd983          	lhu	s3,649(t6)
    80001d0e:	a7e0                	fsd	fs0,200(a5)
    80001d10:	3c82                	fld	fs9,32(sp)
    80001d12:	10fd                	addi	ra,ra,-1
    80001d14:	63f8                	ld	a4,192(a5)
    80001d16:	d398                	sw	a4,32(a5)
    80001d18:	6c5c                	ld	a5,152(s0)
    80001d1a:	6255                	lui	tp,0x15
    80001d1c:	067c                	addi	a5,sp,780
    80001d1e:	0204                	addi	s1,sp,256
    80001d20:	2110                	fld	fa2,0(a0)
    80001d22:	0000                	unimp
    80001d24:	0180                	addi	s0,sp,192
    80001d26:	0000                	unimp
    80001d28:	e3000103          	lb	sp,-464(zero) # fffffffffffffe30 <_end+0xffffffff7fffd7d6>
    80001d2c:	5c6c                	lw	a1,124(s0)
    80001d2e:	0540                	addi	s0,sp,644
    80001d30:	f05654c3          	fmadd.s	fs1,fa2,ft5,ft10,unknown
    80001d34:	02fa                	slli	t0,t0,0x1e
    80001d36:	9434                	0x9434
    80001d38:	722eaa53          	0x722eaa53
    80001d3c:	603c                	ld	a5,64(s0)
    80001d3e:	7d8e                	ld	s11,224(sp)
    80001d40:	30e0954f          	fnmadd.s	fa0,ft1,fa4,ft6,rtz
    80001d44:	adec                	fsd	fa1,216(a1)
    80001d46:	41f0                	lw	a2,68(a1)
    80001d48:	bbc6                	fsd	fa7,496(sp)
    80001d4a:	c3f4                	sw	a3,68(a5)
    80001d4c:	2e30                	fld	fa2,88(a2)
    80001d4e:	aa42                	fsd	fa6,272(sp)
    80001d50:	b822                	fsd	fs0,48(sp)
    80001d52:	a38e                	fsd	ft3,448(sp)
    80001d54:	90a8                	0x90a8
    80001d56:	dc4a                	sw	s2,56(sp)
    80001d58:	33a9                	addiw	t2,t2,-22
    80001d5a:	41ec6503          	lwu	a0,1054(s8) # 1041e <_tbss_end+0x1041e>
    80001d5e:	6f35c3b7          	lui	t2,0x6f35c
    80001d62:	2d466e0f          	0x2d466e0f
    80001d66:	7b5b0ae7          	jalr	s5,1973(s6)
    80001d6a:	90f9                	srli	s1,s1,0x3e
    80001d6c:	c166                	sw	s9,128(sp)
    80001d6e:	4c785e1b          	0x4c785e1b
    80001d72:	146c                	addi	a1,sp,556
    80001d74:	dd3e                	sw	a5,184(sp)
    80001d76:	fc84                	sd	s1,56(s1)
    80001d78:	fe20                	sd	s0,120(a2)
    80001d7a:	dfc5                	beqz	a5,80001d32 <_tls_data+0x472>
    80001d7c:	60c796cb          	fnmsub.s	fa3,fa5,fa2,fa2,rtz
    80001d80:	817c                	0x817c
    80001d82:	1034                	addi	a3,sp,40
    80001d84:	ca52                	sw	s4,20(sp)
    80001d86:	61ebc14b          	fnmsub.s	ft2,fs7,ft10,fa2,rmm
    80001d8a:	a87d                	j	80001e48 <_tls_data+0x588>
    80001d8c:	0082                	c.slli64	ra
    80001d8e:	7e80                	ld	s0,56(a3)
    80001d90:	843a                	mv	s0,a4
    80001d92:	26d8                	fld	fa4,136(a3)
    80001d94:	6855                	lui	a6,0x15
    80001d96:	b9a8bb3f 1ec39988 	0x1ec39988b9a8bb3f
    80001d9e:	be80                	fsd	fs0,56(a3)
    80001da0:	d32c                	sw	a1,96(a4)
    80001da2:	85ba                	mv	a1,a4
    80001da4:	f905a53f 31c0a133 	0x31c0a133f905a53f
    80001dac:	9a19                	andi	a2,a2,-26
    80001dae:	19aa                	slli	s3,s3,0x2a
    80001db0:	393bf673          	csrrci	a2,0x393,23
    80001db4:	234c38a3          	sd	s4,561(s8)
    80001db8:	cde0                	sw	s0,92(a1)
    80001dba:	a328                	fsd	fa0,64(a4)
    80001dbc:	d5f5                	beqz	a1,80001da8 <_tls_data+0x4e8>
    80001dbe:	07dc                	addi	a5,sp,964
    80001dc0:	b253ea23          	0xb253ea23
    80001dc4:	f1d5                	bnez	a1,80001d68 <_tls_data+0x4a8>
    80001dc6:	c2bd3c5b          	0xc2bd3c5b
    80001dca:	99b4                	0x99b4
    80001dcc:	e07f                	0xe07f
    80001dce:	dafa                	sw	t5,116(sp)
    80001dd0:	86d6                	mv	a3,s5
    80001dd2:	d339                	beqz	a4,80001d18 <_tls_data+0x458>
    80001dd4:	976e450b          	0x976e450b
    80001dd8:	fce4                	sd	s1,248(s1)
    80001dda:	c4e6                	sw	s9,72(sp)
    80001ddc:	30481ebf 7bf588c8 	0x7bf588c830481ebf
    80001de4:	210a                	fld	ft2,128(sp)
    80001de6:	d828                	sw	a0,112(s0)
    80001de8:	f4b8                	sd	a4,104(s1)
    80001dea:	2bf0                	fld	fa2,208(a5)
    80001dec:	3bb8                	fld	fa4,112(a5)
    80001dee:	7951                	lui	s2,0xffff4
    80001df0:	b55c                	fsd	fa5,168(a0)
    80001df2:	92d5                	srli	a3,a3,0x35
    80001df4:	0831                	addi	a6,a6,12
    80001df6:	b130                	fsd	fa2,96(a0)
    80001df8:	7151                	addi	sp,sp,-240
    80001dfa:	0334                	addi	a3,sp,392
    80001dfc:	5b75                	li	s6,-3
    80001dfe:	9f3b75fb          	0x9f3b75fb
    80001e02:	3351                	addiw	t1,t1,-12
    80001e04:	5151                	li	sp,-12
    80001e06:	c93a                	sw	a4,144(sp)
    80001e08:	874d                	srai	a4,a4,0x13
    80001e0a:	d06d                	beqz	s0,80001dec <_tls_data+0x52c>
    80001e0c:	d3fd                	beqz	a5,80001df2 <_tls_data+0x532>
    80001e0e:	63aa9463          	bne	s5,s10,80002436 <__global_pointer$+0x39a>
    80001e12:	348a                	fld	fs1,160(sp)
    80001e14:	cfca                	sw	s2,220(sp)
    80001e16:	6e94                	ld	a3,24(a3)
    80001e18:	2d23994b          	0x2d23994b
    80001e1c:	8249                	srli	a2,a2,0x12
    80001e1e:	3cb57fe7          	0x3cb57fe7
    80001e22:	c729c9ab          	0xc729c9ab
    80001e26:	e6dc                	sd	a5,136(a3)
    80001e28:	08b5                	addi	a7,a7,13
    80001e2a:	0125                	addi	sp,sp,9
    80001e2c:	0100                	addi	s0,sp,128
    80001e2e:	b858                	fsd	fa4,176(s0)
    80001e30:	a422                	fsd	fs0,8(sp)
    80001e32:	bdba                	fsd	fa4,248(sp)
    80001e34:	ec28                	sd	a0,88(s0)
    80001e36:	67dd                	lui	a5,0x17
    80001e38:	b4d9                	j	800018fe <_tls_data+0x3e>
    80001e3a:	327a6fb3          	0x327a6fb3
    80001e3e:	98b36a83          	lwu	s5,-1653(t1) # fffffffffffe898b <_end+0xffffffff7ffe6331>
    80001e42:	1982                	slli	s3,s3,0x20
    80001e44:	e32548b7          	lui	a7,0xe3254
    80001e48:	3188                	fld	fa0,32(a1)
    80001e4a:	5152                	lw	sp,52(sp)
    80001e4c:	c674                	sw	a3,76(a2)
    80001e4e:	d8fa                	sw	t5,112(sp)
    80001e50:	d42939bb          	0xd42939bb
    80001e54:	1b6b24b7          	lui	s1,0x1b6b2
    80001e58:	4056                	0x4056
    80001e5a:	aeb6                	fsd	fa3,344(sp)
    80001e5c:	fa11                	bnez	a2,80001d70 <_tls_data+0x4b0>
    80001e5e:	00e6                	slli	ra,ra,0x19
    80001e60:	89b1                	andi	a1,a1,12
    80001e62:	4975da1b          	0x4975da1b
    80001e66:	fffe                	sd	t6,504(sp)
    80001e68:	3969                	addiw	s2,s2,-6
    80001e6a:	41d2                	lw	gp,20(sp)
    80001e6c:	7592                	ld	a1,288(sp)
    80001e6e:	6f34                	ld	a3,88(a4)
    80001e70:	08096fa7          	0x8096fa7
    80001e74:	dbfec64b          	fnmsub.d	fa2,ft9,ft11,fs11,rmm
    80001e78:	78ca996b          	0x78ca996b
    80001e7c:	e208                	sd	a0,0(a2)
    80001e7e:	b0b4                	fsd	fa3,96(s1)
    80001e80:	afb8                	fsd	fa4,88(a5)
    80001e82:	7b762653          	0x7b762653
    80001e86:	66af5cbb          	0x66af5cbb
    80001e8a:	b842                	fsd	fa6,48(sp)
    80001e8c:	77f1                	lui	a5,0xffffc
    80001e8e:	5be5                	li	s7,-7
    80001e90:	296d2427          	fsw	fs6,648(s10) # 6288 <_tbss_end+0x6288>
    80001e94:	0782df2f          	0x782df2f
    80001e98:	62b0b16b          	0x62b0b16b
    80001e9c:	b17cc6e3          	blt	s9,s7,800019a8 <_tls_data+0xe8>
    80001ea0:	4ec0                	lw	s0,28(a3)
    80001ea2:	196a                	slli	s2,s2,0x3a
    80001ea4:	67e2                	ld	a5,24(sp)
    80001ea6:	8f94                	0x8f94
    80001ea8:	1d36574b          	0x1d36574b
    80001eac:	3ea0                	fld	fs0,120(a3)
    80001eae:	017e                	slli	sp,sp,0x1f
    80001eb0:	c1a696cb          	fnmsub.s	fa3,fa3,fs10,fs8,rtz
    80001eb4:	afb6                	fsd	fa3,472(sp)
    80001eb6:	1319                	addi	t1,t1,-26
    80001eb8:	4e5d                	li	t3,23
    80001eba:	d0f5793f e8e788ca 	0xe8e788cad0f5793f
    80001ec2:	f56e                	sd	s11,168(sp)
    80001ec4:	ee9c                	sd	a5,24(a3)
    80001ec6:	16e6                	slli	a3,a3,0x39
    80001ec8:	f20e70d7          	0xf20e70d7
    80001ecc:	98dc14ab          	0x98dc14ab
    80001ed0:	8132                	mv	sp,a2
    80001ed2:	5cee                	lw	s9,248(sp)
    80001ed4:	52f0                	lw	a2,100(a3)
    80001ed6:	def9                	beqz	a3,80001eb4 <_tls_data+0x5f4>
    80001ed8:	731a                	ld	t1,416(sp)
    80001eda:	8927f073          	csrci	0x892,15
    80001ede:	22df 8c4f b73e      	0xb73e8c4f22df
    80001ee4:	8032                	c.mv	zero,a2
    80001ee6:	e2ed                	bnez	a3,80001fc8 <_tls_data+0x708>
    80001ee8:	a289                	j	8000202a <_tls_data+0x76a>
    80001eea:	666a                	ld	a2,152(sp)
    80001eec:	68d65223          	0x68d65223
    80001ef0:	0efe                	slli	t4,t4,0x1f
    80001ef2:	76c8                	ld	a0,168(a3)
    80001ef4:	a9d92dcb          	fnmsub.s	fs11,fs2,ft9,fs5,rdn
    80001ef8:	5b2d754f          	fnmadd.d	fa0,fs10,fs2,fa1
    80001efc:	fa48                	sd	a0,176(a2)
    80001efe:	eb89                	bnez	a5,80001f10 <_tls_data+0x650>
    80001f00:	11511f97          	auipc	t6,0x11511
    80001f04:	d641                	beqz	a2,80001e8c <_tls_data+0x5cc>
    80001f06:	5215                	li	tp,-27
    80001f08:	803a                	c.mv	zero,a4
    80001f0a:	2c7d                	addiw	s8,s8,31
    80001f0c:	0489                	addi	s1,s1,2
    80001f0e:	a8f8                	fsd	fa4,208(s1)
    80001f10:	e374                	sd	a3,192(a4)
    80001f12:	3451                	addiw	s0,s0,-12
    80001f14:	9689                	srai	a3,a3,0x22
    80001f16:	abca                	fsd	fs2,464(sp)
    80001f18:	c560                	sw	s0,76(a0)
    80001f1a:	ea65                	bnez	a2,8000200a <_tls_data+0x74a>
    80001f1c:	864e569b          	0x864e569b
    80001f20:	16f6                	slli	a3,a3,0x3d
    80001f22:	ad88                	fsd	fa0,24(a1)
    80001f24:	7a88181b          	0x7a88181b
    80001f28:	d289                	beqz	a3,80001e2a <_tls_data+0x56a>
    80001f2a:	d0b0a34f          	fnmadd.s	ft6,ft1,fa1,fs10,rdn
    80001f2e:	0204                	addi	s1,sp,256
    80001f30:	2110                	fld	fa2,0(a0)
    80001f32:	0000                	unimp
    80001f34:	0180                	addi	s0,sp,192
    80001f36:	0000                	unimp
    80001f38:	ac000103          	lb	sp,-1344(zero) # fffffffffffffac0 <_end+0xffffffff7fffd466>
    80001f3c:	0f269f0b          	0xf269f0b
    80001f40:	a0c8                	fsd	fa0,128(s1)
    80001f42:	c8a06fab          	0xc8a06fab
    80001f46:	009ce2cb          	fnmsub.s	ft5,fs9,fs1,ft0,unknown
    80001f4a:	9378                	0x9378
    80001f4c:	36c1                	addiw	a3,a3,-16
    80001f4e:	04a5                	addi	s1,s1,9
    80001f50:	5366                	lw	t1,120(sp)
    80001f52:	7c06                	ld	s8,96(sp)
    80001f54:	5992                	lw	s3,36(sp)
    80001f56:	85e4                	0x85e4
    80001f58:	83bc                	0x83bc
    80001f5a:	7f4e                	ld	t5,240(sp)
    80001f5c:	cf1f 439e 21bb      	0x21bb439ecf1f
    80001f62:	53e2                	lw	t2,56(sp)
    80001f64:	13ce                	slli	t2,t2,0x33
    80001f66:	9b1d3873          	csrrc	a6,0x9b1,s10
    80001f6a:	8bdf d811 71fb      	0x71fbd8118bdf
    80001f70:	ddc5                	beqz	a1,80001f28 <_tls_data+0x668>
    80001f72:	9d7e                	add	s10,s10,t6
    80001f74:	5d5e                	lw	s10,244(sp)
    80001f76:	1739                	addi	a4,a4,-18
    80001f78:	2f25                	addiw	t5,t5,9
    80001f7a:	5365                	li	t1,-7
    80001f7c:	a4e0                	fsd	fs0,200(s1)
    80001f7e:	b8b9                	j	800017dc <main+0x15a>
    80001f80:	710e                	ld	sp,224(sp)
    80001f82:	f39ebf03          	ld	t5,-199(t4) # 9f39 <_tbss_end+0x9f39>
    80001f86:	b082                	fsd	ft0,96(sp)
    80001f88:	a24a                	fsd	fs2,256(sp)
    80001f8a:	2a44                	fld	fs1,144(a2)
    80001f8c:	399a24db          	0x399a24db
    80001f90:	f2e1db2b          	0xf2e1db2b
    80001f94:	5ef0                	lw	a2,124(a3)
    80001f96:	ba1750ab          	0xba1750ab
    80001f9a:	5a80                	lw	s0,48(a3)
    80001f9c:	db92                	sw	tp,244(sp)
    80001f9e:	7fad                	lui	t6,0xfffeb
    80001fa0:	6f7d                	lui	t5,0x1f
    80001fa2:	4546                	lw	a0,80(sp)
    80001fa4:	1841                	addi	a6,a6,-16
    80001fa6:	dea34c07          	flq	fs8,-534(t1)
    80001faa:	90ef5ee3          	bge	t5,a4,800018c6 <_tls_data+0x6>
    80001fae:	fef9                	bnez	a3,80001f8c <_tls_data+0x6cc>
    80001fb0:	8529                	srai	a0,a0,0xa
    80001fb2:	54e8                	lw	a0,108(s1)
    80001fb4:	8e0e                	mv	t3,gp
    80001fb6:	507fb343          	fmadd.s	ft6,ft11,ft7,fa0,rup
    80001fba:	a59f278f          	0xa59f278f
    80001fbe:	8825                	andi	s0,s0,9
    80001fc0:	a978                	fsd	fa4,208(a0)
    80001fc2:	9bad                	andi	a5,a5,-21
    80001fc4:	b2d32bfb          	0xb2d32bfb
    80001fc8:	05d84df7          	0x5d84df7
    80001fcc:	93de                	add	t2,t2,s7
    80001fce:	4e2d                	li	t3,11
    80001fd0:	c5f1                	beqz	a1,8000209c <__global_pointer$>
    80001fd2:	10b8                	addi	a4,sp,104
    80001fd4:	ed1a                	sd	t1,152(sp)
    80001fd6:	458e                	lw	a1,192(sp)
    80001fd8:	e601                	bnez	a2,80001fe0 <_tls_data+0x720>
    80001fda:	c3d5                	beqz	a5,8000207e <_tls_data+0x7be>
    80001fdc:	c7ad                	beqz	a5,80002046 <_tls_data+0x786>
    80001fde:	0049                	c.nop	18
    80001fe0:	7909                	lui	s2,0xfffe2
    80001fe2:	bda5                	j	80001e5a <_tls_data+0x59a>
    80001fe4:	6a4f39ab          	0x6a4f39ab
    80001fe8:	eeb2b18f          	0xeeb2b18f
    80001fec:	94357cdb          	0x94357cdb
    80001ff0:	b842                	fsd	fa6,48(sp)
    80001ff2:	c092                	sw	tp,64(sp)
    80001ff4:	1df6                	slli	s11,s11,0x3d
    80001ff6:	47d2f36b          	0x47d2f36b
    80001ffa:	db90c557          	0xdb90c557
    80001ffe:	2f7581b3          	0x2f7581b3
    80002002:	a77a                	fsd	ft10,392(sp)
    80002004:	7d25                	lui	s10,0xfffe9
    80002006:	366e                	fld	fa2,248(sp)
    80002008:	077c                	addi	a5,sp,908
    8000200a:	d07d                	beqz	s0,80001ff0 <_tls_data+0x730>
    8000200c:	81ae                	mv	gp,a1
    8000200e:	21c7f35b          	0x21c7f35b
    80002012:	830a                	mv	t1,sp
    80002014:	15555e13          	0x15555e13
    80002018:	7e1c                	ld	a5,56(a2)
    8000201a:	ade8                	fsd	fa0,216(a1)
    8000201c:	f39c                	sd	a5,32(a5)
    8000201e:	3fe0                	fld	fs0,248(a5)
    80002020:	ac7a                	fsd	ft10,24(sp)
    80002022:	6026                	0x6026
    80002024:	4495                	li	s1,5
    80002026:	aef1                	j	80002402 <__global_pointer$+0x366>
    80002028:	1cf8                	addi	a4,sp,636
    8000202a:	890d                	andi	a0,a0,3
    8000202c:	31e9                	addiw	gp,gp,-6
    8000202e:	8bb4                	0x8bb4
    80002030:	b59dd3a3          	0xb59dd3a3
    80002034:	ce5e                	sw	s7,28(sp)
    80002036:	e41a                	sd	t1,8(sp)
    80002038:	4dde                	lw	s11,212(sp)
    8000203a:	0100015b          	0x100015b
    8000203e:	6760                	ld	s0,200(a4)
    80002040:	42ce                	lw	t0,208(sp)
    80002042:	1396                	slli	t2,t2,0x25
    80002044:	275e                	fld	fa4,464(sp)
    80002046:	8b1d                	andi	a4,a4,7
    80002048:	ed1e                	sd	t2,152(sp)
    8000204a:	b9c2                	fsd	fa6,240(sp)
    8000204c:	7d6c                	ld	a1,248(a0)
    8000204e:	9269                	srli	a2,a2,0x3a
    80002050:	8dad                	xor	a1,a1,a1
    80002052:	e7be                	sd	a5,456(sp)
    80002054:	4c26                	lw	s8,72(sp)
    80002056:	18b4                	addi	a3,sp,120
    80002058:	c589                	beqz	a1,80002062 <_tls_data+0x7a2>
    8000205a:	59d2                	lw	s3,52(sp)
    8000205c:	956b8d4b          	0x956b8d4b
    80002060:	a96e                	fsd	fs11,144(sp)
    80002062:	c5da                	sw	s6,200(sp)
    80002064:	27a6                	fld	fa5,72(sp)
    80002066:	d98d                	beqz	a1,80001f98 <_tls_data+0x6d8>
    80002068:	be08                	fsd	fa0,56(a2)
    8000206a:	5bb318a3          	sh	s11,1457(t1)
    8000206e:	4734768f          	0x4734768f
    80002072:	9abc                	0x9abc
    80002074:	4de85d3f 5eb42b98 	0x5eb42b984de85d3f
    8000207c:	57ea8a4b          	fnmsub.q	fs4,fs5,ft10,fa0,rne
    80002080:	1f2c                	addi	a1,sp,952
    80002082:	6ccd                	lui	s9,0x13
    80002084:	14a0                	addi	s0,sp,616
    80002086:	34d0                	fld	fa2,168(s1)
    80002088:	e0fd                	bnez	s1,8000216e <__global_pointer$+0xd2>
    8000208a:	1044                	addi	s1,sp,36
    8000208c:	660227c3          	fmadd.q	fa5,ft4,ft0,fa2,rdn
    80002090:	803c                	0x803c
    80002092:	a6c4                	fsd	fs1,136(a3)
    80002094:	cbe0                	sw	s0,84(a5)
    80002096:	a3d5                	j	8000267a <_end+0x20>
    80002098:	2edf e76f 0fc1      	0xfc1e76f2edf
    8000209e:	0235                	addi	tp,tp,13
    800020a0:	f4240707          	0xf4240707
    800020a4:	e76c8323          	sb	s6,-410(s9) # 12e66 <_tbss_end+0x12e66>
    800020a8:	0671                	addi	a2,a2,28
    800020aa:	bc9d                	j	80001b20 <_tls_data+0x260>
    800020ac:	48b8                	lw	a4,80(s1)
    800020ae:	9fd0                	0x9fd0
    800020b0:	6ba4                	ld	s1,80(a5)
    800020b2:	d722                	sw	s0,172(sp)
    800020b4:	76f0                	ld	a2,232(a3)
    800020b6:	6955                	lui	s2,0x15
    800020b8:	63d8                	ld	a4,128(a5)
    800020ba:	548075cb          	0x548075cb
    800020be:	249d                	addiw	s1,s1,7
    800020c0:	e4e4                	sd	s1,200(s1)
    800020c2:	c025                	beqz	s0,80002122 <__global_pointer$+0x86>
    800020c4:	ea9a                	sd	t1,336(sp)
    800020c6:	3442                	fld	fs0,48(sp)
    800020c8:	7fa4                	ld	s1,120(a5)
    800020ca:	487e8b97          	auipc	s7,0x487e8
    800020ce:	16b36383          	lwu	t2,363(t1)
    800020d2:	5d80                	lw	s0,56(a1)
    800020d4:	f04d                	bnez	s0,80002076 <_tls_data+0x7b6>
    800020d6:	be66                	fsd	fs9,312(sp)
    800020d8:	7341                	lui	t1,0xffff0
    800020da:	2a20                	fld	fs0,80(a2)
    800020dc:	92e7da33          	0x92e7da33
    800020e0:	d582                	sw	zero,232(sp)
    800020e2:	db52d0a7          	0xdb52d0a7
    800020e6:	6ebf16e3          	bne	t5,a1,80002fd2 <_end+0x978>
    800020ea:	9346                	add	t1,t1,a7
    800020ec:	7346                	ld	t1,112(sp)
    800020ee:	693ad1d7          	0x693ad1d7
    800020f2:	68c3793f cf6b0c9d 	0xcf6b0c9d68c3793f
    800020fa:	aa45                	j	800022aa <__global_pointer$+0x20e>
    800020fc:	257735cb          	0x257735cb
    80002100:	9016                	c.add	zero,t0
    80002102:	9c0ac8bb          	0x9c0ac8bb
    80002106:	4f14                	lw	a3,24(a4)
    80002108:	c604                	sw	s1,8(a2)
    8000210a:	120c                	addi	a1,sp,288
    8000210c:	64f0                	ld	a2,200(s1)
    8000210e:	d764                	sw	s1,108(a4)
    80002110:	2131                	addiw	sp,sp,12
    80002112:	9b89                	andi	a5,a5,-30
    80002114:	c7653c2f          	amominu.d.aqrl	s8,s6,(a0)
    80002118:	8a6e                	mv	s4,s11
    8000211a:	e4b2                	sd	a2,72(sp)
    8000211c:	9842                	add	a6,a6,a6
    8000211e:	ba96                	fsd	ft5,368(sp)
    80002120:	6a21                	lui	s4,0x8
    80002122:	80cc                	0x80cc
    80002124:	db4c                	sw	a1,52(a4)
    80002126:	5dd0                	lw	a2,60(a1)
    80002128:	05c6                	slli	a1,a1,0x11
    8000212a:	a0d5                	j	8000220e <__global_pointer$+0x172>
    8000212c:	a6f6                	fsd	ft9,328(sp)
    8000212e:	f361                	bnez	a4,800020ee <__global_pointer$+0x52>
    80002130:	8bcba0a7          	fsw	ft8,-1887(s7) # c87e996b <_end+0x487e7311>
    80002134:	c1b8                	sw	a4,64(a1)
    80002136:	905d                	srli	s0,s0,0x37
    80002138:	ecac6127          	0xecac6127
    8000213c:	3e61                	addiw	t3,t3,-8
    8000213e:	0302                	c.slli64	t1
    80002140:	10020413          	addi	s0,tp,256 # 15100 <_tbss_end+0x15100>
    80002144:	0021                	c.nop	8
    80002146:	0000                	unimp
    80002148:	0001                	nop
    8000214a:	0300                	addi	s0,sp,384
    8000214c:	0001                	nop
    8000214e:	6cb3e0d3          	0x6cb3e0d3
    80002152:	342a                	fld	fs0,168(sp)
    80002154:	9cb4                	0x9cb4
    80002156:	bf4a                	fsd	fs2,440(sp)
    80002158:	7aa2f373          	csrrci	t1,0x7aa,5
    8000215c:	557a                	lw	a0,188(sp)
    8000215e:	7053d58f          	0x7053d58f
    80002162:	d628                	sw	a0,104(a2)
    80002164:	4411                	li	s0,4
    80002166:	36069f23          	sh	zero,894(a3)
    8000216a:	cff4                	sw	a3,92(a5)
    8000216c:	f54d                	bnez	a0,80002116 <__global_pointer$+0x7a>
    8000216e:	7fba                	ld	t6,424(sp)
    80002170:	ec35                	bnez	s0,800021ec <__global_pointer$+0x150>
    80002172:	a4288adb          	0xa4288adb
    80002176:	f754c337          	lui	t1,0xf754c
    8000217a:	107a                	c.slli	zero,0x3e
    8000217c:	a371                	j	80002708 <_end+0xae>
    8000217e:	86f217bb          	0x86f217bb
    80002182:	3407463b          	0x3407463b
    80002186:	986d                	andi	s0,s0,-5
    80002188:	baf2                	fsd	ft8,368(sp)
    8000218a:	f3f6772b          	0xf3f6772b
    8000218e:	ac163a37          	lui	s4,0xac163
    80002192:	f0a4                	sd	s1,96(s1)
    80002194:	6280                	ld	s0,0(a3)
    80002196:	b7c377a7          	0xb7c377a7
    8000219a:	076e                	slli	a4,a4,0x1b
    8000219c:	721f a57d 7faa      	0x7faaa57d721f
    800021a2:	b1e9                	j	80001e6c <_tls_data+0x5ac>
    800021a4:	4401                	li	s0,0
    800021a6:	cfa1                	beqz	a5,800021fe <__global_pointer$+0x162>
    800021a8:	a174                	fsd	fa3,192(a0)
    800021aa:	0849                	addi	a6,a6,18
    800021ac:	3702                	fld	fa4,32(sp)
    800021ae:	45fa0f2b          	0x45fa0f2b
    800021b2:	7929                	lui	s2,0xfffea
    800021b4:	b558                	fsd	fa4,168(a0)
    800021b6:	224e                	fld	ft4,208(sp)
    800021b8:	8c91                	sub	s1,s1,a2
    800021ba:	3e9c                	fld	fa5,56(a3)
    800021bc:	81f4dfaf          	0x81f4dfaf
    800021c0:	f234                	sd	a3,96(a2)
    800021c2:	376e                	fld	fa4,248(sp)
    800021c4:	967a                	add	a2,a2,t5
    800021c6:	6e1d                	lui	t3,0x7
    800021c8:	47f2                	lw	a5,28(sp)
    800021ca:	eeb0                	sd	a2,88(a3)
    800021cc:	9ab9                	andi	a3,a3,-18
    800021ce:	5c38921b          	0x5c38921b
    800021d2:	0f8e2883          	lw	a7,248(t3) # 70f8 <_tbss_end+0x70f8>
    800021d6:	b80a                	fsd	ft2,48(sp)
    800021d8:	1148                	addi	a0,sp,164
    800021da:	eccc                	sd	a1,152(s1)
    800021dc:	d289f5e3          	bgeu	s3,s0,80001f06 <_tls_data+0x646>
    800021e0:	889d                	andi	s1,s1,7
    800021e2:	8045                	srli	s0,s0,0x11
    800021e4:	40a9                	li	ra,10
    800021e6:	2c2c                	fld	fa1,88(s0)
    800021e8:	26569cc7          	fmsub.q	fs9,fa3,ft5,ft4,rtz
    800021ec:	0cbc                	addi	a5,sp,600
    800021ee:	28c1                	addiw	a7,a7,16
    800021f0:	51e4                	lw	s1,100(a1)
    800021f2:	2ead                	addiw	t4,t4,11
    800021f4:	7ce497ef          	jal	a5,8004b9c2 <_end+0x49368>
    800021f8:	bb576757          	0xbb576757
    800021fc:	1adf a4d0 81d2      	0x81d2a4d01adf
    80002202:	99ea                	add	s3,s3,s10
    80002204:	a7c5                	j	800029e4 <_end+0x38a>
    80002206:	44c1                	li	s1,16
    80002208:	3aed                	addiw	s5,s5,-5
    8000220a:	f8cc2517          	auipc	a0,0xf8cc2
    8000220e:	f695f607          	0xf695f607
    80002212:	1ecd                	addi	t4,t4,-13
    80002214:	986a                	add	a6,a6,s10
    80002216:	cf1e                	sw	t2,156(sp)
    80002218:	9af2                	add	s5,s5,t3
    8000221a:	d8e0                	sw	s0,116(s1)
    8000221c:	547f                	0x547f
    8000221e:	d658                	sw	a4,44(a2)
    80002220:	ecfe                	sd	t6,88(sp)
    80002222:	e6f1                	bnez	a3,800022ee <__global_pointer$+0x252>
    80002224:	2d9d                	addiw	s11,s11,7
    80002226:	ffa0                	sd	s0,120(a5)
    80002228:	2255                	addiw	tp,tp,21
    8000222a:	c81d                	beqz	s0,80002260 <__global_pointer$+0x1c4>
    8000222c:	ca66                	sw	s9,20(sp)
    8000222e:	d4ac                	sw	a1,104(s1)
    80002230:	a0f6                	fsd	ft9,64(sp)
    80002232:	139e3213          	sltiu	tp,t3,313
    80002236:	cb1c                	sw	a5,16(a4)
    80002238:	5536                	lw	a0,108(sp)
    8000223a:	64a8                	ld	a0,72(s1)
    8000223c:	76ad                	lui	a3,0xfffeb
    8000223e:	3496                	fld	fs1,352(sp)
    80002240:	979a06b3          	0x979a06b3
    80002244:	68ee                	ld	a7,216(sp)
    80002246:	4b46                	lw	s6,80(sp)
    80002248:	72ec8333          	0x72ec8333
    8000224c:	1f15                	addi	t5,t5,-27
    8000224e:	0001                	nop
    80002250:	a801                	j	80002260 <__global_pointer$+0x1c4>
    80002252:	94e3888b          	0x94e3888b
    80002256:	bbf80f47          	fmsub.d	ft10,fa6,ft11,fs7,rne
    8000225a:	573c                	lw	a5,104(a4)
    8000225c:	9c24                	0x9c24
    8000225e:	a0e9                	j	80002328 <__global_pointer$+0x28c>
    80002260:	8f6e                	mv	t5,s11
    80002262:	2d9bad5b          	0x2d9bad5b
    80002266:	d4c2                	sw	a6,104(sp)
    80002268:	38c2                	fld	fa7,48(sp)
    8000226a:	32f4                	fld	fa3,224(a3)
    8000226c:	d654                	sw	a3,44(a2)
    8000226e:	58484e87          	flq	ft9,1412(a6) # 15584 <_tbss_end+0x15584>
    80002272:	3bc8                	fld	fa0,176(a5)
    80002274:	6fec                	ld	a1,216(a5)
    80002276:	7ac4                	ld	s1,176(a3)
    80002278:	607c936b          	0x607c936b
    8000227c:	0722                	slli	a4,a4,0x8
    8000227e:	080c                	addi	a1,sp,16
    80002280:	a6f5                	j	8000266c <_end+0x12>
    80002282:	3a50                	fld	fa2,176(a2)
    80002284:	e519                	bnez	a0,80002292 <__global_pointer$+0x1f6>
    80002286:	74b4720f          	0x74b4720f
    8000228a:	f725                	bnez	a4,800021f2 <__global_pointer$+0x156>
    8000228c:	5d58                	lw	a4,60(a0)
    8000228e:	04b5                	addi	s1,s1,13
    80002290:	5c24                	lw	s1,120(s0)
    80002292:	983c                	0x983c
    80002294:	8c46                	mv	s8,a7
    80002296:	4a18                	lw	a4,16(a2)
    80002298:	76e8                	ld	a0,232(a3)
    8000229a:	cf20                	sw	s0,88(a4)
    8000229c:	47c2                	lw	a5,16(sp)
    8000229e:	c6a0                	sw	s0,72(a3)
    800022a0:	cfac716f          	jal	sp,7ffc979a <_tbss_end+0x7ffc979a>
    800022a4:	d819                	beqz	s0,800021ba <__global_pointer$+0x11e>
    800022a6:	1cc9                	addi	s9,s9,-14
    800022a8:	ba3bc35b          	0xba3bc35b
    800022ac:	3adc                	fld	fa5,176(a3)
    800022ae:	fff0                	sd	a2,248(a5)
    800022b0:	689c                	ld	a5,16(s1)
    800022b2:	6b66                	ld	s6,88(sp)
    800022b4:	ea81                	bnez	a3,800022c4 <__global_pointer$+0x228>
    800022b6:	ef39                	bnez	a4,80002314 <__global_pointer$+0x278>
    800022b8:	2690                	fld	fa2,8(a3)
    800022ba:	cced                	beqz	s1,800023b4 <__global_pointer$+0x318>
    800022bc:	0504                	addi	s1,sp,640
    800022be:	59b993ab          	0x59b993ab
    800022c2:	0df9                	addi	s11,s11,30
    800022c4:	5bd6574f          	fnmadd.d	fa4,fa2,ft9,fa1,unknown
    800022c8:	f299                	bnez	a3,800021ce <__global_pointer$+0x132>
    800022ca:	8112                	mv	sp,tp
    800022cc:	1e2d                	addi	t3,t3,-21
    800022ce:	4771404f          	fnmadd.q	ft0,ft2,fs7,fs0,rmm
    800022d2:	442c55f3          	csrrwi	a1,0x442,24
    800022d6:	9c4c                	0x9c4c
    800022d8:	eed8383b          	0xeed8383b
    800022dc:	36c6                	fld	fa3,112(sp)
    800022de:	442a                	lw	s0,136(sp)
    800022e0:	4d6c                	lw	a1,92(a0)
    800022e2:	51b8                	lw	a4,96(a1)
    800022e4:	854a                	mv	a0,s2
    800022e6:	0408                	addi	a0,sp,512
    800022e8:	1971                	addi	s2,s2,-4
    800022ea:	fd79                	bnez	a0,800022c8 <__global_pointer$+0x22c>
    800022ec:	157e1fb7          	lui	t6,0x157e1
    800022f0:	7294                	ld	a3,32(a3)
    800022f2:	7885d9b7          	lui	s3,0x7885d
    800022f6:	0e5421b7          	lui	gp,0xe542
    800022fa:	c71d                	beqz	a4,80002328 <__global_pointer$+0x28c>
    800022fc:	ada4                	fsd	fs1,88(a1)
    800022fe:	294792e3          	bne	a5,s4,80002d82 <_end+0x728>
    80002302:	dca8                	sw	a0,120(s1)
    80002304:	00c6                	slli	ra,ra,0x11
    80002306:	a2c5                	j	800024e6 <__global_pointer$+0x44a>
    80002308:	8ef1                	and	a3,a3,a2
    8000230a:	78d2                	ld	a7,304(sp)
    8000230c:	d0cc                	sw	a1,36(s1)
    8000230e:	b2f9                	j	80001cdc <_tls_data+0x41c>
    80002310:	203d                	0x203d
    80002312:	0a4c                	addi	a1,sp,276
    80002314:	8b3d                	andi	a4,a4,15
    80002316:	4576                	lw	a0,92(sp)
    80002318:	c676                	sw	t4,12(sp)
    8000231a:	963e475b          	0x963e475b
    8000231e:	e93c                	sd	a5,80(a0)
    80002320:	75826377          	0x75826377
    80002324:	1df0                	addi	a2,sp,764
    80002326:	04bac603          	lbu	a2,75(s5) # e1f504b <_tbss_end+0xe1f504b>
    8000232a:	b4ff                	0xb4ff
    8000232c:	5a48                	lw	a0,52(a2)
    8000232e:	c404                	sw	s1,8(s0)
    80002330:	60df 2f82 4c24      	0x4c242f8260df
    80002336:	3dfe                	fld	fs11,504(sp)
    80002338:	5531                	li	a0,-20
    8000233a:	4450                	lw	a2,12(s0)
    8000233c:	6c56                	ld	s8,336(sp)
    8000233e:	1b2a                	slli	s6,s6,0x2a
    80002340:	bf41                	j	800022d0 <__global_pointer$+0x234>
    80002342:	88d01fb3          	0x88d01fb3
    80002346:	fbfe43d3          	0xfbfe43d3
    8000234a:	bda09117          	auipc	sp,0xbda09
    8000234e:	aa58                	fsd	fa4,144(a2)
    80002350:	0001035b          	0x1035b
    80002354:	d146                	sw	a7,160(sp)
    80002356:	ef15                	bnez	a4,80002392 <__global_pointer$+0x2f6>
    80002358:	0fc4                	addi	s1,sp,980
    8000235a:	876a136f          	jal	t1,7ffa33d0 <_tbss_end+0x7ffa33d0>
    8000235e:	ec5f 1144 100f      	0x100f1144ec5f
    80002364:	9bf9                	andi	a5,a5,-2
    80002366:	8ba4                	0x8ba4
    80002368:	3abd                	addiw	s5,s5,-17
    8000236a:	aed6                	fsd	fs5,344(sp)
    8000236c:	b95c                	fsd	fa5,176(a0)
    8000236e:	ccff                	0xccff
    80002370:	1f619ec7          	fmsub.q	ft9,ft3,fs6,ft3,rtz
    80002374:	73dc                	ld	a5,160(a5)
    80002376:	f86a                	sd	s10,48(sp)
    80002378:	1b08                	addi	a0,sp,432
    8000237a:	cb5d                	beqz	a4,80002430 <__global_pointer$+0x394>
    8000237c:	b9623077          	0xb9623077
    80002380:	d7663f9b          	0xd7663f9b
    80002384:	f346                	sd	a7,416(sp)
    80002386:	065b68c7          	fmsub.q	fa7,fs6,ft5,ft0,unknown
    8000238a:	18de                	slli	a7,a7,0x37
    8000238c:	2434                	fld	fa3,72(s0)
    8000238e:	7f10                	ld	a2,56(a4)
    80002390:	696f3327          	fsd	fs6,1670(t5) # 1f686 <_tbss_end+0x1f686>
    80002394:	000c                	0xc
    80002396:	1d25                	addi	s10,s10,-23
    80002398:	f05c                	sd	a5,160(s0)
    8000239a:	8dbd2497          	auipc	s1,0x8dbd2
    8000239e:	67b1                	lui	a5,0xc
    800023a0:	8c31898b          	0x8c31898b
    800023a4:	e23a                	sd	a4,256(sp)
    800023a6:	651d                	lui	a0,0x7
    800023a8:	1425                	addi	s0,s0,-23
    800023aa:	32ce                	fld	ft5,240(sp)
    800023ac:	6fea                	ld	t6,152(sp)
    800023ae:	6d00                	ld	s0,24(a0)
    800023b0:	1bd8                	addi	a4,sp,500
    800023b2:	cf8d7933          	0xcf8d7933
    800023b6:	9aed                	andi	a3,a3,-5
    800023b8:	fb6e                	sd	s11,432(sp)
    800023ba:	4b3c                	lw	a5,80(a4)
    800023bc:	01f2                	slli	gp,gp,0x1c
    800023be:	99e5902f          	0x99e5902f
    800023c2:	9468                	0x9468
    800023c4:	5542                	lw	a0,48(sp)
    800023c6:	05c4                	addi	s1,sp,708
    800023c8:	9134                	0x9134
    800023ca:	c404                	sw	s1,8(s0)
    800023cc:	ae91                	j	80002720 <_end+0xc6>
    800023ce:	1e094693          	xori	a3,s2,480
    800023d2:	33e5                	addiw	t2,t2,-7
    800023d4:	0b85                	addi	s7,s7,1
    800023d6:	0be48fe7          	jalr	t6,190(s1) # dbd4458 <_tbss_end+0xdbd4458>
    800023da:	63b9                	lui	t2,0xe
    800023dc:	c98d                	beqz	a1,8000240e <__global_pointer$+0x372>
    800023de:	3c2a                	fld	fs8,168(sp)
    800023e0:	223e                	fld	ft4,456(sp)
    800023e2:	1864                	addi	s1,sp,60
    800023e4:	81ad                	srli	a1,a1,0xb
    800023e6:	cf658e77          	0xcf658e77
    800023ea:	3e30                	fld	fa2,120(a2)
    800023ec:	3b01                	addiw	s6,s6,-32
    800023ee:	4cee                	lw	s9,216(sp)
    800023f0:	d5e2                	sw	s8,232(sp)
    800023f2:	ce94                	sw	a3,24(a3)
    800023f4:	b81f abde 8d2e      	0x8d2eabdeb81f
    800023fa:	786d                	lui	a6,0xffffb
    800023fc:	7a1e                	ld	s4,480(sp)
    800023fe:	ed01                	bnez	a0,80002416 <__global_pointer$+0x37a>
    80002400:	9492                	add	s1,s1,tp
    80002402:	bf02                	fsd	ft0,440(sp)
    80002404:	d80e                	sw	gp,48(sp)
    80002406:	a2b0713f 532dbf63 	0x532dbf63a2b0713f
    8000240e:	9d1f 6772 fe32      	0xfe3267729d1f
    80002414:	641a                	ld	s0,384(sp)
    80002416:	6224                	ld	s1,64(a2)
    80002418:	cf9a                	sw	t1,220(sp)
    8000241a:	7ff4                	ld	a3,248(a5)
    8000241c:	0186af17          	auipc	t5,0x186a
    80002420:	799d                	lui	s3,0xfffe7
    80002422:	8f46                	mv	t5,a7
    80002424:	69cd                	lui	s3,0x13
    80002426:	7f36                	ld	t5,360(sp)
    80002428:	9b4c                	0x9b4c
    8000242a:	fe3c                	sd	a5,120(a2)
    8000242c:	ee6dfb2b          	0xee6dfb2b
    80002430:	dd4d                	beqz	a0,800023ea <__global_pointer$+0x34e>
    80002432:	6fc6                	ld	t6,80(sp)
    80002434:	eb3a                	sd	a4,400(sp)
    80002436:	3689                	addiw	a3,a3,-30
    80002438:	6788                	ld	a0,8(a5)
    8000243a:	58c3b06b          	0x58c3b06b
    8000243e:	f4cd                	bnez	s1,800023e8 <__global_pointer$+0x34c>
    80002440:	5b48                	lw	a0,52(a4)
    80002442:	3928                	fld	fa0,112(a0)
    80002444:	b6a1                	j	80001f8c <_tls_data+0x6cc>
    80002446:	cfa0                	sw	s0,88(a5)
    80002448:	2839                	addiw	a6,a6,14
    8000244a:	3d1f956f          	jal	a0,800fc01a <_end+0xf99c0>
    8000244e:	99e0f5c3          	fmadd.s	fa1,ft1,ft10,fs3
    80002452:	7e39                	lui	t3,0xfffee
    80002454:	2b000103          	lb	sp,688(zero) # 2b0 <_tbss_end+0x2b0>
    80002458:	aec5                	j	80002848 <_end+0x1ee>
    8000245a:	07ae                	slli	a5,a5,0xb
    8000245c:	8399                	srli	a5,a5,0x6
    8000245e:	d099                	beqz	s1,80002364 <__global_pointer$+0x2c8>
    80002460:	92df ef75 5c77      	0x5c77ef7592df
    80002466:	6194                	ld	a3,0(a1)
    80002468:	aa89                	j	800025ba <__global_pointer$+0x51e>
    8000246a:	558d                	li	a1,-29
    8000246c:	cd49                	beqz	a0,80002506 <__global_pointer$+0x46a>
    8000246e:	4198e66f          	jal	a2,80091086 <_end+0x8ea2c>
    80002472:	552e                	lw	a0,232(sp)
    80002474:	420c05e3          	beqz	s8,8000309e <_end+0xa44>
    80002478:	3733015b          	0x3733015b
    8000247c:	bc35                	j	80001eb8 <_tls_data+0x5f8>
    8000247e:	5bc1                	li	s7,-16
    80002480:	af52                	fsd	fs4,408(sp)
    80002482:	5b07219b          	0x5b07219b
    80002486:	d191                	beqz	a1,8000238a <__global_pointer$+0x2ee>
    80002488:	823d                	srli	a2,a2,0xf
    8000248a:	d466                	sw	s9,40(sp)
    8000248c:	440e                	lw	s0,192(sp)
    8000248e:	21b0                	fld	fa2,64(a1)
    80002490:	acba                	fsd	fa4,88(sp)
    80002492:	515303d3          	0x515303d3
    80002496:	59f9                	li	s3,-2
    80002498:	caf1                	beqz	a3,8000256c <__global_pointer$+0x4d0>
    8000249a:	5f28                	lw	a0,120(a4)
    8000249c:	e32e                	sd	a1,384(sp)
    8000249e:	4920                	lw	s0,80(a0)
    800024a0:	5696                	lw	a3,100(sp)
    800024a2:	b64c                	fsd	fa1,168(a2)
    800024a4:	91d2                	add	gp,gp,s4
    800024a6:	0c252b3b          	0xc252b3b
    800024aa:	655e                	ld	a0,464(sp)
    800024ac:	caea                	sw	s10,84(sp)
    800024ae:	ebf16237          	lui	tp,0xebf16
    800024b2:	f26d380b          	0xf26d380b
    800024b6:	f46d                	bnez	s0,800024a0 <__global_pointer$+0x404>
    800024b8:	e920                	sd	s0,80(a0)
    800024ba:	5ea1                	li	t4,-24
    800024bc:	ea686137          	lui	sp,0xea686
    800024c0:	d6b4                	sw	a3,104(a3)
    800024c2:	5979                	li	s2,-2
    800024c4:	eec6                	sd	a7,344(sp)
    800024c6:	580008eb          	0x580008eb
    800024ca:	4879003b          	0x4879003b
    800024ce:	bbe0                	fsd	fs0,240(a5)
    800024d0:	eb49                	bnez	a4,80002562 <__global_pointer$+0x4c6>
    800024d2:	91da                	add	gp,gp,s6
    800024d4:	0d7c                	addi	a5,sp,668
    800024d6:	223c                	fld	fa5,64(a2)
    800024d8:	54ec                	lw	a1,108(s1)
    800024da:	017d14d7          	0x17d14d7
    800024de:	8d02ede7          	0x8d02ede7
    800024e2:	b418                	fsd	fa4,40(s0)
    800024e4:	887e                	mv	a6,t6
    800024e6:	92bc                	0x92bc
    800024e8:	abc055b7          	lui	a1,0xabc05
    800024ec:	95e2                	add	a1,a1,s8
    800024ee:	93a0                	0x93a0
    800024f0:	0538                	addi	a4,sp,648
    800024f2:	5c36                	lw	s8,108(sp)
    800024f4:	a14d                	j	80002996 <_end+0x33c>
    800024f6:	6f38                	ld	a4,88(a4)
    800024f8:	5d25                	li	s10,-23
    800024fa:	e3e4                	sd	s1,192(a5)
    800024fc:	fe02                	sd	zero,312(sp)
    800024fe:	7e72                	ld	t3,312(sp)
    80002500:	1d30                	addi	a2,sp,696
    80002502:	e185                	bnez	a1,80002522 <__global_pointer$+0x486>
    80002504:	2229                	addiw	tp,tp,10
    80002506:	9424                	0x9424
    80002508:	9ad2                	add	s5,s5,s4
    8000250a:	a916                	fsd	ft5,144(sp)
    8000250c:	8520                	0x8520
    8000250e:	6e7d                	lui	t3,0x1f
    80002510:	20f1                	addiw	ra,ra,28
    80002512:	fab8                	sd	a4,112(a3)
    80002514:	aa0a                	fsd	ft2,272(sp)
    80002516:	8a8c                	0x8a8c
    80002518:	faa2bfa3          	sd	a0,-65(t0) # 1fbf <_tbss_end+0x1fbf>
    8000251c:	cdac55db          	0xcdac55db
    80002520:	6479                	lui	s0,0x1e
    80002522:	71aa1223          	sh	s10,1796(s4) # ffffffffac163704 <_end+0xffffffff2c1610aa>
    80002526:	bc8718c3          	0xbc8718c3
    8000252a:	3281                	addiw	t0,t0,-32
    8000252c:	e7e2                	sd	s8,456(sp)
    8000252e:	cdbc898b          	0xcdbc898b
    80002532:	758c                	ld	a1,40(a1)
    80002534:	74c2                	ld	s1,48(sp)
    80002536:	a4e9                	j	80002800 <_end+0x1a6>
    80002538:	68d15fa3          	0x68d15fa3
    8000253c:	361f 3624 fe1a      	0xfe1a3624361f
    80002542:	b4b6                	fsd	fa3,104(sp)
    80002544:	cede                	sw	s7,92(sp)
    80002546:	791d                	lui	s2,0xfffe7
    80002548:	7dff                	0x7dff
    8000254a:	6edd                	lui	t4,0x17
    8000254c:	59dc                	lw	a5,52(a1)
    8000254e:	0748                	addi	a0,sp,900
    80002550:	2c7e                	fld	fs8,472(sp)
    80002552:	e10a                	sd	sp,128(sp)
    80002554:	5fed                	li	t6,-5
    80002556:	0396                	slli	t2,t2,0x5
    80002558:	0001                	nop
    8000255a:	78bd                	lui	a7,0xfffef
    8000255c:	1fb6                	slli	t6,t6,0x2d
    8000255e:	7c764f0b          	0x7c764f0b
    80002562:	c274                	sw	a3,68(a2)
    80002564:	60814137          	lui	sp,0x60814
    80002568:	434a                	lw	t1,144(sp)
    8000256a:	3908                	fld	fa0,48(a0)
    8000256c:	4588                	lw	a0,8(a1)
    8000256e:	7e13406b          	0x7e13406b
    80002572:	6924c78b          	0x6924c78b
    80002576:	2e84                	fld	fs1,24(a3)
    80002578:	a8c0                	fsd	fs0,144(s1)
    8000257a:	dee8                	sw	a0,124(a3)
    8000257c:	8928                	0x8928
    8000257e:	b348                	fsd	fa0,160(a4)
    80002580:	f50c                	sd	a1,40(a0)
    80002582:	cb5e                	sw	s7,148(sp)
    80002584:	10709007          	0x10709007
    80002588:	b3b24b37          	lui	s6,0xb3b24
    8000258c:	15a8                	addi	a0,sp,744
    8000258e:	1bae8be3          	beq	t4,s10,80002f44 <_end+0x8ea>
    80002592:	0950                	addi	a2,sp,148
    80002594:	10037ac3          	fmadd.s	fs5,ft6,ft0,ft2
    80002598:	061a                	slli	a2,a2,0x6
    8000259a:	a7ad834b          	fnmsub.q	ft6,fs11,fs10,fs4,rne
    8000259e:	a2e167af          	0xa2e167af
    800025a2:	ddca                	sw	s2,248(sp)
    800025a4:	bd90                	fsd	fa2,56(a1)
    800025a6:	2ea8                	fld	fa0,88(a3)
    800025a8:	fb59                	bnez	a4,8000253e <__global_pointer$+0x4a2>
    800025aa:	b6a2                	fsd	fs0,360(sp)
    800025ac:	cb6a                	sw	s10,148(sp)
    800025ae:	0308d367          	0x308d367
    800025b2:	bd12                	fsd	ft4,184(sp)
    800025b4:	ea78                	sd	a4,208(a2)
    800025b6:	015c                	addi	a5,sp,132
    800025b8:	f7ca                	sd	s2,488(sp)
    800025ba:	4300                	lw	s0,0(a4)
    800025bc:	c8a8                	sw	a0,80(s1)
    800025be:	9dfcdf2f          	0x9dfcdf2f
    800025c2:	84d016c7          	0x84d016c7
    800025c6:	4260                	lw	s0,68(a2)
    800025c8:	fe22ca03          	lbu	s4,-30(t0)
    800025cc:	ea35                	bnez	a2,80002640 <__global_pointer$+0x5a4>
    800025ce:	6bac                	ld	a1,80(a5)
    800025d0:	7a09                	lui	s4,0xfffe2
    800025d2:	2ed7813b          	0x2ed7813b
    800025d6:	40e6                	lw	ra,88(sp)
    800025d8:	1f69                	addi	t5,t5,-6
    800025da:	78f0                	ld	a2,240(s1)
    800025dc:	dbfc                	sw	a5,116(a5)
    800025de:	84d0                	0x84d0
    800025e0:	50fe                	lw	ra,252(sp)
    800025e2:	4780                	lw	s0,8(a5)
    800025e4:	9e05                	subw	a2,a2,s1
    800025e6:	a7e5                	j	80002dce <_end+0x774>
    800025e8:	38b2                	fld	fa7,296(sp)
    800025ea:	a296                	fsd	ft5,320(sp)
    800025ec:	c734                	sw	a3,72(a4)
    800025ee:	7a5c                	ld	a5,176(a2)
    800025f0:	097c                	addi	a5,sp,156
    800025f2:	2326                	fld	ft6,72(sp)
    800025f4:	30c1                	addiw	ra,ra,-16
    800025f6:	6960                	ld	s0,208(a0)
    800025f8:	862e                	mv	a2,a1
    800025fa:	8430                	0x8430
    800025fc:	5d72                	lw	s10,60(sp)
    800025fe:	88755733          	0x88755733
    80002602:	e2c8                	sd	a0,128(a3)
    80002604:	52b0                	lw	a2,96(a3)
    80002606:	0abe                	slli	s5,s5,0xf
    80002608:	eee0                	sd	s0,216(a3)
    8000260a:	0015                	c.nop	5
    8000260c:	54ce                	lw	s1,240(sp)
    8000260e:	59de                	lw	s3,244(sp)
    80002610:	3e85                	addiw	t4,t4,-31
    80002612:	07b4                	addi	a3,sp,968
    80002614:	f751                	bnez	a4,800025a0 <__global_pointer$+0x504>
    80002616:	a220                	fsd	fs0,64(a2)
    80002618:	6592                	ld	a1,256(sp)
    8000261a:	a1ce84d3          	fle.s	s1,ft9,ft8
    8000261e:	38dc                	fld	fa5,176(s1)
    80002620:	9990                	0x9990
    80002622:	aa42ee57          	0xaa42ee57
    80002626:	d98c                	sw	a1,48(a1)
    80002628:	c715                	beqz	a4,80002654 <__global_pointer$+0x5b8>
    8000262a:	2ece                	fld	ft9,208(sp)
    8000262c:	da40                	sw	s0,52(a2)
    8000262e:	89aa                	mv	s3,a0
    80002630:	5944                	lw	s1,52(a0)
    80002632:	46bf47ef          	jal	a5,800f729c <_end+0xf4c42>
    80002636:	e384                	sd	s1,0(a5)
    80002638:	1c5c                	addi	a5,sp,564
    8000263a:	c5a2                	sw	s0,200(sp)
    8000263c:	7df15007          	0x7df15007
    80002640:	932a                	add	t1,t1,a0
    80002642:	54f6ee0b          	0x54f6ee0b
    80002646:	1e68                	addi	a0,sp,828
    80002648:	0e09                	addi	t3,t3,2
    8000264a:	99b86abf 2b1b91d6 	0x2b1b91d699b86abf
    80002652:	fd0e                	sd	gp,184(sp)
    80002654:	9728                	0x9728
    80002656:	e65e                	sd	s7,264(sp)
    80002658:	          	0x4af3
